
../obj/app_print_backtrace:     file format elf64-littleriscv


Disassembly of section .text:

0000000081000000 <f8>:
    81000000:	1141                	addi	sp,sp,-16
    81000002:	e406                	sd	ra,8(sp)
    81000004:	e022                	sd	s0,0(sp)
    81000006:	0800                	addi	s0,sp,16
    81000008:	451d                	li	a0,7
    8100000a:	160000ef          	jal	ra,8100016a <print_backtrace>
    8100000e:	60a2                	ld	ra,8(sp)
    81000010:	6402                	ld	s0,0(sp)
    81000012:	0141                	addi	sp,sp,16
    81000014:	8082                	ret

0000000081000016 <f7>:
    81000016:	1141                	addi	sp,sp,-16
    81000018:	e406                	sd	ra,8(sp)
    8100001a:	e022                	sd	s0,0(sp)
    8100001c:	0800                	addi	s0,sp,16
    8100001e:	fe3ff0ef          	jal	ra,81000000 <f8>
    81000022:	60a2                	ld	ra,8(sp)
    81000024:	6402                	ld	s0,0(sp)
    81000026:	0141                	addi	sp,sp,16
    81000028:	8082                	ret

000000008100002a <f6>:
    8100002a:	1141                	addi	sp,sp,-16
    8100002c:	e406                	sd	ra,8(sp)
    8100002e:	e022                	sd	s0,0(sp)
    81000030:	0800                	addi	s0,sp,16
    81000032:	fe5ff0ef          	jal	ra,81000016 <f7>
    81000036:	60a2                	ld	ra,8(sp)
    81000038:	6402                	ld	s0,0(sp)
    8100003a:	0141                	addi	sp,sp,16
    8100003c:	8082                	ret

000000008100003e <f5>:
    8100003e:	1141                	addi	sp,sp,-16
    81000040:	e406                	sd	ra,8(sp)
    81000042:	e022                	sd	s0,0(sp)
    81000044:	0800                	addi	s0,sp,16
    81000046:	fe5ff0ef          	jal	ra,8100002a <f6>
    8100004a:	60a2                	ld	ra,8(sp)
    8100004c:	6402                	ld	s0,0(sp)
    8100004e:	0141                	addi	sp,sp,16
    81000050:	8082                	ret

0000000081000052 <f4>:
    81000052:	1141                	addi	sp,sp,-16
    81000054:	e406                	sd	ra,8(sp)
    81000056:	e022                	sd	s0,0(sp)
    81000058:	0800                	addi	s0,sp,16
    8100005a:	fe5ff0ef          	jal	ra,8100003e <f5>
    8100005e:	60a2                	ld	ra,8(sp)
    81000060:	6402                	ld	s0,0(sp)
    81000062:	0141                	addi	sp,sp,16
    81000064:	8082                	ret

0000000081000066 <f3>:
    81000066:	1141                	addi	sp,sp,-16
    81000068:	e406                	sd	ra,8(sp)
    8100006a:	e022                	sd	s0,0(sp)
    8100006c:	0800                	addi	s0,sp,16
    8100006e:	fe5ff0ef          	jal	ra,81000052 <f4>
    81000072:	60a2                	ld	ra,8(sp)
    81000074:	6402                	ld	s0,0(sp)
    81000076:	0141                	addi	sp,sp,16
    81000078:	8082                	ret

000000008100007a <f2>:
    8100007a:	1141                	addi	sp,sp,-16
    8100007c:	e406                	sd	ra,8(sp)
    8100007e:	e022                	sd	s0,0(sp)
    81000080:	0800                	addi	s0,sp,16
    81000082:	fe5ff0ef          	jal	ra,81000066 <f3>
    81000086:	60a2                	ld	ra,8(sp)
    81000088:	6402                	ld	s0,0(sp)
    8100008a:	0141                	addi	sp,sp,16
    8100008c:	8082                	ret

000000008100008e <f1>:
    8100008e:	1141                	addi	sp,sp,-16
    81000090:	e406                	sd	ra,8(sp)
    81000092:	e022                	sd	s0,0(sp)
    81000094:	0800                	addi	s0,sp,16
    81000096:	fe5ff0ef          	jal	ra,8100007a <f2>
    8100009a:	60a2                	ld	ra,8(sp)
    8100009c:	6402                	ld	s0,0(sp)
    8100009e:	0141                	addi	sp,sp,16
    810000a0:	8082                	ret

00000000810000a2 <main>:
    810000a2:	1141                	addi	sp,sp,-16
    810000a4:	e406                	sd	ra,8(sp)
    810000a6:	e022                	sd	s0,0(sp)
    810000a8:	0800                	addi	s0,sp,16
    810000aa:	00000517          	auipc	a0,0x0
    810000ae:	2ee50513          	addi	a0,a0,750 # 81000398 <vsnprintf+0x208>
    810000b2:	030000ef          	jal	ra,810000e2 <printu>
    810000b6:	fd9ff0ef          	jal	ra,8100008e <f1>
    810000ba:	4501                	li	a0,0
    810000bc:	088000ef          	jal	ra,81000144 <exit>
    810000c0:	4501                	li	a0,0
    810000c2:	60a2                	ld	ra,8(sp)
    810000c4:	6402                	ld	s0,0(sp)
    810000c6:	0141                	addi	sp,sp,16
    810000c8:	8082                	ret

00000000810000ca <do_user_call>:
    810000ca:	1101                	addi	sp,sp,-32
    810000cc:	ec22                	sd	s0,24(sp)
    810000ce:	1000                	addi	s0,sp,32
    810000d0:	00000073          	ecall
    810000d4:	fea42623          	sw	a0,-20(s0)
    810000d8:	fec42503          	lw	a0,-20(s0)
    810000dc:	6462                	ld	s0,24(sp)
    810000de:	6105                	addi	sp,sp,32
    810000e0:	8082                	ret

00000000810000e2 <printu>:
    810000e2:	710d                	addi	sp,sp,-352
    810000e4:	ee06                	sd	ra,280(sp)
    810000e6:	ea22                	sd	s0,272(sp)
    810000e8:	1200                	addi	s0,sp,288
    810000ea:	e40c                	sd	a1,8(s0)
    810000ec:	e810                	sd	a2,16(s0)
    810000ee:	ec14                	sd	a3,24(s0)
    810000f0:	f018                	sd	a4,32(s0)
    810000f2:	f41c                	sd	a5,40(s0)
    810000f4:	03043823          	sd	a6,48(s0)
    810000f8:	03143c23          	sd	a7,56(s0)
    810000fc:	00840693          	addi	a3,s0,8
    81000100:	fed43423          	sd	a3,-24(s0)
    81000104:	862a                	mv	a2,a0
    81000106:	10000593          	li	a1,256
    8100010a:	ee840513          	addi	a0,s0,-280
    8100010e:	082000ef          	jal	ra,81000190 <vsnprintf>
    81000112:	0005071b          	sext.w	a4,a0
    81000116:	0ff00793          	li	a5,255
    8100011a:	02e7e263          	bltu	a5,a4,8100013e <printu+0x5c>
    8100011e:	862a                	mv	a2,a0
    81000120:	4881                	li	a7,0
    81000122:	4801                	li	a6,0
    81000124:	4781                	li	a5,0
    81000126:	4701                	li	a4,0
    81000128:	4681                	li	a3,0
    8100012a:	ee840593          	addi	a1,s0,-280
    8100012e:	04000513          	li	a0,64
    81000132:	f99ff0ef          	jal	ra,810000ca <do_user_call>
    81000136:	60f2                	ld	ra,280(sp)
    81000138:	6452                	ld	s0,272(sp)
    8100013a:	6135                	addi	sp,sp,352
    8100013c:	8082                	ret
    8100013e:	10000613          	li	a2,256
    81000142:	bff9                	j	81000120 <printu+0x3e>

0000000081000144 <exit>:
    81000144:	1141                	addi	sp,sp,-16
    81000146:	e406                	sd	ra,8(sp)
    81000148:	e022                	sd	s0,0(sp)
    8100014a:	0800                	addi	s0,sp,16
    8100014c:	85aa                	mv	a1,a0
    8100014e:	4881                	li	a7,0
    81000150:	4801                	li	a6,0
    81000152:	4781                	li	a5,0
    81000154:	4701                	li	a4,0
    81000156:	4681                	li	a3,0
    81000158:	4601                	li	a2,0
    8100015a:	04100513          	li	a0,65
    8100015e:	f6dff0ef          	jal	ra,810000ca <do_user_call>
    81000162:	60a2                	ld	ra,8(sp)
    81000164:	6402                	ld	s0,0(sp)
    81000166:	0141                	addi	sp,sp,16
    81000168:	8082                	ret

000000008100016a <print_backtrace>:
    8100016a:	1141                	addi	sp,sp,-16
    8100016c:	e406                	sd	ra,8(sp)
    8100016e:	e022                	sd	s0,0(sp)
    81000170:	0800                	addi	s0,sp,16
    81000172:	85aa                	mv	a1,a0
    81000174:	4881                	li	a7,0
    81000176:	4801                	li	a6,0
    81000178:	4781                	li	a5,0
    8100017a:	4701                	li	a4,0
    8100017c:	4681                	li	a3,0
    8100017e:	4601                	li	a2,0
    81000180:	04200513          	li	a0,66
    81000184:	f47ff0ef          	jal	ra,810000ca <do_user_call>
    81000188:	60a2                	ld	ra,8(sp)
    8100018a:	6402                	ld	s0,0(sp)
    8100018c:	0141                	addi	sp,sp,16
    8100018e:	8082                	ret

0000000081000190 <vsnprintf>:
    81000190:	1101                	addi	sp,sp,-32
    81000192:	ec22                	sd	s0,24(sp)
    81000194:	1000                	addi	s0,sp,32
    81000196:	fed43423          	sd	a3,-24(s0)
    8100019a:	4781                	li	a5,0
    8100019c:	4301                	li	t1,0
    8100019e:	4681                	li	a3,0
    810001a0:	a255                	j	81000344 <vsnprintf+0x1b4>
    810001a2:	00178713          	addi	a4,a5,1
    810001a6:	00b77863          	bgeu	a4,a1,810001b6 <vsnprintf+0x26>
    810001aa:	00f50833          	add	a6,a0,a5
    810001ae:	03000893          	li	a7,48
    810001b2:	01180023          	sb	a7,0(a6)
    810001b6:	0789                	addi	a5,a5,2
    810001b8:	00b7f763          	bgeu	a5,a1,810001c6 <vsnprintf+0x36>
    810001bc:	972a                	add	a4,a4,a0
    810001be:	07800813          	li	a6,120
    810001c2:	01070023          	sb	a6,0(a4)
    810001c6:	fe843703          	ld	a4,-24(s0)
    810001ca:	00870813          	addi	a6,a4,8
    810001ce:	ff043423          	sd	a6,-24(s0)
    810001d2:	00073883          	ld	a7,0(a4)
    810001d6:	eaa9                	bnez	a3,81000228 <vsnprintf+0x98>
    810001d8:	469d                	li	a3,7
    810001da:	a035                	j	81000206 <vsnprintf+0x76>
    810001dc:	00030463          	beqz	t1,810001e4 <vsnprintf+0x54>
    810001e0:	869a                	mv	a3,t1
    810001e2:	b7d5                	j	810001c6 <vsnprintf+0x36>
    810001e4:	fe843703          	ld	a4,-24(s0)
    810001e8:	00870693          	addi	a3,a4,8
    810001ec:	fed43423          	sd	a3,-24(s0)
    810001f0:	00072883          	lw	a7,0(a4)
    810001f4:	869a                	mv	a3,t1
    810001f6:	b7c5                	j	810001d6 <vsnprintf+0x46>
    810001f8:	05770713          	addi	a4,a4,87
    810001fc:	97aa                	add	a5,a5,a0
    810001fe:	00e78023          	sb	a4,0(a5)
    81000202:	36fd                	addiw	a3,a3,-1
    81000204:	87c2                	mv	a5,a6
    81000206:	0206c363          	bltz	a3,8100022c <vsnprintf+0x9c>
    8100020a:	0026971b          	slliw	a4,a3,0x2
    8100020e:	40e8d733          	sra	a4,a7,a4
    81000212:	8b3d                	andi	a4,a4,15
    81000214:	00178813          	addi	a6,a5,1
    81000218:	feb875e3          	bgeu	a6,a1,81000202 <vsnprintf+0x72>
    8100021c:	4325                	li	t1,9
    8100021e:	fce34de3          	blt	t1,a4,810001f8 <vsnprintf+0x68>
    81000222:	03070713          	addi	a4,a4,48
    81000226:	bfd9                	j	810001fc <vsnprintf+0x6c>
    81000228:	46bd                	li	a3,15
    8100022a:	bff1                	j	81000206 <vsnprintf+0x76>
    8100022c:	4301                	li	t1,0
    8100022e:	4681                	li	a3,0
    81000230:	aa09                	j	81000342 <vsnprintf+0x1b2>
    81000232:	00030f63          	beqz	t1,81000250 <vsnprintf+0xc0>
    81000236:	fe843703          	ld	a4,-24(s0)
    8100023a:	00870693          	addi	a3,a4,8
    8100023e:	fed43423          	sd	a3,-24(s0)
    81000242:	00073883          	ld	a7,0(a4)
    81000246:	0008ce63          	bltz	a7,81000262 <vsnprintf+0xd2>
    8100024a:	8746                	mv	a4,a7
    8100024c:	4305                	li	t1,1
    8100024e:	a815                	j	81000282 <vsnprintf+0xf2>
    81000250:	fe843703          	ld	a4,-24(s0)
    81000254:	00870693          	addi	a3,a4,8
    81000258:	fed43423          	sd	a3,-24(s0)
    8100025c:	00072883          	lw	a7,0(a4)
    81000260:	b7dd                	j	81000246 <vsnprintf+0xb6>
    81000262:	411008b3          	neg	a7,a7
    81000266:	00178713          	addi	a4,a5,1
    8100026a:	00b77963          	bgeu	a4,a1,8100027c <vsnprintf+0xec>
    8100026e:	97aa                	add	a5,a5,a0
    81000270:	02d00693          	li	a3,45
    81000274:	00d78023          	sb	a3,0(a5)
    81000278:	87ba                	mv	a5,a4
    8100027a:	bfc1                	j	8100024a <vsnprintf+0xba>
    8100027c:	87ba                	mv	a5,a4
    8100027e:	b7f1                	j	8100024a <vsnprintf+0xba>
    81000280:	0305                	addi	t1,t1,1
    81000282:	46a9                	li	a3,10
    81000284:	02d74733          	div	a4,a4,a3
    81000288:	ff65                	bnez	a4,81000280 <vsnprintf+0xf0>
    8100028a:	fff3071b          	addiw	a4,t1,-1
    8100028e:	a029                	j	81000298 <vsnprintf+0x108>
    81000290:	46a9                	li	a3,10
    81000292:	02d8c8b3          	div	a7,a7,a3
    81000296:	377d                	addiw	a4,a4,-1
    81000298:	02074163          	bltz	a4,810002ba <vsnprintf+0x12a>
    8100029c:	00f706b3          	add	a3,a4,a5
    810002a0:	00168813          	addi	a6,a3,1
    810002a4:	feb876e3          	bgeu	a6,a1,81000290 <vsnprintf+0x100>
    810002a8:	4829                	li	a6,10
    810002aa:	0308e833          	rem	a6,a7,a6
    810002ae:	96aa                	add	a3,a3,a0
    810002b0:	0308081b          	addiw	a6,a6,48
    810002b4:	01068023          	sb	a6,0(a3)
    810002b8:	bfe1                	j	81000290 <vsnprintf+0x100>
    810002ba:	979a                	add	a5,a5,t1
    810002bc:	4301                	li	t1,0
    810002be:	4681                	li	a3,0
    810002c0:	a049                	j	81000342 <vsnprintf+0x1b2>
    810002c2:	fe843703          	ld	a4,-24(s0)
    810002c6:	00870693          	addi	a3,a4,8
    810002ca:	fed43423          	sd	a3,-24(s0)
    810002ce:	6318                	ld	a4,0(a4)
    810002d0:	a019                	j	810002d6 <vsnprintf+0x146>
    810002d2:	0705                	addi	a4,a4,1
    810002d4:	87b6                	mv	a5,a3
    810002d6:	00074803          	lbu	a6,0(a4)
    810002da:	00080a63          	beqz	a6,810002ee <vsnprintf+0x15e>
    810002de:	00178693          	addi	a3,a5,1
    810002e2:	feb6f8e3          	bgeu	a3,a1,810002d2 <vsnprintf+0x142>
    810002e6:	97aa                	add	a5,a5,a0
    810002e8:	01078023          	sb	a6,0(a5)
    810002ec:	b7dd                	j	810002d2 <vsnprintf+0x142>
    810002ee:	4301                	li	t1,0
    810002f0:	4681                	li	a3,0
    810002f2:	a881                	j	81000342 <vsnprintf+0x1b2>
    810002f4:	00178713          	addi	a4,a5,1
    810002f8:	04b77063          	bgeu	a4,a1,81000338 <vsnprintf+0x1a8>
    810002fc:	fe843683          	ld	a3,-24(s0)
    81000300:	00868813          	addi	a6,a3,8
    81000304:	ff043423          	sd	a6,-24(s0)
    81000308:	97aa                	add	a5,a5,a0
    8100030a:	0006c683          	lbu	a3,0(a3)
    8100030e:	00d78023          	sb	a3,0(a5)
    81000312:	87ba                	mv	a5,a4
    81000314:	4301                	li	t1,0
    81000316:	4681                	li	a3,0
    81000318:	a02d                	j	81000342 <vsnprintf+0x1b2>
    8100031a:	02500813          	li	a6,37
    8100031e:	03070163          	beq	a4,a6,81000340 <vsnprintf+0x1b0>
    81000322:	00178813          	addi	a6,a5,1
    81000326:	04b87463          	bgeu	a6,a1,8100036e <vsnprintf+0x1de>
    8100032a:	97aa                	add	a5,a5,a0
    8100032c:	00e78023          	sb	a4,0(a5)
    81000330:	87c2                	mv	a5,a6
    81000332:	a801                	j	81000342 <vsnprintf+0x1b2>
    81000334:	8336                	mv	t1,a3
    81000336:	a031                	j	81000342 <vsnprintf+0x1b2>
    81000338:	87ba                	mv	a5,a4
    8100033a:	4301                	li	t1,0
    8100033c:	4681                	li	a3,0
    8100033e:	a011                	j	81000342 <vsnprintf+0x1b2>
    81000340:	4685                	li	a3,1
    81000342:	0605                	addi	a2,a2,1
    81000344:	00064703          	lbu	a4,0(a2)
    81000348:	c70d                	beqz	a4,81000372 <vsnprintf+0x1e2>
    8100034a:	dae1                	beqz	a3,8100031a <vsnprintf+0x18a>
    8100034c:	f9d7071b          	addiw	a4,a4,-99
    81000350:	0ff77893          	zext.b	a7,a4
    81000354:	4855                	li	a6,21
    81000356:	ff1866e3          	bltu	a6,a7,81000342 <vsnprintf+0x1b2>
    8100035a:	00289713          	slli	a4,a7,0x2
    8100035e:	00000817          	auipc	a6,0x0
    81000362:	06680813          	addi	a6,a6,102 # 810003c4 <vsnprintf+0x234>
    81000366:	9742                	add	a4,a4,a6
    81000368:	4318                	lw	a4,0(a4)
    8100036a:	9742                	add	a4,a4,a6
    8100036c:	8702                	jr	a4
    8100036e:	87c2                	mv	a5,a6
    81000370:	bfc9                	j	81000342 <vsnprintf+0x1b2>
    81000372:	00b7fa63          	bgeu	a5,a1,81000386 <vsnprintf+0x1f6>
    81000376:	953e                	add	a0,a0,a5
    81000378:	00050023          	sb	zero,0(a0)
    8100037c:	0007851b          	sext.w	a0,a5
    81000380:	6462                	ld	s0,24(sp)
    81000382:	6105                	addi	sp,sp,32
    81000384:	8082                	ret
    81000386:	d9fd                	beqz	a1,8100037c <vsnprintf+0x1ec>
    81000388:	15fd                	addi	a1,a1,-1
    8100038a:	952e                	add	a0,a0,a1
    8100038c:	00050023          	sb	zero,0(a0)
    81000390:	b7f5                	j	8100037c <vsnprintf+0x1ec>

Disassembly of section .rodata.str1.8:

0000000081000398 <.rodata.str1.8>:
    81000398:	6162                	ld	sp,24(sp)
    8100039a:	74206b63          	bltu	zero,sp,81000af0 <vsnprintf+0x960>
    8100039e:	6172                	ld	sp,280(sp)
    810003a0:	74206563          	bltu	zero,sp,81000aea <vsnprintf+0x95a>
    810003a4:	6568                	ld	a0,200(a0)
    810003a6:	7520                	ld	s0,104(a0)
    810003a8:	20726573          	csrrsi	a0,0x207,4
    810003ac:	7061                	c.lui	zero,0xffff8
    810003ae:	2070                	fld	fa2,192(s0)
    810003b0:	6e69                	lui	t3,0x1a
    810003b2:	7420                	ld	s0,104(s0)
    810003b4:	6568                	ld	a0,200(a0)
    810003b6:	6620                	ld	s0,72(a2)
    810003b8:	6f6c6c6f          	jal	s8,810c6aae <vsnprintf+0xc691e>
    810003bc:	676e6977          	0x676e6977
    810003c0:	0a3a                	slli	s4,s4,0xe
	...

Disassembly of section .rodata:

00000000810003c4 <.rodata>:
    810003c4:	ff30                	sd	a2,120(a4)
    810003c6:	ffff                	0xffff
    810003c8:	fe6e                	sd	s11,312(sp)
    810003ca:	ffff                	0xffff
    810003cc:	ff7e                	sd	t6,440(sp)
    810003ce:	ffff                	0xffff
    810003d0:	ff7e                	sd	t6,440(sp)
    810003d2:	ffff                	0xffff
    810003d4:	ff7e                	sd	t6,440(sp)
    810003d6:	ffff                	0xffff
    810003d8:	ff7e                	sd	t6,440(sp)
    810003da:	ffff                	0xffff
    810003dc:	ff7e                	sd	t6,440(sp)
    810003de:	ffff                	0xffff
    810003e0:	ff7e                	sd	t6,440(sp)
    810003e2:	ffff                	0xffff
    810003e4:	ff7e                	sd	t6,440(sp)
    810003e6:	ffff                	0xffff
    810003e8:	ff70                	sd	a2,248(a4)
    810003ea:	ffff                	0xffff
    810003ec:	ff7e                	sd	t6,440(sp)
    810003ee:	ffff                	0xffff
    810003f0:	ff7e                	sd	t6,440(sp)
    810003f2:	ffff                	0xffff
    810003f4:	ff7e                	sd	t6,440(sp)
    810003f6:	ffff                	0xffff
    810003f8:	fdde                	sd	s7,248(sp)
    810003fa:	ffff                	0xffff
    810003fc:	ff7e                	sd	t6,440(sp)
    810003fe:	ffff                	0xffff
    81000400:	ff7e                	sd	t6,440(sp)
    81000402:	ffff                	0xffff
    81000404:	fefe                	sd	t6,376(sp)
    81000406:	ffff                	0xffff
    81000408:	ff7e                	sd	t6,440(sp)
    8100040a:	ffff                	0xffff
    8100040c:	ff7e                	sd	t6,440(sp)
    8100040e:	ffff                	0xffff
    81000410:	ff7e                	sd	t6,440(sp)
    81000412:	ffff                	0xffff
    81000414:	ff7e                	sd	t6,440(sp)
    81000416:	ffff                	0xffff
    81000418:	fe18                	sd	a4,56(a2)
    8100041a:	ffff                	0xffff

Disassembly of section .debug_info:

0000000000000000 <.debug_info>:
   0:	026e                	slli	tp,tp,0x1b
   2:	0000                	unimp
   4:	0005                	c.nop	1
   6:	0801                	addi	a6,a6,0
   8:	0000                	unimp
   a:	0000                	unimp
   c:	3808                	fld	fa0,48(s0)
   e:	0000                	unimp
  10:	0c00                	addi	s0,sp,528
  12:	0000                	unimp
  14:	0000                	unimp
  16:	0000001b          	sext.w	zero,zero
  1a:	0000                	unimp
  1c:	8100                	0x8100
  1e:	0000                	unimp
  20:	0000                	unimp
  22:	00ca                	slli	ra,ra,0x12
	...
  2c:	0000                	unimp
  2e:	0101                	addi	sp,sp,0
  30:	2a08                	fld	fa0,16(a2)
  32:	0000                	unimp
  34:	0100                	addi	s0,sp,128
  36:	0702                	c.slli64	a4
  38:	00fc                	addi	a5,sp,76
  3a:	0000                	unimp
  3c:	0401                	addi	s0,s0,0
  3e:	00001d07          	0x1d07
  42:	0100                	addi	s0,sp,128
  44:	0708                	addi	a0,sp,896
  46:	00000013          	nop
  4a:	0101                	addi	sp,sp,0
  4c:	2c06                	fld	fs8,64(sp)
  4e:	0000                	unimp
  50:	0100                	addi	s0,sp,128
  52:	0502                	c.slli64	a0
  54:	0124                	addi	s1,sp,136
  56:	0000                	unimp
  58:	0409                	addi	s0,s0,2
  5a:	6905                	lui	s2,0x1
  5c:	746e                	ld	s0,248(sp)
  5e:	0100                	addi	s0,sp,128
  60:	0508                	addi	a0,sp,640
  62:	0000                	unimp
  64:	0000                	unimp
  66:	0801                	addi	a6,a6,0
  68:	0505                	addi	a0,a0,1
  6a:	0000                	unimp
  6c:	0100                	addi	s0,sp,128
  6e:	0708                	addi	a0,sp,896
  70:	0018                	0x18
  72:	0000                	unimp
  74:	0f04                	addi	s1,sp,912
  76:	0001                	nop
  78:	0600                	addi	s0,sp,768
  7a:	0058                	addi	a4,sp,4
  7c:	0000                	unimp
  7e:	0088                	addi	a0,sp,64
  80:	0000                	unimp
  82:	5805                	li	a6,-31
  84:	0000                	unimp
  86:	0000                	unimp
  88:	f504                	sd	s1,40(a0)
  8a:	0000                	unimp
  8c:	0500                	addi	s0,sp,640
  8e:	0058                	addi	a4,sp,4
  90:	0000                	unimp
  92:	009d                	addi	ra,ra,7
  94:	0000                	unimp
  96:	9d05                	subw	a0,a0,s1
  98:	0000                	unimp
  9a:	0a00                	addi	s0,sp,272
  9c:	0b00                	addi	s0,sp,400
  9e:	aa08                	fsd	fa0,16(a2)
  a0:	0000                	unimp
  a2:	0100                	addi	s0,sp,128
  a4:	0801                	addi	a6,a6,0
  a6:	00000033          	add	zero,zero,zero
  aa:	a30c                	fsd	fa1,0(a4)
  ac:	0000                	unimp
  ae:	0400                	addi	s0,sp,512
  b0:	0114                	addi	a3,sp,128
  b2:	0000                	unimp
  b4:	5809                	li	a6,-30
  b6:	0000                	unimp
  b8:	c300                	sw	s0,0(a4)
  ba:	0000                	unimp
  bc:	0500                	addi	s0,sp,640
  be:	0058                	addi	a4,sp,4
  c0:	0000                	unimp
  c2:	0d00                	addi	s0,sp,656
  c4:	000e                	c.slli	zero,0x3
  c6:	0000                	unimp
  c8:	1401                	addi	s0,s0,-32
  ca:	5805                	li	a6,-31
  cc:	0000                	unimp
  ce:	a200                	fsd	fs0,0(a2)
  d0:	0000                	unimp
  d2:	0081                	addi	ra,ra,0
  d4:	0000                	unimp
  d6:	2800                	fld	fs0,16(s0)
  d8:	0000                	unimp
  da:	0000                	unimp
  dc:	0000                	unimp
  de:	0100                	addi	s0,sp,128
  e0:	259c                	fld	fa5,8(a1)
  e2:	0001                	nop
  e4:	0e00                	addi	s0,sp,784
  e6:	00b6                	slli	ra,ra,0xd
  e8:	8100                	0x8100
  ea:	0000                	unimp
  ec:	0000                	unimp
  ee:	0088                	addi	a0,sp,64
  f0:	0000                	unimp
  f2:	0104                	addi	s1,sp,128
  f4:	0000                	unimp
  f6:	0106                	slli	sp,sp,0x1
  f8:	095a                	slli	s2,s2,0x16
  fa:	00039803          	lh	a6,0(t2)
  fe:	0081                	addi	ra,ra,0
 100:	0000                	unimp
 102:	0000                	unimp
 104:	ba02                	fsd	ft0,304(sp)
 106:	0000                	unimp
 108:	0081                	addi	ra,ra,0
 10a:	0000                	unimp
 10c:	2500                	fld	fs0,8(a0)
 10e:	0001                	nop
 110:	0700                	addi	s0,sp,896
 112:	00c0                	addi	s0,sp,68
 114:	8100                	0x8100
 116:	0000                	unimp
 118:	0000                	unimp
 11a:	0074                	addi	a3,sp,12
 11c:	0000                	unimp
 11e:	0106                	slli	sp,sp,0x1
 120:	015a                	slli	sp,sp,0x16
 122:	0030                	addi	a2,sp,8
 124:	0300                	addi	s0,sp,384
 126:	3166                	fld	ft2,120(sp)
 128:	1000                	addi	s0,sp,32
 12a:	008e                	slli	ra,ra,0x3
 12c:	8100                	0x8100
 12e:	0000                	unimp
 130:	0000                	unimp
 132:	0014                	0x14
 134:	0000                	unimp
 136:	0000                	unimp
 138:	0000                	unimp
 13a:	9c01                	subw	s0,s0,s0
 13c:	014e                	slli	sp,sp,0x13
 13e:	0000                	unimp
 140:	9a02                	jalr	s4
 142:	0000                	unimp
 144:	0081                	addi	ra,ra,0
 146:	0000                	unimp
 148:	4e00                	lw	s0,24(a2)
 14a:	0001                	nop
 14c:	0000                	unimp
 14e:	00326603          	lwu	a2,3(tp) # 3 <f8-0x80fffffd>
 152:	00007a0f          	0x7a0f
 156:	0081                	addi	ra,ra,0
 158:	0000                	unimp
 15a:	1400                	addi	s0,sp,544
 15c:	0000                	unimp
 15e:	0000                	unimp
 160:	0000                	unimp
 162:	0100                	addi	s0,sp,128
 164:	779c                	ld	a5,40(a5)
 166:	0001                	nop
 168:	0200                	addi	s0,sp,256
 16a:	0086                	slli	ra,ra,0x1
 16c:	8100                	0x8100
 16e:	0000                	unimp
 170:	0000                	unimp
 172:	00000177          	0x177
 176:	0300                	addi	s0,sp,384
 178:	3366                	fld	ft6,120(sp)
 17a:	0e00                	addi	s0,sp,784
 17c:	0066                	c.slli	zero,0x19
 17e:	8100                	0x8100
 180:	0000                	unimp
 182:	0000                	unimp
 184:	0014                	0x14
 186:	0000                	unimp
 188:	0000                	unimp
 18a:	0000                	unimp
 18c:	9c01                	subw	s0,s0,s0
 18e:	01a0                	addi	s0,sp,200
 190:	0000                	unimp
 192:	7202                	ld	tp,32(sp)
 194:	0000                	unimp
 196:	0081                	addi	ra,ra,0
 198:	0000                	unimp
 19a:	a000                	fsd	fs0,0(s0)
 19c:	0001                	nop
 19e:	0000                	unimp
 1a0:	00346603          	lwu	a2,3(s0)
 1a4:	520d                	li	tp,-29
 1a6:	0000                	unimp
 1a8:	0081                	addi	ra,ra,0
 1aa:	0000                	unimp
 1ac:	1400                	addi	s0,sp,544
 1ae:	0000                	unimp
 1b0:	0000                	unimp
 1b2:	0000                	unimp
 1b4:	0100                	addi	s0,sp,128
 1b6:	c99c                	sw	a5,16(a1)
 1b8:	0001                	nop
 1ba:	0200                	addi	s0,sp,256
 1bc:	005e                	c.slli	zero,0x17
 1be:	8100                	0x8100
 1c0:	0000                	unimp
 1c2:	0000                	unimp
 1c4:	01c9                	addi	gp,gp,18
 1c6:	0000                	unimp
 1c8:	0300                	addi	s0,sp,384
 1ca:	3566                	fld	fa0,120(sp)
 1cc:	0c00                	addi	s0,sp,528
 1ce:	003e                	c.slli	zero,0xf
 1d0:	8100                	0x8100
 1d2:	0000                	unimp
 1d4:	0000                	unimp
 1d6:	0014                	0x14
 1d8:	0000                	unimp
 1da:	0000                	unimp
 1dc:	0000                	unimp
 1de:	9c01                	subw	s0,s0,s0
 1e0:	01f2                	slli	gp,gp,0x1c
 1e2:	0000                	unimp
 1e4:	4a02                	lw	s4,0(sp)
 1e6:	0000                	unimp
 1e8:	0081                	addi	ra,ra,0
 1ea:	0000                	unimp
 1ec:	f200                	sd	s0,32(a2)
 1ee:	0001                	nop
 1f0:	0000                	unimp
 1f2:	00366603          	lwu	a2,3(a2)
 1f6:	00002a0b          	0x2a0b
 1fa:	0081                	addi	ra,ra,0
 1fc:	0000                	unimp
 1fe:	1400                	addi	s0,sp,544
 200:	0000                	unimp
 202:	0000                	unimp
 204:	0000                	unimp
 206:	0100                	addi	s0,sp,128
 208:	1b9c                	addi	a5,sp,496
 20a:	0002                	c.slli64	zero
 20c:	0200                	addi	s0,sp,256
 20e:	0036                	c.slli	zero,0xd
 210:	8100                	0x8100
 212:	0000                	unimp
 214:	0000                	unimp
 216:	0000021b          	sext.w	tp,zero
 21a:	0300                	addi	s0,sp,384
 21c:	3766                	fld	fa4,120(sp)
 21e:	0a00                	addi	s0,sp,272
 220:	0016                	c.slli	zero,0x5
 222:	8100                	0x8100
 224:	0000                	unimp
 226:	0000                	unimp
 228:	0014                	0x14
 22a:	0000                	unimp
 22c:	0000                	unimp
 22e:	0000                	unimp
 230:	9c01                	subw	s0,s0,s0
 232:	0244                	addi	s1,sp,260
 234:	0000                	unimp
 236:	2202                	fld	ft4,0(sp)
 238:	0000                	unimp
 23a:	0081                	addi	ra,ra,0
 23c:	0000                	unimp
 23e:	4400                	lw	s0,8(s0)
 240:	0002                	c.slli64	zero
 242:	0000                	unimp
 244:	0038660f          	0x38660f
 248:	0901                	addi	s2,s2,0
 24a:	0006                	c.slli	zero,0x1
 24c:	0000                	unimp
 24e:	0081                	addi	ra,ra,0
 250:	0000                	unimp
 252:	1600                	addi	s0,sp,800
 254:	0000                	unimp
 256:	0000                	unimp
 258:	0000                	unimp
 25a:	0100                	addi	s0,sp,128
 25c:	079c                	addi	a5,sp,960
 25e:	000e                	c.slli	zero,0x3
 260:	8100                	0x8100
 262:	0000                	unimp
 264:	0000                	unimp
 266:	000000af          	0xaf
 26a:	0106                	slli	sp,sp,0x1
 26c:	015a                	slli	sp,sp,0x16
 26e:	00000037          	lui	zero,0x0
 272:	031c                	addi	a5,sp,384
 274:	0000                	unimp
 276:	0005                	c.nop	1
 278:	0801                	addi	a6,a6,0
 27a:	00d4                	addi	a3,sp,68
 27c:	0000                	unimp
 27e:	380d                	addiw	a6,a6,-29
 280:	0000                	unimp
 282:	0c00                	addi	s0,sp,528
 284:	00000047          	fmsub.s	ft0,ft0,ft0,ft0,rne
 288:	0000001b          	sext.w	zero,zero
 28c:	00ca                	slli	ra,ra,0x12
 28e:	8100                	0x8100
 290:	0000                	unimp
 292:	0000                	unimp
 294:	00c6                	slli	ra,ra,0x11
 296:	0000                	unimp
 298:	0000                	unimp
 29a:	0000                	unimp
 29c:	0146                	slli	sp,sp,0x11
 29e:	0000                	unimp
 2a0:	0102                	c.slli64	sp
 2a2:	2a08                	fld	fa0,16(a2)
 2a4:	0000                	unimp
 2a6:	0200                	addi	s0,sp,256
 2a8:	0702                	c.slli64	a4
 2aa:	00fc                	addi	a5,sp,76
 2ac:	0000                	unimp
 2ae:	0402                	c.slli64	s0
 2b0:	00001d07          	0x1d07
 2b4:	0400                	addi	s0,sp,512
 2b6:	0158                	addi	a4,sp,132
 2b8:	0000                	unimp
 2ba:	0702                	c.slli64	a4
 2bc:	4f1c                	lw	a5,24(a4)
 2be:	0000                	unimp
 2c0:	0200                	addi	s0,sp,256
 2c2:	0708                	addi	a0,sp,896
 2c4:	00000013          	nop
 2c8:	0102                	c.slli64	sp
 2ca:	2c06                	fld	fs8,64(sp)
 2cc:	0000                	unimp
 2ce:	0200                	addi	s0,sp,256
 2d0:	0502                	c.slli64	a0
 2d2:	0124                	addi	s1,sp,136
 2d4:	0000                	unimp
 2d6:	040e                	slli	s0,s0,0x3
 2d8:	6905                	lui	s2,0x1
 2da:	746e                	ld	s0,248(sp)
 2dc:	0200                	addi	s0,sp,256
 2de:	0508                	addi	a0,sp,640
 2e0:	0000                	unimp
 2e2:	0000                	unimp
 2e4:	0802                	c.slli64	a6
 2e6:	0505                	addi	a0,a0,1
 2e8:	0000                	unimp
 2ea:	0400                	addi	s0,sp,512
 2ec:	012e                	slli	sp,sp,0xb
 2ee:	0000                	unimp
 2f0:	1102                	slli	sp,sp,0x20
 2f2:	00008517          	auipc	a0,0x8
 2f6:	0200                	addi	s0,sp,256
 2f8:	0708                	addi	a0,sp,896
 2fa:	0018                	0x18
 2fc:	0000                	unimp
 2fe:	6c04                	ld	s1,24(s0)
 300:	0001                	nop
 302:	0300                	addi	s0,sp,384
 304:	1b28                	addi	a0,sp,440
 306:	0098                	addi	a4,sp,64
 308:	0000                	unimp
 30a:	0135080f          	0x135080f
 30e:	0000                	unimp
 310:	7304                	ld	s1,32(a4)
 312:	0001                	nop
 314:	0300                	addi	s0,sp,384
 316:	008c1863          	bne	s8,s0,326 <f8-0x80fffcda>
 31a:	0000                	unimp
 31c:	4710                	lw	a2,8(a4)
 31e:	0001                	nop
 320:	0400                	addi	s0,sp,512
 322:	0509                	addi	a0,a0,2
 324:	0064                	addi	s1,sp,12
 326:	0000                	unimp
 328:	000000cf          	fnmadd.s	ft1,ft0,ft0,ft0,rne
 32c:	cf05                	beqz	a4,364 <f8-0x80fffc9c>
 32e:	0000                	unimp
 330:	0500                	addi	s0,sp,640
 332:	0079                	c.nop	30
 334:	0000                	unimp
 336:	e005                	bnez	s0,356 <f8-0x80fffcaa>
 338:	0000                	unimp
 33a:	0500                	addi	s0,sp,640
 33c:	009e                	slli	ra,ra,0x7
 33e:	0000                	unimp
 340:	0a00                	addi	s0,sp,272
 342:	00d4                	addi	a3,sp,68
 344:	0000                	unimp
 346:	0102                	c.slli64	sp
 348:	3308                	fld	fa0,32(a4)
 34a:	0000                	unimp
 34c:	1100                	addi	s0,sp,160
 34e:	00d4                	addi	a3,sp,68
 350:	0000                	unimp
 352:	db0a                	sw	sp,180(sp)
 354:	0000                	unimp
 356:	0600                	addi	s0,sp,768
 358:	0114                	addi	a3,sp,128
 35a:	0000                	unimp
 35c:	00006437          	lui	s0,0x6
 360:	6a00                	ld	s0,16(a2)
 362:	0001                	nop
 364:	0081                	addi	ra,ra,0
 366:	0000                	unimp
 368:	2600                	fld	fs0,8(a2)
 36a:	0000                	unimp
 36c:	0000                	unimp
 36e:	0000                	unimp
 370:	0100                	addi	s0,sp,128
 372:	459c                	lw	a5,8(a1)
 374:	0001                	nop
 376:	0b00                	addi	s0,sp,400
 378:	0078                	addi	a4,sp,12
 37a:	00641937          	lui	s2,0x641
 37e:	0000                	unimp
 380:	000c                	0xc
 382:	0000                	unimp
 384:	00018807          	0x18807
 388:	0081                	addi	ra,ra,0
 38a:	0000                	unimp
 38c:	8f00                	0x8f00
 38e:	0002                	c.slli64	zero
 390:	0100                	addi	s0,sp,128
 392:	5a01                	li	s4,-32
 394:	0802                	c.slli64	a6
 396:	0142                	slli	sp,sp,0x10
 398:	5c01                	li	s8,-32
 39a:	3001                	0x3001
 39c:	0101                	addi	sp,sp,0
 39e:	015d                	addi	sp,sp,23
 3a0:	0130                	addi	a2,sp,136
 3a2:	5e01                	li	t3,-32
 3a4:	3001                	0x3001
 3a6:	0101                	addi	sp,sp,0
 3a8:	015f 0130 6001      	0x60010130015f
 3ae:	3001                	0x3001
 3b0:	0101                	addi	sp,sp,0
 3b2:	0161                	addi	sp,sp,24
 3b4:	0030                	addi	a2,sp,8
 3b6:	0600                	addi	s0,sp,768
 3b8:	0000010f          	0x10f
 3bc:	6431                	lui	s0,0xc
 3be:	0000                	unimp
 3c0:	4400                	lw	s0,8(s0)
 3c2:	0001                	nop
 3c4:	0081                	addi	ra,ra,0
 3c6:	0000                	unimp
 3c8:	2600                	fld	fs0,8(a2)
 3ca:	0000                	unimp
 3cc:	0000                	unimp
 3ce:	0000                	unimp
 3d0:	0100                	addi	s0,sp,128
 3d2:	a79c                	fsd	fa5,8(a5)
 3d4:	0001                	nop
 3d6:	0c00                	addi	s0,sp,528
 3d8:	0000017b          	0x17b
 3dc:	0e31                	addi	t3,t3,12
 3de:	0064                	addi	s1,sp,12
 3e0:	0000                	unimp
 3e2:	0036                	c.slli	zero,0xd
 3e4:	0000                	unimp
 3e6:	00016207          	0x16207
 3ea:	0081                	addi	ra,ra,0
 3ec:	0000                	unimp
 3ee:	8f00                	0x8f00
 3f0:	0002                	c.slli64	zero
 3f2:	0100                	addi	s0,sp,128
 3f4:	5a01                	li	s4,-32
 3f6:	0802                	c.slli64	a6
 3f8:	0141                	addi	sp,sp,16
 3fa:	5c01                	li	s8,-32
 3fc:	3001                	0x3001
 3fe:	0101                	addi	sp,sp,0
 400:	015d                	addi	sp,sp,23
 402:	0130                	addi	a2,sp,136
 404:	5e01                	li	t3,-32
 406:	3001                	0x3001
 408:	0101                	addi	sp,sp,0
 40a:	015f 0130 6001      	0x60010130015f
 410:	3001                	0x3001
 412:	0101                	addi	sp,sp,0
 414:	0161                	addi	sp,sp,24
 416:	0030                	addi	a2,sp,8
 418:	0600                	addi	s0,sp,768
 41a:	00f5                	addi	ra,ra,29
 41c:	0000                	unimp
 41e:	6420                	ld	s0,72(s0)
 420:	0000                	unimp
 422:	e200                	sd	s0,0(a2)
 424:	0000                	unimp
 426:	0081                	addi	ra,ra,0
 428:	0000                	unimp
 42a:	6200                	ld	s0,0(a2)
 42c:	0000                	unimp
 42e:	0000                	unimp
 430:	0000                	unimp
 432:	0100                	addi	s0,sp,128
 434:	7f9c                	ld	a5,56(a5)
 436:	0002                	c.slli64	zero
 438:	0b00                	addi	s0,sp,400
 43a:	18200073          	0x18200073
 43e:	00e0                	addi	s0,sp,76
 440:	0000                	unimp
 442:	0060                	addi	s0,sp,12
 444:	0000                	unimp
 446:	0812                	slli	a6,a6,0x4
 448:	6c76                	ld	s8,344(sp)
 44a:	2100                	fld	fs0,0(a0)
 44c:	00009e0b          	0x9e0b
 450:	0300                	addi	s0,sp,384
 452:	a891                	j	4a6 <f8-0x80fffb5a>
 454:	087f                	0x87f
 456:	0074756f          	jal	a0,47c5c <f8-0x80fb83a4>
 45a:	0824                	addi	s1,sp,24
 45c:	027f                	0x27f
 45e:	0000                	unimp
 460:	7da89103          	lh	sp,2010(a7)
 464:	7209                	lui	tp,0xfffe2
 466:	7365                	lui	t1,0xffff9
 468:	2500                	fld	fs0,8(a0)
 46a:	00006407          	0x6407
 46e:	9d00                	0x9d00
 470:	0000                	unimp
 472:	0900                	addi	s0,sp,144
 474:	7562                	ld	a0,56(sp)
 476:	0066                	c.slli	zero,0x19
 478:	00e00f27          	0xe00f27
 47c:	0000                	unimp
 47e:	00c4                	addi	s1,sp,68
 480:	0000                	unimp
 482:	6e09                	lui	t3,0x2
 484:	2800                	fld	fs0,16(s0)
 486:	790a                	ld	s2,160(sp)
 488:	0000                	unimp
 48a:	0400                	addi	s0,sp,512
 48c:	0001                	nop
 48e:	1300                	addi	s0,sp,416
 490:	0112                	slli	sp,sp,0x4
 492:	8100                	0x8100
 494:	0000                	unimp
 496:	0000                	unimp
 498:	00aa                	slli	ra,ra,0xa
 49a:	0000                	unimp
 49c:	024a                	slli	tp,tp,0x12
 49e:	0000                	unimp
 4a0:	0101                	addi	sp,sp,0
 4a2:	035a                	slli	t1,t1,0x16
 4a4:	a891                	j	4f8 <f8-0x80fffb08>
 4a6:	017d                	addi	sp,sp,31
 4a8:	5b01                	li	s6,-32
 4aa:	01000a03          	lb	s4,16(zero) # 10 <f8-0x80fffff0>
 4ae:	0101                	addi	sp,sp,0
 4b0:	035c                	addi	a5,sp,388
 4b2:	015a01a3          	sb	s5,3(s4)
 4b6:	5d01                	li	s10,-32
 4b8:	9102                	jalr	sp
 4ba:	0048                	addi	a0,sp,4
 4bc:	00013607          	fld	fa2,0(sp)
 4c0:	0081                	addi	ra,ra,0
 4c2:	0000                	unimp
 4c4:	8f00                	0x8f00
 4c6:	0002                	c.slli64	zero
 4c8:	0100                	addi	s0,sp,128
 4ca:	5a01                	li	s4,-32
 4cc:	0802                	c.slli64	a6
 4ce:	0140                	addi	s0,sp,132
 4d0:	5b01                	li	s6,-32
 4d2:	7da89103          	lh	sp,2010(a7)
 4d6:	0101                	addi	sp,sp,0
 4d8:	015d                	addi	sp,sp,23
 4da:	0130                	addi	a2,sp,136
 4dc:	5e01                	li	t3,-32
 4de:	3001                	0x3001
 4e0:	0101                	addi	sp,sp,0
 4e2:	015f 0130 6001      	0x60010130015f
 4e8:	3001                	0x3001
 4ea:	0101                	addi	sp,sp,0
 4ec:	0161                	addi	sp,sp,24
 4ee:	0030                	addi	a2,sp,8
 4f0:	1400                	addi	s0,sp,544
 4f2:	00d4                	addi	a3,sp,68
 4f4:	0000                	unimp
 4f6:	0000028f          	0x28f
 4fa:	8515                	srai	a0,a0,0x5
 4fc:	0000                	unimp
 4fe:	ff00                	sd	s0,56(a4)
 500:	1600                	addi	s0,sp,800
 502:	015f 0000 0d01      	0xd010000015f
 508:	6405                	lui	s0,0x1
 50a:	0000                	unimp
 50c:	ca00                	sw	s0,16(a2)
 50e:	0000                	unimp
 510:	0081                	addi	ra,ra,0
 512:	0000                	unimp
 514:	1800                	addi	s0,sp,48
 516:	0000                	unimp
 518:	0000                	unimp
 51a:	0000                	unimp
 51c:	0100                	addi	s0,sp,128
 51e:	0c9c                	addi	a5,sp,592
 520:	0151                	addi	sp,sp,20
 522:	0000                	unimp
 524:	190d                	addi	s2,s2,-29
 526:	00000043          	fmadd.s	ft0,ft0,ft0,ft0,rne
 52a:	0118                	addi	a4,sp,128
 52c:	0000                	unimp
 52e:	00316103          	lwu	sp,3(sp)
 532:	280d                	addiw	a6,a6,3
 534:	00000043          	fmadd.s	ft0,ft0,ft0,ft0,rne
 538:	5b01                	li	s6,-32
 53a:	00326103          	lwu	sp,3(tp) # fffffffffffe2003 <vsnprintf+0xffffffff7efe1e73>
 53e:	330d                	addiw	t1,t1,-29
 540:	00000043          	fmadd.s	ft0,ft0,ft0,ft0,rne
 544:	5c01                	li	s8,-32
 546:	00336103          	lwu	sp,3(t1) # ffffffffffff9003 <vsnprintf+0xffffffff7eff8e73>
 54a:	3e0d                	addiw	t3,t3,-29
 54c:	00000043          	fmadd.s	ft0,ft0,ft0,ft0,rne
 550:	5d01                	li	s10,-32
 552:	00346103          	lwu	sp,3(s0) # 1003 <f8-0x80ffeffd>
 556:	490d                	li	s2,3
 558:	00000043          	fmadd.s	ft0,ft0,ft0,ft0,rne
 55c:	5e01                	li	t3,-32
 55e:	00356103          	lwu	sp,3(a0) # 82f5 <f8-0x80ff7d0b>
 562:	540d                	li	s0,-29
 564:	00000043          	fmadd.s	ft0,ft0,ft0,ft0,rne
 568:	5f01                	li	t5,-32
 56a:	00366103          	lwu	sp,3(a2)
 56e:	5f0d                	li	t5,-29
 570:	00000043          	fmadd.s	ft0,ft0,ft0,ft0,rne
 574:	6001                	0x6001
 576:	00376103          	lwu	sp,3(a4)
 57a:	190e                	slli	s2,s2,0x23
 57c:	00000043          	fmadd.s	ft0,ft0,ft0,ft0,rne
 580:	6101                	addi	sp,sp,0
 582:	7208                	ld	a0,32(a2)
 584:	7465                	lui	s0,0xffff9
 586:	0f00                	addi	s0,sp,912
 588:	00006407          	0x6407
 58c:	0200                	addi	s0,sp,256
 58e:	6c91                	lui	s9,0x4
 590:	0000                	unimp
 592:	0222                	slli	tp,tp,0x8
 594:	0000                	unimp
 596:	0005                	c.nop	1
 598:	0801                	addi	a6,a6,0
 59a:	020d                	addi	tp,tp,3
 59c:	0000                	unimp
 59e:	380a                	fld	fa6,160(sp)
 5a0:	0000                	unimp
 5a2:	0c00                	addi	s0,sp,528
 5a4:	000000c7          	fmsub.s	ft1,ft0,ft0,ft0,rne
 5a8:	0000001b          	sext.w	zero,zero
 5ac:	0190                	addi	a2,sp,192
 5ae:	8100                	0x8100
 5b0:	0000                	unimp
 5b2:	0000                	unimp
 5b4:	0202                	c.slli64	tp
 5b6:	0000                	unimp
 5b8:	0000                	unimp
 5ba:	0000                	unimp
 5bc:	0298                	addi	a4,sp,320
 5be:	0000                	unimp
 5c0:	00016c03          	lwu	s8,0(sp)
 5c4:	0200                	addi	s0,sp,256
 5c6:	1b28                	addi	a0,sp,440
 5c8:	003a                	c.slli	zero,0xe
 5ca:	0000                	unimp
 5cc:	0135080b          	0x135080b
 5d0:	0000                	unimp
 5d2:	00017303          	0x17303
 5d6:	0200                	addi	s0,sp,256
 5d8:	002e1863          	bne	t3,sp,5e8 <f8-0x80fffa18>
 5dc:	0000                	unimp
 5de:	0101                	addi	sp,sp,0
 5e0:	2a08                	fld	fa0,16(a2)
 5e2:	0000                	unimp
 5e4:	0100                	addi	s0,sp,128
 5e6:	0702                	c.slli64	a4
 5e8:	00fc                	addi	a5,sp,76
 5ea:	0000                	unimp
 5ec:	0401                	addi	s0,s0,0
 5ee:	00001d07          	0x1d07
 5f2:	0100                	addi	s0,sp,128
 5f4:	0708                	addi	a0,sp,896
 5f6:	00000013          	nop
 5fa:	0101                	addi	sp,sp,0
 5fc:	2c06                	fld	fs8,64(sp)
 5fe:	0000                	unimp
 600:	0100                	addi	s0,sp,128
 602:	0502                	c.slli64	a0
 604:	0124                	addi	s1,sp,136
 606:	0000                	unimp
 608:	00019b03          	lh	s6,0(gp)
 60c:	0300                	addi	s0,sp,384
 60e:	0082140b          	0x82140b
 612:	0000                	unimp
 614:	040c                	addi	a1,sp,512
 616:	6905                	lui	s2,0x1
 618:	746e                	ld	s0,248(sp)
 61a:	0100                	addi	s0,sp,128
 61c:	0508                	addi	a0,sp,640
 61e:	0000                	unimp
 620:	0000                	unimp
 622:	00018003          	lb	zero,0(gp)
 626:	0300                	addi	s0,sp,384
 628:	0d0e                	slli	s10,s10,0x3
 62a:	0082                	c.slli64	ra
 62c:	0000                	unimp
 62e:	0801                	addi	a6,a6,0
 630:	0505                	addi	a0,a0,1
 632:	0000                	unimp
 634:	0300                	addi	s0,sp,384
 636:	012e                	slli	sp,sp,0xb
 638:	0000                	unimp
 63a:	af171103          	lh	sp,-1295(a4)
 63e:	0000                	unimp
 640:	0100                	addi	s0,sp,128
 642:	0708                	addi	a0,sp,896
 644:	0018                	0x18
 646:	0000                	unimp
 648:	470d                	li	a4,3
 64a:	0001                	nop
 64c:	0100                	addi	s0,sp,128
 64e:	0076070b          	0x76070b
 652:	0000                	unimp
 654:	0190                	addi	a2,sp,192
 656:	8100                	0x8100
 658:	0000                	unimp
 65a:	0000                	unimp
 65c:	0202                	c.slli64	tp
 65e:	0000                	unimp
 660:	0000                	unimp
 662:	0000                	unimp
 664:	9c01                	subw	s0,s0,s0
 666:	0000020f          	0x20f
 66a:	6f04                	ld	s1,24(a4)
 66c:	7475                	lui	s0,0xffffd
 66e:	1700                	addi	s0,sp,928
 670:	0000020f          	0x20f
 674:	014e                	slli	sp,sp,0x13
 676:	0000                	unimp
 678:	6e04                	ld	s1,24(a2)
 67a:	2300                	fld	fs0,0(a4)
 67c:	000000a3          	sb	zero,1(zero) # 1 <f8-0x80ffffff>
 680:	01a1                	addi	gp,gp,8
 682:	0000                	unimp
 684:	7304                	ld	s1,32(a4)
 686:	3200                	fld	fs0,32(a2)
 688:	0220                	addi	s0,sp,264
 68a:	0000                	unimp
 68c:	000001f3          	0x1f3
 690:	7604                	ld	s1,40(a2)
 692:	006c                	addi	a1,sp,12
 694:	403d                	c.li	zero,15
 696:	0000                	unimp
 698:	1a00                	addi	s0,sp,304
 69a:	0002                	c.slli64	zero
 69c:	0500                	addi	s0,sp,640
 69e:	018c                	addi	a1,sp,192
 6a0:	0000                	unimp
 6a2:	080c                	addi	a1,sp,16
 6a4:	0090                	addi	a2,sp,64
 6a6:	0000                	unimp
 6a8:	0258                	addi	a4,sp,260
 6aa:	0000                	unimp
 6ac:	9305                	srli	a4,a4,0x21
 6ae:	0001                	nop
 6b0:	0d00                	addi	s0,sp,656
 6b2:	9008                	0x9008
 6b4:	0000                	unimp
 6b6:	2c00                	fld	fs0,24(s0)
 6b8:	02000003          	lb	zero,32(zero) # 20 <f8-0x80ffffe0>
 6bc:	6f70                	ld	a2,216(a4)
 6be:	0a0e0073          	0xa0e0073
 6c2:	000000a3          	sb	zero,1(zero) # 1 <f8-0x80ffffff>
 6c6:	0401                	addi	s0,s0,0
 6c8:	0000                	unimp
 6ca:	c606                	sw	ra,12(sp)
 6cc:	0001                	nop
 6ce:	0081                	addi	ra,ra,0
 6d0:	0000                	unimp
 6d2:	6c00                	ld	s0,24(s0)
 6d4:	0000                	unimp
 6d6:	0000                	unimp
 6d8:	0000                	unimp
 6da:	8300                	0x8300
 6dc:	0001                	nop
 6de:	0200                	addi	s0,sp,256
 6e0:	756e                	ld	a0,248(sp)
 6e2:	006d                	c.nop	27
 6e4:	009c101b          	slliw	zero,s8,0x9
 6e8:	0000                	unimp
 6ea:	05b8                	addi	a4,sp,712
 6ec:	0000                	unimp
 6ee:	00000c07          	0xc07
 6f2:	0200                	addi	s0,sp,256
 6f4:	0069                	c.nop	26
 6f6:	141c                	addi	a5,sp,544
 6f8:	0082                	c.slli64	ra
 6fa:	0000                	unimp
 6fc:	05df 0000 2f07      	0x2f07000005df
 702:	0000                	unimp
 704:	0200                	addi	s0,sp,256
 706:	0064                	addi	s1,sp,12
 708:	111d                	addi	sp,sp,-25
 70a:	0082                	c.slli64	ra
 70c:	0000                	unimp
 70e:	0619                	addi	a2,a2,6
 710:	0000                	unimp
 712:	0000                	unimp
 714:	0600                	addi	s0,sp,768
 716:	0232                	slli	tp,tp,0xc
 718:	8100                	0x8100
 71a:	0000                	unimp
 71c:	0000                	unimp
 71e:	0090                	addi	a2,sp,64
 720:	0000                	unimp
 722:	0000                	unimp
 724:	0000                	unimp
 726:	01ee                	slli	gp,gp,0x1b
 728:	0000                	unimp
 72a:	6e02                	ld	t3,0(sp)
 72c:	6d75                	lui	s10,0x1d
 72e:	2500                	fld	fs0,8(a0)
 730:	9c10                	0x9c10
 732:	0000                	unimp
 734:	7400                	ld	s0,40(s0)
 736:	0006                	c.slli	zero,0x1
 738:	0500                	addi	s0,sp,640
 73a:	0185                	addi	gp,gp,1
 73c:	0000                	unimp
 73e:	102a                	c.slli	zero,0x2a
 740:	009c                	addi	a5,sp,64
 742:	0000                	unimp
 744:	0000069b          	sext.w	a3,zero
 748:	630e                	ld	t1,192(sp)
 74a:	0000                	unimp
 74c:	ce00                	sw	s0,24(a2)
 74e:	0001                	nop
 750:	0200                	addi	s0,sp,256
 752:	6e6e                	ld	t3,216(sp)
 754:	2b00                	fld	fs0,16(a4)
 756:	9c15                	subw	s0,s0,a3
 758:	0000                	unimp
 75a:	c300                	sw	s0,0(a4)
 75c:	0006                	c.slli	zero,0x1
 75e:	0000                	unimp
 760:	8a08                	0x8a08
 762:	0002                	c.slli64	zero
 764:	0081                	addi	ra,ra,0
 766:	0000                	unimp
 768:	3000                	fld	fs0,32(s0)
 76a:	0000                	unimp
 76c:	0000                	unimp
 76e:	0000                	unimp
 770:	0200                	addi	s0,sp,256
 772:	0069                	c.nop	26
 774:	142d                	addi	s0,s0,-21
 776:	0082                	c.slli64	ra
 778:	0000                	unimp
 77a:	06ea                	slli	a3,a3,0x1a
 77c:	0000                	unimp
 77e:	0000                	unimp
 780:	c208                	sw	a0,0(a2)
 782:	0002                	c.slli64	zero
 784:	0081                	addi	ra,ra,0
 786:	0000                	unimp
 788:	3200                	fld	fs0,32(a2)
 78a:	0000                	unimp
 78c:	0000                	unimp
 78e:	0000                	unimp
 790:	0200                	addi	s0,sp,256
 792:	37003273          	csrrc	tp,0x370,zero
 796:	00022017          	auipc	zero,0x22
 79a:	1300                	addi	s0,sp,416
 79c:	00000007          	0x7
 7a0:	0900                	addi	s0,sp,144
 7a2:	0214                	addi	a3,sp,256
 7a4:	0000                	unimp
 7a6:	0101                	addi	sp,sp,0
 7a8:	3308                	fld	fa0,32(a4)
 7aa:	0000                	unimp
 7ac:	0f00                	addi	s0,sp,912
 7ae:	0214                	addi	a3,sp,256
 7b0:	0000                	unimp
 7b2:	1b09                	addi	s6,s6,-30
 7b4:	0002                	c.slli64	zero
	...

Disassembly of section .debug_abbrev:

0000000000000000 <.debug_abbrev>:
   0:	2401                	sext.w	s0,s0
   2:	0b00                	addi	s0,sp,400
   4:	030b3e0b          	0x30b3e0b
   8:	000e                	c.slli	zero,0x3
   a:	0200                	addi	s0,sp,256
   c:	0048                	addi	a0,sp,4
   e:	017d                	addi	sp,sp,31
  10:	137f                	0x137f
  12:	0000                	unimp
  14:	3f012e03          	lw	t3,1008(sp)
  18:	0319                	addi	t1,t1,6
  1a:	3a08                	fld	fa0,48(a2)
  1c:	0121                	addi	sp,sp,8
  1e:	21390b3b          	0x21390b3b
  22:	1106                	slli	sp,sp,0x21
  24:	1201                	addi	tp,tp,-32
  26:	7a184007          	flq	ft0,1953(a6)
  2a:	0119                	addi	sp,sp,6
  2c:	04000013          	li	zero,64
  30:	012e                	slli	sp,sp,0xb
  32:	0e03193f 3b02213a 	0x3b02213a0e03193f
  3a:	0521390b          	0x521390b
  3e:	13491927          	0x13491927
  42:	193c                	addi	a5,sp,184
  44:	1301                	addi	t1,t1,-32
  46:	0000                	unimp
  48:	0505                	addi	a0,a0,1
  4a:	4900                	lw	s0,16(a0)
  4c:	06000013          	li	zero,96
  50:	0049                	c.nop	18
  52:	1802                	slli	a6,a6,0x20
  54:	187e                	slli	a6,a6,0x3f
  56:	0000                	unimp
  58:	7d014807          	flq	fa6,2000(sp)
  5c:	7f01                	lui	t5,0xfffe0
  5e:	08000013          	li	zero,128
  62:	0111                	addi	sp,sp,4
  64:	0e25                	addi	t3,t3,9
  66:	1f030b13          	addi	s6,t1,496
  6a:	01111f1b          	slliw	t5,sp,0x11
  6e:	0712                	slli	a4,a4,0x4
  70:	1710                	addi	a2,sp,928
  72:	0000                	unimp
  74:	2409                	addiw	s0,s0,2
  76:	0b00                	addi	s0,sp,400
  78:	030b3e0b          	0x30b3e0b
  7c:	0008                	0x8
  7e:	0a00                	addi	s0,sp,272
  80:	0018                	0x18
  82:	0000                	unimp
  84:	0b000f0b          	0xb000f0b
  88:	0013490b          	0x13490b
  8c:	0c00                	addi	s0,sp,528
  8e:	0026                	c.slli	zero,0x9
  90:	1349                	addi	t1,t1,-14
  92:	0000                	unimp
  94:	2e0d                	addiw	t3,t3,3
  96:	3f01                	addiw	t5,t5,-32
  98:	0319                	addi	t1,t1,6
  9a:	3a0e                	fld	fs4,224(sp)
  9c:	390b3b0b          	0x390b3b0b
  a0:	4919270b          	0x4919270b
  a4:	12011113          	0x12011113
  a8:	7a184007          	flq	ft0,1953(a6)
  ac:	0119                	addi	sp,sp,6
  ae:	0e000013          	li	zero,224
  b2:	0148                	addi	a0,sp,132
  b4:	017d                	addi	sp,sp,31
  b6:	137f                	0x137f
  b8:	1301                	addi	t1,t1,-32
  ba:	0000                	unimp
  bc:	3f012e0f          	0x3f012e0f
  c0:	0319                	addi	t1,t1,6
  c2:	3a08                	fld	fa0,48(a2)
  c4:	390b3b0b          	0x390b3b0b
  c8:	1201110b          	0x1201110b
  cc:	7a184007          	flq	ft0,1953(a6)
  d0:	0019                	c.nop	6
  d2:	0000                	unimp
  d4:	4901                	li	s2,0
  d6:	0200                	addi	s0,sp,256
  d8:	7e18                	ld	a4,56(a2)
  da:	0018                	0x18
  dc:	0200                	addi	s0,sp,256
  de:	0024                	addi	s1,sp,8
  e0:	0b3e0b0b          	0xb3e0b0b
  e4:	00000e03          	lb	t3,0(zero) # 0 <f8-0x81000000>
  e8:	03000503          	lb	a0,48(zero) # 30 <f8-0x80ffffd0>
  ec:	3a08                	fld	fa0,48(a2)
  ee:	0121                	addi	sp,sp,8
  f0:	0b390b3b          	0xb390b3b
  f4:	1349                	addi	t1,t1,-14
  f6:	1802                	slli	a6,a6,0x20
  f8:	0000                	unimp
  fa:	1604                	addi	s1,sp,800
  fc:	0300                	addi	s0,sp,384
  fe:	3a0e                	fld	fs4,224(sp)
 100:	390b3b0b          	0x390b3b0b
 104:	0013490b          	0x13490b
 108:	0500                	addi	s0,sp,640
 10a:	0005                	c.nop	1
 10c:	1349                	addi	t1,t1,-14
 10e:	0000                	unimp
 110:	2e06                	fld	ft8,64(sp)
 112:	3f01                	addiw	t5,t5,-32
 114:	0319                	addi	t1,t1,6
 116:	3a0e                	fld	fs4,224(sp)
 118:	0121                	addi	sp,sp,8
 11a:	21390b3b          	0x21390b3b
 11e:	2705                	addiw	a4,a4,1
 120:	4919                	li	s2,6
 122:	12011113          	0x12011113
 126:	7a184007          	flq	ft0,1953(a6)
 12a:	0119                	addi	sp,sp,6
 12c:	07000013          	li	zero,112
 130:	0148                	addi	a0,sp,132
 132:	017d                	addi	sp,sp,31
 134:	137f                	0x137f
 136:	0000                	unimp
 138:	3408                	fld	fa0,40(s0)
 13a:	0300                	addi	s0,sp,384
 13c:	3a08                	fld	fa0,48(a2)
 13e:	0121                	addi	sp,sp,8
 140:	0b390b3b          	0xb390b3b
 144:	1349                	addi	t1,t1,-14
 146:	1802                	slli	a6,a6,0x20
 148:	0000                	unimp
 14a:	3409                	addiw	s0,s0,-30
 14c:	0300                	addi	s0,sp,384
 14e:	3a08                	fld	fa0,48(a2)
 150:	0121                	addi	sp,sp,8
 152:	0b390b3b          	0xb390b3b
 156:	1349                	addi	t1,t1,-14
 158:	1702                	slli	a4,a4,0x20
 15a:	0000                	unimp
 15c:	0f0a                	slli	t5,t5,0x2
 15e:	0b00                	addi	s0,sp,400
 160:	0821                	addi	a6,a6,8
 162:	1349                	addi	t1,t1,-14
 164:	0000                	unimp
 166:	0300050b          	0x300050b
 16a:	3a08                	fld	fa0,48(a2)
 16c:	0121                	addi	sp,sp,8
 16e:	0b390b3b          	0xb390b3b
 172:	1349                	addi	t1,t1,-14
 174:	1702                	slli	a4,a4,0x20
 176:	0000                	unimp
 178:	050c                	addi	a1,sp,640
 17a:	0300                	addi	s0,sp,384
 17c:	3a0e                	fld	fs4,224(sp)
 17e:	0121                	addi	sp,sp,8
 180:	0b390b3b          	0xb390b3b
 184:	1349                	addi	t1,t1,-14
 186:	1702                	slli	a4,a4,0x20
 188:	0000                	unimp
 18a:	110d                	addi	sp,sp,-29
 18c:	2501                	sext.w	a0,a0
 18e:	130e                	slli	t1,t1,0x23
 190:	1b1f030b          	0x1b1f030b
 194:	111f 1201 1007      	0x10071201111f
 19a:	0e000017          	auipc	zero,0xe000
 19e:	0024                	addi	s1,sp,8
 1a0:	0b3e0b0b          	0xb3e0b0b
 1a4:	00000803          	lb	a6,0(zero) # 0 <f8-0x81000000>
 1a8:	0b000f0f          	0xb000f0f
 1ac:	000e030b          	0xe030b
 1b0:	1000                	addi	s0,sp,32
 1b2:	012e                	slli	sp,sp,0xb
 1b4:	0e03193f 0b3b0b3a 	0xb3b0b3a0e03193f
 1bc:	0b39                	addi	s6,s6,14
 1be:	13491927          	0x13491927
 1c2:	193c                	addi	a5,sp,184
 1c4:	1301                	addi	t1,t1,-32
 1c6:	0000                	unimp
 1c8:	2611                	addiw	a2,a2,4
 1ca:	4900                	lw	s0,16(a0)
 1cc:	12000013          	li	zero,288
 1d0:	0018                	0x18
 1d2:	0000                	unimp
 1d4:	7d014813          	xori	a6,sp,2000
 1d8:	7f01                	lui	t5,0xfffe0
 1da:	00130113          	addi	sp,t1,1
 1de:	1400                	addi	s0,sp,544
 1e0:	0101                	addi	sp,sp,0
 1e2:	1349                	addi	t1,t1,-14
 1e4:	1301                	addi	t1,t1,-32
 1e6:	0000                	unimp
 1e8:	2115                	addiw	sp,sp,5
 1ea:	4900                	lw	s0,16(a0)
 1ec:	000b2f13          	slti	t5,s6,0
 1f0:	1600                	addi	s0,sp,800
 1f2:	012e                	slli	sp,sp,0xb
 1f4:	0e03193f 0b3b0b3a 	0xb3b0b3a0e03193f
 1fc:	0b39                	addi	s6,s6,14
 1fe:	13491927          	0x13491927
 202:	0111                	addi	sp,sp,4
 204:	0712                	slli	a4,a4,0x4
 206:	1840                	addi	s0,sp,52
 208:	197a                	slli	s2,s2,0x3e
 20a:	0000                	unimp
 20c:	0100                	addi	s0,sp,128
 20e:	0024                	addi	s1,sp,8
 210:	0b3e0b0b          	0xb3e0b0b
 214:	00000e03          	lb	t3,0(zero) # 0 <f8-0x81000000>
 218:	3402                	fld	fs0,32(sp)
 21a:	0300                	addi	s0,sp,384
 21c:	3a08                	fld	fa0,48(a2)
 21e:	0121                	addi	sp,sp,8
 220:	0b390b3b          	0xb390b3b
 224:	1349                	addi	t1,t1,-14
 226:	1702                	slli	a4,a4,0x20
 228:	0000                	unimp
 22a:	03001603          	lh	a2,48(zero) # 30 <f8-0x80ffffd0>
 22e:	3a0e                	fld	fs4,224(sp)
 230:	390b3b0b          	0x390b3b0b
 234:	0013490b          	0x13490b
 238:	0400                	addi	s0,sp,512
 23a:	0005                	c.nop	1
 23c:	213a0803          	lb	a6,531(s4)
 240:	3b01                	addiw	s6,s6,-32
 242:	0b21                	addi	s6,s6,8
 244:	0b39                	addi	s6,s6,14
 246:	1349                	addi	t1,t1,-14
 248:	1702                	slli	a4,a4,0x20
 24a:	0000                	unimp
 24c:	3405                	addiw	s0,s0,-31
 24e:	0300                	addi	s0,sp,384
 250:	3a0e                	fld	fs4,224(sp)
 252:	0121                	addi	sp,sp,8
 254:	0b390b3b          	0xb390b3b
 258:	1349                	addi	t1,t1,-14
 25a:	1702                	slli	a4,a4,0x20
 25c:	0000                	unimp
 25e:	0b06                	slli	s6,s6,0x1
 260:	1101                	addi	sp,sp,-32
 262:	1201                	addi	tp,tp,-32
 264:	00130107          	0x130107
 268:	0700                	addi	s0,sp,896
 26a:	1755010b          	0x1755010b
 26e:	0000                	unimp
 270:	0b08                	addi	a0,sp,400
 272:	1101                	addi	sp,sp,-32
 274:	1201                	addi	tp,tp,-32
 276:	09000007          	0x9000007
 27a:	210b000f          	0x210b000f
 27e:	4908                	lw	a0,16(a0)
 280:	0a000013          	li	zero,160
 284:	0111                	addi	sp,sp,4
 286:	0e25                	addi	t3,t3,9
 288:	1f030b13          	addi	s6,t1,496
 28c:	01111f1b          	slliw	t5,sp,0x11
 290:	0712                	slli	a4,a4,0x4
 292:	1710                	addi	a2,sp,928
 294:	0000                	unimp
 296:	0b000f0b          	0xb000f0b
 29a:	000e030b          	0xe030b
 29e:	0c00                	addi	s0,sp,528
 2a0:	0024                	addi	s1,sp,8
 2a2:	0b3e0b0b          	0xb3e0b0b
 2a6:	00000803          	lb	a6,0(zero) # 0 <f8-0x81000000>
 2aa:	2e0d                	addiw	t3,t3,3
 2ac:	3f01                	addiw	t5,t5,-32
 2ae:	0319                	addi	t1,t1,6
 2b0:	3a0e                	fld	fs4,224(sp)
 2b2:	390b3b0b          	0x390b3b0b
 2b6:	4919270b          	0x4919270b
 2ba:	12011113          	0x12011113
 2be:	7a184007          	flq	ft0,1953(a6)
 2c2:	0119                	addi	sp,sp,6
 2c4:	0e000013          	li	zero,224
 2c8:	1755010b          	0x1755010b
 2cc:	1301                	addi	t1,t1,-32
 2ce:	0000                	unimp
 2d0:	4900260f          	0x4900260f
 2d4:	00000013          	nop

Disassembly of section .debug_aranges:

0000000000000000 <.debug_aranges>:
   0:	002c                	addi	a1,sp,8
   2:	0000                	unimp
   4:	0002                	c.slli64	zero
   6:	0000                	unimp
   8:	0000                	unimp
   a:	0008                	0x8
   c:	0000                	unimp
   e:	0000                	unimp
  10:	0000                	unimp
  12:	8100                	0x8100
  14:	0000                	unimp
  16:	0000                	unimp
  18:	00ca                	slli	ra,ra,0x12
	...
  2e:	0000                	unimp
  30:	002c                	addi	a1,sp,8
  32:	0000                	unimp
  34:	0002                	c.slli64	zero
  36:	0272                	slli	tp,tp,0x1c
  38:	0000                	unimp
  3a:	0008                	0x8
  3c:	0000                	unimp
  3e:	0000                	unimp
  40:	00ca                	slli	ra,ra,0x12
  42:	8100                	0x8100
  44:	0000                	unimp
  46:	0000                	unimp
  48:	00c6                	slli	ra,ra,0x11
	...
  5e:	0000                	unimp
  60:	002c                	addi	a1,sp,8
  62:	0000                	unimp
  64:	0002                	c.slli64	zero
  66:	0592                	slli	a1,a1,0x4
  68:	0000                	unimp
  6a:	0008                	0x8
  6c:	0000                	unimp
  6e:	0000                	unimp
  70:	0190                	addi	a2,sp,192
  72:	8100                	0x8100
  74:	0000                	unimp
  76:	0000                	unimp
  78:	0202                	c.slli64	tp
	...

Disassembly of section .debug_line:

0000000000000000 <.debug_line>:
   0:	0142                	slli	sp,sp,0x10
   2:	0000                	unimp
   4:	0005                	c.nop	1
   6:	0008                	0x8
   8:	00000033          	add	zero,zero,zero
   c:	0101                	addi	sp,sp,0
   e:	fb01                	bnez	a4,ffffffffffffff1e <vsnprintf+0xffffffff7efffd8e>
  10:	0d0e                	slli	s10,s10,0x3
  12:	0100                	addi	s0,sp,128
  14:	0101                	addi	sp,sp,0
  16:	0001                	nop
  18:	0000                	unimp
  1a:	0001                	nop
  1c:	0100                	addi	s0,sp,128
  1e:	0101                	addi	sp,sp,0
  20:	021f 001b 0000      	0x1b021f
  26:	00000037          	lui	zero,0x0
  2a:	0102                	c.slli64	sp
  2c:	021f 030f 0000      	0x30f021f
  32:	0000                	unimp
  34:	0500                	addi	s0,sp,640
  36:	0000                	unimp
  38:	0100                	addi	s0,sp,128
  3a:	003c                	addi	a5,sp,8
  3c:	0000                	unimp
  3e:	0501                	addi	a0,a0,0
  40:	0209000b          	0x209000b
  44:	0000                	unimp
  46:	8100                	0x8100
  48:	0000                	unimp
  4a:	0000                	unimp
  4c:	051a                	slli	a0,a0,0x6
  4e:	030d                	addi	t1,t1,3
  50:	0900                	addi	s0,sp,144
  52:	0008                	0x8
  54:	0501                	addi	a0,a0,0
  56:	0621                	addi	a2,a2,8
  58:	06090003          	lb	zero,96(s2) # 1060 <f8-0x80ffefa0>
  5c:	0100                	addi	s0,sp,128
  5e:	0b05                	addi	s6,s6,1
  60:	0306                	slli	t1,t1,0x1
  62:	0901                	addi	s2,s2,0
  64:	0008                	0x8
  66:	0501                	addi	a0,a0,0
  68:	030d                	addi	t1,t1,3
  6a:	0900                	addi	s0,sp,144
  6c:	0008                	0x8
  6e:	0501                	addi	a0,a0,0
  70:	00030613          	mv	a2,t1
  74:	0409                	addi	s0,s0,2
  76:	0100                	addi	s0,sp,128
  78:	0b05                	addi	s6,s6,1
  7a:	0306                	slli	t1,t1,0x1
  7c:	0901                	addi	s2,s2,0
  7e:	0008                	0x8
  80:	0501                	addi	a0,a0,0
  82:	030d                	addi	t1,t1,3
  84:	0900                	addi	s0,sp,144
  86:	0008                	0x8
  88:	0501                	addi	a0,a0,0
  8a:	00030613          	mv	a2,t1
  8e:	0409                	addi	s0,s0,2
  90:	0100                	addi	s0,sp,128
  92:	0b05                	addi	s6,s6,1
  94:	0306                	slli	t1,t1,0x1
  96:	0901                	addi	s2,s2,0
  98:	0008                	0x8
  9a:	0501                	addi	a0,a0,0
  9c:	030d                	addi	t1,t1,3
  9e:	0900                	addi	s0,sp,144
  a0:	0008                	0x8
  a2:	0501                	addi	a0,a0,0
  a4:	00030613          	mv	a2,t1
  a8:	0409                	addi	s0,s0,2
  aa:	0100                	addi	s0,sp,128
  ac:	0b05                	addi	s6,s6,1
  ae:	0306                	slli	t1,t1,0x1
  b0:	0901                	addi	s2,s2,0
  b2:	0008                	0x8
  b4:	0501                	addi	a0,a0,0
  b6:	030d                	addi	t1,t1,3
  b8:	0900                	addi	s0,sp,144
  ba:	0008                	0x8
  bc:	0501                	addi	a0,a0,0
  be:	00030613          	mv	a2,t1
  c2:	0409                	addi	s0,s0,2
  c4:	0100                	addi	s0,sp,128
  c6:	0b05                	addi	s6,s6,1
  c8:	0306                	slli	t1,t1,0x1
  ca:	0901                	addi	s2,s2,0
  cc:	0008                	0x8
  ce:	0501                	addi	a0,a0,0
  d0:	030d                	addi	t1,t1,3
  d2:	0900                	addi	s0,sp,144
  d4:	0008                	0x8
  d6:	0501                	addi	a0,a0,0
  d8:	00030613          	mv	a2,t1
  dc:	0409                	addi	s0,s0,2
  de:	0100                	addi	s0,sp,128
  e0:	0b05                	addi	s6,s6,1
  e2:	0306                	slli	t1,t1,0x1
  e4:	0901                	addi	s2,s2,0
  e6:	0008                	0x8
  e8:	0501                	addi	a0,a0,0
  ea:	030d                	addi	t1,t1,3
  ec:	0900                	addi	s0,sp,144
  ee:	0008                	0x8
  f0:	0501                	addi	a0,a0,0
  f2:	00030613          	mv	a2,t1
  f6:	0409                	addi	s0,s0,2
  f8:	0100                	addi	s0,sp,128
  fa:	0b05                	addi	s6,s6,1
  fc:	0306                	slli	t1,t1,0x1
  fe:	0901                	addi	s2,s2,0
 100:	0008                	0x8
 102:	0501                	addi	a0,a0,0
 104:	030d                	addi	t1,t1,3
 106:	0900                	addi	s0,sp,144
 108:	0008                	0x8
 10a:	0501                	addi	a0,a0,0
 10c:	00030613          	mv	a2,t1
 110:	0409                	addi	s0,s0,2
 112:	0100                	addi	s0,sp,128
 114:	1005                	c.nop	-31
 116:	0306                	slli	t1,t1,0x1
 118:	0904                	addi	s1,sp,144
 11a:	0008                	0x8
 11c:	0501                	addi	a0,a0,0
 11e:	09010303          	lb	t1,144(sp)
 122:	0008                	0x8
 124:	0301                	addi	t1,t1,0
 126:	0901                	addi	s2,s2,0
 128:	000c                	0xc
 12a:	0301                	addi	t1,t1,0
 12c:	0901                	addi	s2,s2,0
 12e:	0004                	0x4
 130:	0301                	addi	t1,t1,0
 132:	0901                	addi	s2,s2,0
 134:	0006                	c.slli	zero,0x1
 136:	0501                	addi	a0,a0,0
 138:	0601                	addi	a2,a2,0
 13a:	00090103          	lb	sp,0(s2)
 13e:	0100                	addi	s0,sp,128
 140:	0a09                	addi	s4,s4,2
 142:	0000                	unimp
 144:	0101                	addi	sp,sp,0
 146:	014e                	slli	sp,sp,0x13
 148:	0000                	unimp
 14a:	0005                	c.nop	1
 14c:	0008                	0x8
 14e:	0045                	c.nop	17
 150:	0000                	unimp
 152:	0101                	addi	sp,sp,0
 154:	fb01                	bnez	a4,64 <f8-0x80ffff9c>
 156:	0d0e                	slli	s10,s10,0x3
 158:	0100                	addi	s0,sp,128
 15a:	0101                	addi	sp,sp,0
 15c:	0001                	nop
 15e:	0000                	unimp
 160:	0001                	nop
 162:	0100                	addi	s0,sp,128
 164:	0101                	addi	sp,sp,0
 166:	041f 001b 0000      	0x1b041f
 16c:	00000037          	lui	zero,0x0
 170:	00000057          	0x57
 174:	005e                	c.slli	zero,0x17
 176:	0000                	unimp
 178:	0102                	c.slli64	sp
 17a:	021f 050f 0047      	0x47050f021f
 180:	0000                	unimp
 182:	4c00                	lw	s0,24(s0)
 184:	0000                	unimp
 186:	0100                	addi	s0,sp,128
 188:	000000ab          	0xab
 18c:	b302                	fsd	ft0,416(sp)
 18e:	0000                	unimp
 190:	0300                	addi	s0,sp,384
 192:	00bc                	addi	a5,sp,72
 194:	0000                	unimp
 196:	0502                	c.slli64	a0
 198:	001d                	c.nop	7
 19a:	0209                	addi	tp,tp,2
 19c:	00ca                	slli	ra,ra,0x12
 19e:	8100                	0x8100
 1a0:	0000                	unimp
 1a2:	0000                	unimp
 1a4:	05010d03          	lb	s10,80(sp)
 1a8:	09010303          	lb	t1,144(sp)
 1ac:	0006                	c.slli	zero,0x1
 1ae:	0301                	addi	t1,t1,0
 1b0:	0904                	addi	s1,sp,144
 1b2:	0000                	unimp
 1b4:	0301                	addi	t1,t1,0
 1b6:	00080907          	0x80907
 1ba:	0501                	addi	a0,a0,0
 1bc:	0601                	addi	a2,a2,0
 1be:	00090103          	lb	sp,0(s2)
 1c2:	0100                	addi	s0,sp,128
 1c4:	2005                	0x2005
 1c6:	0306                	slli	t1,t1,0x1
 1c8:	0905                	addi	s2,s2,1
 1ca:	000a                	c.slli	zero,0x2
 1cc:	0501                	addi	a0,a0,0
 1ce:	09010303          	lb	t1,144(sp)
 1d2:	001a                	c.slli	zero,0x6
 1d4:	0301                	addi	t1,t1,0
 1d6:	0901                	addi	s2,s2,0
 1d8:	0000                	unimp
 1da:	0301                	addi	t1,t1,0
 1dc:	0902                	c.slli64	s2
 1de:	0008                	0x8
 1e0:	0301                	addi	t1,t1,0
 1e2:	0901                	addi	s2,s2,0
 1e4:	0000                	unimp
 1e6:	0501                	addi	a0,a0,0
 1e8:	060d                	addi	a2,a2,3
 1ea:	00090003          	lb	zero,0(s2)
 1ee:	0100                	addi	s0,sp,128
 1f0:	0305                	addi	t1,t1,1
 1f2:	0306                	slli	t1,t1,0x1
 1f4:	0901                	addi	s2,s2,0
 1f6:	000e                	c.slli	zero,0x3
 1f8:	0301                	addi	t1,t1,0
 1fa:	0901                	addi	s2,s2,0
 1fc:	0000                	unimp
 1fe:	0301                	addi	t1,t1,0
 200:	0901                	addi	s2,s2,0
 202:	0000                	unimp
 204:	0501                	addi	a0,a0,0
 206:	0612                	slli	a2,a2,0x4
 208:	00090003          	lb	zero,0(s2)
 20c:	0100                	addi	s0,sp,128
 20e:	2605                	addiw	a2,a2,1
 210:	04090003          	lb	zero,64(s2)
 214:	0100                	addi	s0,sp,128
 216:	0200                	addi	s0,sp,256
 218:	0104                	addi	s1,sp,128
 21a:	08090003          	lb	zero,128(s2)
 21e:	0100                	addi	s0,sp,128
 220:	0305                	addi	t1,t1,1
 222:	0200                	addi	s0,sp,256
 224:	0404                	addi	s1,sp,512
 226:	0306                	slli	t1,t1,0x1
 228:	00020903          	lb	s2,0(tp) # 0 <f8-0x81000000>
 22c:	0501                	addi	a0,a0,0
 22e:	000a                	c.slli	zero,0x2
 230:	0402                	c.slli64	s0
 232:	0604                	addi	s1,sp,768
 234:	00090003          	lb	zero,0(s2)
 238:	0100                	addi	s0,sp,128
 23a:	0105                	addi	sp,sp,1
 23c:	0200                	addi	s0,sp,256
 23e:	0404                	addi	s1,sp,512
 240:	16090103          	lb	sp,352(s2)
 244:	0100                	addi	s0,sp,128
 246:	2605                	addiw	a2,a2,1
 248:	08097c03          	0x8097c03
 24c:	0100                	addi	s0,sp,128
 24e:	1405                	addi	s0,s0,-31
 250:	0306                	slli	t1,t1,0x1
 252:	0909                	addi	s2,s2,2
 254:	0006                	c.slli	zero,0x1
 256:	0501                	addi	a0,a0,0
 258:	09010303          	lb	t1,144(sp)
 25c:	000a                	c.slli	zero,0x2
 25e:	0501                	addi	a0,a0,0
 260:	060a                	slli	a2,a2,0x2
 262:	00090003          	lb	zero,0(s2)
 266:	0100                	addi	s0,sp,128
 268:	0105                	addi	sp,sp,1
 26a:	14090103          	lb	sp,320(s2)
 26e:	0100                	addi	s0,sp,128
 270:	1c05                	addi	s8,s8,-31
 272:	0306                	slli	t1,t1,0x1
 274:	0904                	addi	s1,sp,144
 276:	0008                	0x8
 278:	0501                	addi	a0,a0,0
 27a:	09040303          	lb	t1,144(s0) # ffffffffffffd090 <vsnprintf+0xffffffff7effcf00>
 27e:	000a                	c.slli	zero,0x2
 280:	0501                	addi	a0,a0,0
 282:	060a                	slli	a2,a2,0x2
 284:	00090003          	lb	zero,0(s2)
 288:	0100                	addi	s0,sp,128
 28a:	0105                	addi	sp,sp,1
 28c:	14090103          	lb	sp,320(s2)
 290:	0100                	addi	s0,sp,128
 292:	0809                	addi	a6,a6,2
 294:	0000                	unimp
 296:	0101                	addi	sp,sp,0
 298:	0605                	addi	a2,a2,1
 29a:	0000                	unimp
 29c:	0005                	c.nop	1
 29e:	0008                	0x8
 2a0:	0040                	addi	s0,sp,4
 2a2:	0000                	unimp
 2a4:	0101                	addi	sp,sp,0
 2a6:	fb01                	bnez	a4,1b6 <f8-0x80fffe4a>
 2a8:	0d0e                	slli	s10,s10,0x3
 2aa:	0100                	addi	s0,sp,128
 2ac:	0101                	addi	sp,sp,0
 2ae:	0001                	nop
 2b0:	0000                	unimp
 2b2:	0001                	nop
 2b4:	0100                	addi	s0,sp,128
 2b6:	0101                	addi	sp,sp,0
 2b8:	041f 001b 0000      	0x1b041f
 2be:	0059                	c.nop	22
 2c0:	0000                	unimp
 2c2:	005e                	c.slli	zero,0x17
 2c4:	0000                	unimp
 2c6:	00000057          	0x57
 2ca:	0102                	c.slli64	sp
 2cc:	021f 040f 00c7      	0xc7040f021f
 2d2:	0000                	unimp
 2d4:	cc00                	sw	s0,24(s0)
 2d6:	0000                	unimp
 2d8:	0100                	addi	s0,sp,128
 2da:	000000b3          	add	ra,zero,zero
 2de:	ab02                	fsd	ft0,400(sp)
 2e0:	0000                	unimp
 2e2:	0300                	addi	s0,sp,384
 2e4:	4105                	li	sp,1
 2e6:	0900                	addi	s0,sp,144
 2e8:	9002                	ebreak
 2ea:	0001                	nop
 2ec:	0081                	addi	ra,ra,0
 2ee:	0000                	unimp
 2f0:	0300                	addi	s0,sp,384
 2f2:	010a                	slli	sp,sp,0x2
 2f4:	0305                	addi	t1,t1,1
 2f6:	0a090103          	lb	sp,160(s2)
 2fa:	0100                	addi	s0,sp,128
 2fc:	00090103          	lb	sp,0(s2)
 300:	0100                	addi	s0,sp,128
 302:	00090103          	lb	sp,0(s2)
 306:	0100                	addi	s0,sp,128
 308:	00090203          	lb	tp,0(s2)
 30c:	0100                	addi	s0,sp,128
 30e:	0a05                	addi	s4,s4,1
 310:	0306                	slli	t1,t1,0x1
 312:	097e                	slli	s2,s2,0x1f
 314:	0000                	unimp
 316:	0501                	addi	a0,a0,0
 318:	0308                	addi	a0,sp,384
 31a:	097f                	0x97f
 31c:	0002                	c.slli64	zero
 31e:	0301                	addi	t1,t1,0
 320:	097f                	0x97f
 322:	0002                	c.slli64	zero
 324:	0501                	addi	a0,a0,0
 326:	09040303          	lb	t1,144(s0)
 32a:	0002                	c.slli64	zero
 32c:	0501                	addi	a0,a0,0
 32e:	0703060b          	0x703060b
 332:	0209                	addi	tp,tp,2
 334:	0100                	addi	s0,sp,128
 336:	00090103          	lb	sp,0(s2)
 33a:	0100                	addi	s0,sp,128
 33c:	0e05                	addi	t3,t3,1
 33e:	0306                	slli	t1,t1,0x1
 340:	0900                	addi	s0,sp,144
 342:	0000                	unimp
 344:	0501                	addi	a0,a0,0
 346:	001a                	c.slli	zero,0x6
 348:	0402                	c.slli64	s0
 34a:	0601                	addi	a2,a2,0
 34c:	08090003          	lb	zero,128(s2)
 350:	0100                	addi	s0,sp,128
 352:	1d05                	addi	s10,s10,-31
 354:	0200                	addi	s0,sp,256
 356:	0104                	addi	s1,sp,128
 358:	0306                	slli	t1,t1,0x1
 35a:	0900                	addi	s0,sp,144
 35c:	0000                	unimp
 35e:	0501                	addi	a0,a0,0
 360:	04020027          	0x4020027
 364:	0301                	addi	t1,t1,0
 366:	0900                	addi	s0,sp,144
 368:	0004                	0x4
 36a:	0501                	addi	a0,a0,0
 36c:	0103060b          	0x103060b
 370:	0809                	addi	a6,a6,2
 372:	0100                	addi	s0,sp,128
 374:	0e05                	addi	t3,t3,1
 376:	0306                	slli	t1,t1,0x1
 378:	0900                	addi	s0,sp,144
 37a:	0000                	unimp
 37c:	0501                	addi	a0,a0,0
 37e:	001a                	c.slli	zero,0x6
 380:	0402                	c.slli64	s0
 382:	0601                	addi	a2,a2,0
 384:	06090003          	lb	zero,96(s2)
 388:	0100                	addi	s0,sp,128
 38a:	1d05                	addi	s10,s10,-31
 38c:	0200                	addi	s0,sp,256
 38e:	0104                	addi	s1,sp,128
 390:	0306                	slli	t1,t1,0x1
 392:	0900                	addi	s0,sp,144
 394:	0000                	unimp
 396:	0501                	addi	a0,a0,0
 398:	04020027          	0x4020027
 39c:	0301                	addi	t1,t1,0
 39e:	0900                	addi	s0,sp,144
 3a0:	0002                	c.slli64	zero
 3a2:	0501                	addi	a0,a0,0
 3a4:	0402000b          	0x402000b
 3a8:	0601                	addi	a2,a2,0
 3aa:	08090203          	lb	tp,128(s2)
 3ae:	0100                	addi	s0,sp,128
 3b0:	3105                	addiw	sp,sp,-31
 3b2:	0200                	addi	s0,sp,256
 3b4:	0104                	addi	s1,sp,128
 3b6:	0306                	slli	t1,t1,0x1
 3b8:	0900                	addi	s0,sp,144
 3ba:	0000                	unimp
 3bc:	0501                	addi	a0,a0,0
 3be:	0402000b          	0x402000b
 3c2:	0604                	addi	s1,sp,768
 3c4:	10090103          	lb	sp,256(s2)
 3c8:	0100                	addi	s0,sp,128
 3ca:	1005                	c.nop	-31
 3cc:	0200                	addi	s0,sp,256
 3ce:	0404                	addi	s1,sp,512
 3d0:	00090003          	lb	zero,0(s2)
 3d4:	0100                	addi	s0,sp,128
 3d6:	1405                	addi	s0,s0,-31
 3d8:	0200                	addi	s0,sp,256
 3da:	0404                	addi	s1,sp,512
 3dc:	0306                	slli	t1,t1,0x1
 3de:	0900                	addi	s0,sp,144
 3e0:	0000                	unimp
 3e2:	0301                	addi	t1,t1,0
 3e4:	0900                	addi	s0,sp,144
 3e6:	0002                	c.slli64	zero
 3e8:	0501                	addi	a0,a0,0
 3ea:	7f03060b          	0x7f03060b
 3ee:	0409                	addi	s0,s0,2
 3f0:	0100                	addi	s0,sp,128
 3f2:	3105                	addiw	sp,sp,-31
 3f4:	0306                	slli	t1,t1,0x1
 3f6:	0900                	addi	s0,sp,144
 3f8:	0000                	unimp
 3fa:	0501                	addi	a0,a0,0
 3fc:	09000333          	0x9000333
 400:	0008                	0x8
 402:	0501                	addi	a0,a0,0
 404:	0331                	addi	t1,t1,12
 406:	0900                	addi	s0,sp,144
 408:	0010                	0x10
 40a:	0501                	addi	a0,a0,0
 40c:	0029                	c.nop	10
 40e:	0402                	c.slli64	s0
 410:	09030303          	lb	t1,144(t1)
 414:	0004                	0x4
 416:	0501                	addi	a0,a0,0
 418:	001f 0402 0305      	0x3050402001f
 41e:	0900                	addi	s0,sp,144
 420:	0004                	0x4
 422:	0501                	addi	a0,a0,0
 424:	0029                	c.nop	10
 426:	0402                	c.slli64	s0
 428:	0305                	addi	t1,t1,1
 42a:	0900                	addi	s0,sp,144
 42c:	0002                	c.slli64	zero
 42e:	0501                	addi	a0,a0,0
 430:	0051                	c.nop	20
 432:	0402                	c.slli64	s0
 434:	0606                	slli	a2,a2,0x1
 436:	04097e03          	0x4097e03
 43a:	0100                	addi	s0,sp,128
 43c:	1005                	c.nop	-31
 43e:	0200                	addi	s0,sp,256
 440:	0604                	addi	s1,sp,768
 442:	0306                	slli	t1,t1,0x1
 444:	0902                	c.slli64	s2
 446:	0002                	c.slli64	zero
 448:	0501                	addi	a0,a0,0
 44a:	004a                	c.slli	zero,0x12
 44c:	0402                	c.slli64	s0
 44e:	0605                	addi	a2,a2,1
 450:	02097e03          	0x2097e03
 454:	0100                	addi	s0,sp,128
 456:	0d05                	addi	s10,s10,1
 458:	04090103          	lb	sp,64(s2)
 45c:	0100                	addi	s0,sp,128
 45e:	2005                	0x2005
 460:	0306                	slli	t1,t1,0x1
 462:	0900                	addi	s0,sp,144
 464:	0000                	unimp
 466:	0501                	addi	a0,a0,0
 468:	031a                	slli	t1,t1,0x6
 46a:	0900                	addi	s0,sp,144
 46c:	0004                	0x4
 46e:	0501                	addi	a0,a0,0
 470:	0311                	addi	t1,t1,4
 472:	0900                	addi	s0,sp,144
 474:	0004                	0x4
 476:	0501                	addi	a0,a0,0
 478:	060d                	addi	a2,a2,3
 47a:	02090103          	lb	sp,32(s2)
 47e:	0100                	addi	s0,sp,128
 480:	1005                	c.nop	-31
 482:	0306                	slli	t1,t1,0x1
 484:	0900                	addi	s0,sp,144
 486:	0000                	unimp
 488:	0501                	addi	a0,a0,0
 48a:	001c                	0x1c
 48c:	0402                	c.slli64	s0
 48e:	0601                	addi	a2,a2,0
 490:	08090003          	lb	zero,128(s2)
 494:	0100                	addi	s0,sp,128
 496:	2905                	addiw	s2,s2,1
 498:	0200                	addi	s0,sp,256
 49a:	0104                	addi	s1,sp,128
 49c:	0306                	slli	t1,t1,0x1
 49e:	0900                	addi	s0,sp,144
 4a0:	0000                	unimp
 4a2:	0001                	nop
 4a4:	0402                	c.slli64	s0
 4a6:	0302                	c.slli64	t1
 4a8:	0900                	addi	s0,sp,144
 4aa:	0006                	c.slli	zero,0x1
 4ac:	0501                	addi	a0,a0,0
 4ae:	0314                	addi	a3,sp,384
 4b0:	097e                	slli	s2,s2,0x1f
 4b2:	0006                	c.slli	zero,0x1
 4b4:	0501                	addi	a0,a0,0
 4b6:	09040313          	addi	t1,s0,144
 4ba:	0004                	0x4
 4bc:	0501                	addi	a0,a0,0
 4be:	0312                	slli	t1,t1,0x4
 4c0:	0901                	addi	s2,s2,0
 4c2:	0002                	c.slli64	zero
 4c4:	0501                	addi	a0,a0,0
 4c6:	0403060b          	0x403060b
 4ca:	0409                	addi	s0,s0,2
 4cc:	0100                	addi	s0,sp,128
 4ce:	3105                	addiw	sp,sp,-31
 4d0:	0306                	slli	t1,t1,0x1
 4d2:	0900                	addi	s0,sp,144
 4d4:	0000                	unimp
 4d6:	0501                	addi	a0,a0,0
 4d8:	0402000b          	0x402000b
 4dc:	0604                	addi	s1,sp,768
 4de:	14090103          	lb	sp,320(s2)
 4e2:	0100                	addi	s0,sp,128
 4e4:	0e05                	addi	t3,t3,1
 4e6:	0200                	addi	s0,sp,256
 4e8:	0404                	addi	s1,sp,512
 4ea:	0306                	slli	t1,t1,0x1
 4ec:	0900                	addi	s0,sp,144
 4ee:	0000                	unimp
 4f0:	0501                	addi	a0,a0,0
 4f2:	0403060b          	0x403060b
 4f6:	0409                	addi	s0,s0,2
 4f8:	0100                	addi	s0,sp,128
 4fa:	00090103          	lb	sp,0(s2)
 4fe:	0100                	addi	s0,sp,128
 500:	1005                	c.nop	-31
 502:	00090003          	lb	zero,0(s2)
 506:	0100                	addi	s0,sp,128
 508:	1505                	addi	a0,a0,-31
 50a:	0306                	slli	t1,t1,0x1
 50c:	0900                	addi	s0,sp,144
 50e:	0000                	unimp
 510:	0501                	addi	a0,a0,0
 512:	0310                	addi	a2,sp,384
 514:	097f                	0x97f
 516:	0002                	c.slli64	zero
 518:	0501                	addi	a0,a0,0
 51a:	0901030b          	0x901030b
 51e:	0002                	c.slli64	zero
 520:	0501                	addi	a0,a0,0
 522:	097a0333          	0x97a0333
 526:	0002                	c.slli64	zero
 528:	0501                	addi	a0,a0,0
 52a:	060d                	addi	a2,a2,3
 52c:	12090203          	lb	tp,288(s2)
 530:	0100                	addi	s0,sp,128
 532:	1105                	addi	sp,sp,-31
 534:	0306                	slli	t1,t1,0x1
 536:	0900                	addi	s0,sp,144
 538:	0000                	unimp
 53a:	0501                	addi	a0,a0,0
 53c:	060d                	addi	a2,a2,3
 53e:	04090103          	lb	sp,64(s2)
 542:	0100                	addi	s0,sp,128
 544:	1005                	c.nop	-31
 546:	0306                	slli	t1,t1,0x1
 548:	0900                	addi	s0,sp,144
 54a:	0000                	unimp
 54c:	0501                	addi	a0,a0,0
 54e:	001c                	0x1c
 550:	0402                	c.slli64	s0
 552:	0601                	addi	a2,a2,0
 554:	08090003          	lb	zero,128(s2)
 558:	0100                	addi	s0,sp,128
 55a:	1f05                	addi	t5,t5,-31
 55c:	0200                	addi	s0,sp,256
 55e:	0104                	addi	s1,sp,128
 560:	0306                	slli	t1,t1,0x1
 562:	0900                	addi	s0,sp,144
 564:	0000                	unimp
 566:	0501                	addi	a0,a0,0
 568:	0029                	c.nop	10
 56a:	0402                	c.slli64	s0
 56c:	0301                	addi	t1,t1,0
 56e:	0900                	addi	s0,sp,144
 570:	0002                	c.slli64	zero
 572:	0501                	addi	a0,a0,0
 574:	0010                	0x10
 576:	0402                	c.slli64	s0
 578:	0301                	addi	t1,t1,0
 57a:	0900                	addi	s0,sp,144
 57c:	0008                	0x8
 57e:	0301                	addi	t1,t1,0
 580:	0900                	addi	s0,sp,144
 582:	0004                	0x4
 584:	0501                	addi	a0,a0,0
 586:	0402002f          	0x402002f
 58a:	03030603          	lb	a2,48(t1)
 58e:	0409                	addi	s0,s0,2
 590:	0100                	addi	s0,sp,128
 592:	1f05                	addi	t5,t5,-31
 594:	0200                	addi	s0,sp,256
 596:	0104                	addi	s1,sp,128
 598:	02090003          	lb	zero,32(s2)
 59c:	0100                	addi	s0,sp,128
 59e:	2205                	addiw	tp,tp,1
 5a0:	0200                	addi	s0,sp,256
 5a2:	0104                	addi	s1,sp,128
 5a4:	0306                	slli	t1,t1,0x1
 5a6:	0900                	addi	s0,sp,144
 5a8:	0000                	unimp
 5aa:	0501                	addi	a0,a0,0
 5ac:	001f 0402 0301      	0x3010402001f
 5b2:	0900                	addi	s0,sp,144
 5b4:	0006                	c.slli	zero,0x1
 5b6:	0501                	addi	a0,a0,0
 5b8:	0203060b          	0x203060b
 5bc:	0209                	addi	tp,tp,2
 5be:	0100                	addi	s0,sp,128
 5c0:	1005                	c.nop	-31
 5c2:	00090003          	lb	zero,0(s2)
 5c6:	0100                	addi	s0,sp,128
 5c8:	1405                	addi	s0,s0,-31
 5ca:	0306                	slli	t1,t1,0x1
 5cc:	0900                	addi	s0,sp,144
 5ce:	0000                	unimp
 5d0:	0501                	addi	a0,a0,0
 5d2:	0900030b          	0x900030b
 5d6:	0004                	0x4
 5d8:	0501                	addi	a0,a0,0
 5da:	000d                	c.nop	3
 5dc:	0402                	c.slli64	s0
 5de:	0602                	c.slli64	a2
 5e0:	02090203          	lb	tp,32(s2)
 5e4:	0100                	addi	s0,sp,128
 5e6:	1105                	addi	sp,sp,-31
 5e8:	0200                	addi	s0,sp,256
 5ea:	0204                	addi	s1,sp,256
 5ec:	0306                	slli	t1,t1,0x1
 5ee:	0900                	addi	s0,sp,144
 5f0:	0000                	unimp
 5f2:	0501                	addi	a0,a0,0
 5f4:	002d                	c.nop	11
 5f6:	0402                	c.slli64	s0
 5f8:	0602                	c.slli64	a2
 5fa:	06097e03          	0x6097e03
 5fe:	0100                	addi	s0,sp,128
 600:	2605                	addiw	a2,a2,1
 602:	0200                	addi	s0,sp,256
 604:	0104                	addi	s1,sp,128
 606:	02090003          	lb	zero,32(s2)
 60a:	0100                	addi	s0,sp,128
 60c:	0d05                	addi	s10,s10,1
 60e:	04090103          	lb	sp,64(s2)
 612:	0100                	addi	s0,sp,128
 614:	1505                	addi	a0,a0,-31
 616:	0306                	slli	t1,t1,0x1
 618:	0900                	addi	s0,sp,144
 61a:	0000                	unimp
 61c:	0501                	addi	a0,a0,0
 61e:	0319                	addi	t1,t1,6
 620:	0900                	addi	s0,sp,144
 622:	0004                	0x4
 624:	0501                	addi	a0,a0,0
 626:	0310                	addi	a2,sp,384
 628:	0900                	addi	s0,sp,144
 62a:	0004                	0x4
 62c:	0501                	addi	a0,a0,0
 62e:	0022                	c.slli	zero,0x8
 630:	0402                	c.slli64	s0
 632:	0601                	addi	a2,a2,0
 634:	04090003          	lb	zero,64(s2)
 638:	0100                	addi	s0,sp,128
 63a:	3c05                	addiw	s8,s8,-31
 63c:	0200                	addi	s0,sp,256
 63e:	0104                	addi	s1,sp,128
 640:	0306                	slli	t1,t1,0x1
 642:	0900                	addi	s0,sp,144
 644:	0000                	unimp
 646:	0501                	addi	a0,a0,0
 648:	0025                	c.nop	9
 64a:	0402                	c.slli64	s0
 64c:	0301                	addi	t1,t1,0
 64e:	0900                	addi	s0,sp,144
 650:	0006                	c.slli	zero,0x1
 652:	0501                	addi	a0,a0,0
 654:	0035                	c.nop	13
 656:	0402                	c.slli64	s0
 658:	0301                	addi	t1,t1,0
 65a:	0900                	addi	s0,sp,144
 65c:	0002                	c.slli64	zero
 65e:	0501                	addi	a0,a0,0
 660:	0402002f          	0x402002f
 664:	0301                	addi	t1,t1,0
 666:	0900                	addi	s0,sp,144
 668:	0004                	0x4
 66a:	0501                	addi	a0,a0,0
 66c:	0303060b          	0x303060b
 670:	0609                	addi	a2,a2,2
 672:	0100                	addi	s0,sp,128
 674:	0f05                	addi	t5,t5,1
 676:	0306                	slli	t1,t1,0x1
 678:	0900                	addi	s0,sp,144
 67a:	0000                	unimp
 67c:	0501                	addi	a0,a0,0
 67e:	0103060b          	0x103060b
 682:	0209                	addi	tp,tp,2
 684:	0100                	addi	s0,sp,128
 686:	00090103          	lb	sp,0(s2)
 68a:	0100                	addi	s0,sp,128
 68c:	00090103          	lb	sp,0(s2)
 690:	0100                	addi	s0,sp,128
 692:	1305                	addi	t1,t1,-31
 694:	0306                	slli	t1,t1,0x1
 696:	097e                	slli	s2,s2,0x1f
 698:	0000                	unimp
 69a:	0501                	addi	a0,a0,0
 69c:	0312                	slli	t1,t1,0x4
 69e:	0901                	addi	s2,s2,0
 6a0:	0002                	c.slli64	zero
 6a2:	0501                	addi	a0,a0,0
 6a4:	0901030b          	0x901030b
 6a8:	0002                	c.slli64	zero
 6aa:	0601                	addi	a2,a2,0
 6ac:	02090303          	lb	t1,32(s2)
 6b0:	0100                	addi	s0,sp,128
 6b2:	1705                	addi	a4,a4,-31
 6b4:	0306                	slli	t1,t1,0x1
 6b6:	0900                	addi	s0,sp,144
 6b8:	0000                	unimp
 6ba:	0501                	addi	a0,a0,0
 6bc:	0103060b          	0x103060b
 6c0:	0e09                	addi	t3,t3,2
 6c2:	0100                	addi	s0,sp,128
 6c4:	1105                	addi	sp,sp,-31
 6c6:	0306                	slli	t1,t1,0x1
 6c8:	0900                	addi	s0,sp,144
 6ca:	0000                	unimp
 6cc:	0501                	addi	a0,a0,0
 6ce:	060d                	addi	a2,a2,3
 6d0:	02090203          	lb	tp,32(s2)
 6d4:	0100                	addi	s0,sp,128
 6d6:	0f05                	addi	t5,t5,1
 6d8:	0306                	slli	t1,t1,0x1
 6da:	0900                	addi	s0,sp,144
 6dc:	0000                	unimp
 6de:	0501                	addi	a0,a0,0
 6e0:	0310                	addi	a2,sp,384
 6e2:	097f                	0x97f
 6e4:	0002                	c.slli64	zero
 6e6:	0501                	addi	a0,a0,0
 6e8:	0612                	slli	a2,a2,0x4
 6ea:	02097f03          	0x2097f03
 6ee:	0100                	addi	s0,sp,128
 6f0:	0d05                	addi	s10,s10,1
 6f2:	08090103          	lb	sp,128(s2)
 6f6:	0100                	addi	s0,sp,128
 6f8:	1005                	c.nop	-31
 6fa:	0306                	slli	t1,t1,0x1
 6fc:	0900                	addi	s0,sp,144
 6fe:	0000                	unimp
 700:	0501                	addi	a0,a0,0
 702:	001c                	0x1c
 704:	0402                	c.slli64	s0
 706:	0601                	addi	a2,a2,0
 708:	08090003          	lb	zero,128(s2)
 70c:	0100                	addi	s0,sp,128
 70e:	1f05                	addi	t5,t5,-31
 710:	0200                	addi	s0,sp,256
 712:	0104                	addi	s1,sp,128
 714:	0306                	slli	t1,t1,0x1
 716:	0900                	addi	s0,sp,144
 718:	0000                	unimp
 71a:	0501                	addi	a0,a0,0
 71c:	0029                	c.nop	10
 71e:	0402                	c.slli64	s0
 720:	0301                	addi	t1,t1,0
 722:	0900                	addi	s0,sp,144
 724:	0002                	c.slli64	zero
 726:	0501                	addi	a0,a0,0
 728:	09030313          	addi	t1,t1,144
 72c:	0006                	c.slli	zero,0x1
 72e:	0501                	addi	a0,a0,0
 730:	0312                	slli	t1,t1,0x4
 732:	0901                	addi	s2,s2,0
 734:	0002                	c.slli64	zero
 736:	0501                	addi	a0,a0,0
 738:	0403060b          	0x403060b
 73c:	0409                	addi	s0,s0,2
 73e:	0100                	addi	s0,sp,128
 740:	0e05                	addi	t3,t3,1
 742:	0306                	slli	t1,t1,0x1
 744:	0900                	addi	s0,sp,144
 746:	0000                	unimp
 748:	0501                	addi	a0,a0,0
 74a:	061a                	slli	a2,a2,0x6
 74c:	08090003          	lb	zero,128(s2)
 750:	0100                	addi	s0,sp,128
 752:	2f05                	addiw	t5,t5,1
 754:	0306                	slli	t1,t1,0x1
 756:	0900                	addi	s0,sp,144
 758:	0000                	unimp
 75a:	0501                	addi	a0,a0,0
 75c:	031d                	addi	t1,t1,7
 75e:	0900                	addi	s0,sp,144
 760:	000c                	0xc
 762:	0501                	addi	a0,a0,0
 764:	0329                	addi	t1,t1,10
 766:	0900                	addi	s0,sp,144
 768:	0002                	c.slli64	zero
 76a:	0501                	addi	a0,a0,0
 76c:	09000327          	0x9000327
 770:	0004                	0x4
 772:	0501                	addi	a0,a0,0
 774:	030e                	slli	t1,t1,0x3
 776:	0900                	addi	s0,sp,144
 778:	0004                	0x4
 77a:	0501                	addi	a0,a0,0
 77c:	09010313          	addi	t1,sp,144
 780:	0002                	c.slli64	zero
 782:	0501                	addi	a0,a0,0
 784:	0312                	slli	t1,t1,0x4
 786:	0901                	addi	s2,s2,0
 788:	0002                	c.slli64	zero
 78a:	0501                	addi	a0,a0,0
 78c:	060c                	addi	a1,sp,768
 78e:	04090603          	lb	a2,64(s2)
 792:	0100                	addi	s0,sp,128
 794:	0f05                	addi	t5,t5,1
 796:	0306                	slli	t1,t1,0x1
 798:	0900                	addi	s0,sp,144
 79a:	0000                	unimp
 79c:	0501                	addi	a0,a0,0
 79e:	060a                	slli	a2,a2,0x2
 7a0:	08090203          	lb	tp,128(s2)
 7a4:	0100                	addi	s0,sp,128
 7a6:	0d05                	addi	s10,s10,1
 7a8:	0306                	slli	t1,t1,0x1
 7aa:	0900                	addi	s0,sp,144
 7ac:	0000                	unimp
 7ae:	0501                	addi	a0,a0,0
 7b0:	01030607          	0x1030607
 7b4:	0809                	addi	a6,a6,2
 7b6:	0100                	addi	s0,sp,128
 7b8:	0a05                	addi	s4,s4,1
 7ba:	0306                	slli	t1,t1,0x1
 7bc:	0900                	addi	s0,sp,144
 7be:	0000                	unimp
 7c0:	0501                	addi	a0,a0,0
 7c2:	0314                	addi	a3,sp,384
 7c4:	0900                	addi	s0,sp,144
 7c6:	0002                	c.slli64	zero
 7c8:	0501                	addi	a0,a0,0
 7ca:	030d                	addi	t1,t1,3
 7cc:	097f                	0x97f
 7ce:	0004                	0x4
 7d0:	0501                	addi	a0,a0,0
 7d2:	09490313          	addi	t1,s2,148
 7d6:	0004                	0x4
 7d8:	0501                	addi	a0,a0,0
 7da:	030e                	slli	t1,t1,0x3
 7dc:	092d                	addi	s2,s2,11
 7de:	0004                	0x4
 7e0:	0501                	addi	a0,a0,0
 7e2:	09010313          	addi	t1,sp,144
 7e6:	0002                	c.slli64	zero
 7e8:	0501                	addi	a0,a0,0
 7ea:	0312                	slli	t1,t1,0x4
 7ec:	0901                	addi	s2,s2,0
 7ee:	0002                	c.slli64	zero
 7f0:	0501                	addi	a0,a0,0
 7f2:	030e                	slli	t1,t1,0x3
 7f4:	00040907          	0x40907
 7f8:	0501                	addi	a0,a0,0
 7fa:	4603060f          	0x4603060f
 7fe:	0209                	addi	tp,tp,2
 800:	0100                	addi	s0,sp,128
 802:	0a05                	addi	s4,s4,1
 804:	0200                	addi	s0,sp,256
 806:	0104                	addi	s1,sp,128
 808:	02090003          	lb	zero,32(s2)
 80c:	0100                	addi	s0,sp,128
 80e:	0505                	addi	a0,a0,1
 810:	06090103          	lb	sp,96(s2)
 814:	0100                	addi	s0,sp,128
 816:	0805                	addi	a6,a6,1
 818:	0306                	slli	t1,t1,0x1
 81a:	0900                	addi	s0,sp,144
 81c:	0000                	unimp
 81e:	0501                	addi	a0,a0,0
 820:	01030607          	0x1030607
 824:	0209                	addi	tp,tp,2
 826:	0100                	addi	s0,sp,128
 828:	0d05                	addi	s10,s10,1
 82a:	0306                	slli	t1,t1,0x1
 82c:	0939                	addi	s2,s2,14
 82e:	0022                	c.slli	zero,0x8
 830:	0501                	addi	a0,a0,0
 832:	03030603          	lb	a2,48(t1)
 836:	0409                	addi	s0,s0,2
 838:	0100                	addi	s0,sp,128
 83a:	0605                	addi	a2,a2,1
 83c:	0306                	slli	t1,t1,0x1
 83e:	0900                	addi	s0,sp,144
 840:	0000                	unimp
 842:	0501                	addi	a0,a0,0
 844:	0605                	addi	a2,a2,1
 846:	04090103          	lb	sp,64(s2)
 84a:	0100                	addi	s0,sp,128
 84c:	0805                	addi	a6,a6,1
 84e:	0306                	slli	t1,t1,0x1
 850:	0900                	addi	s0,sp,144
 852:	0000                	unimp
 854:	0501                	addi	a0,a0,0
 856:	030e                	slli	t1,t1,0x3
 858:	0900                	addi	s0,sp,144
 85a:	0002                	c.slli64	zero
 85c:	0501                	addi	a0,a0,0
 85e:	03030603          	lb	a2,48(t1)
 862:	0409                	addi	s0,s0,2
 864:	0100                	addi	s0,sp,128
 866:	0105                	addi	sp,sp,1
 868:	0306                	slli	t1,t1,0x1
 86a:	0901                	addi	s2,s2,0
 86c:	0000                	unimp
 86e:	0501                	addi	a0,a0,0
 870:	0608                	addi	a0,sp,768
 872:	0a097d03          	0xa097d03
 876:	0100                	addi	s0,sp,128
 878:	0b05                	addi	s6,s6,1
 87a:	0306                	slli	t1,t1,0x1
 87c:	0900                	addi	s0,sp,144
 87e:	0000                	unimp
 880:	0501                	addi	a0,a0,0
 882:	0605                	addi	a2,a2,1
 884:	02090103          	lb	sp,32(s2)
 888:	0100                	addi	s0,sp,128
 88a:	0805                	addi	a6,a6,1
 88c:	0306                	slli	t1,t1,0x1
 88e:	0900                	addi	s0,sp,144
 890:	0000                	unimp
 892:	0501                	addi	a0,a0,0
 894:	0310                	addi	a2,sp,384
 896:	0900                	addi	s0,sp,144
 898:	0004                	0x4
 89a:	0901                	addi	s2,s2,0
 89c:	0006                	c.slli	zero,0x1
 89e:	0100                	addi	s0,sp,128
 8a0:	01              	Address 0x00000000000008a0 is out of bounds.


Disassembly of section .debug_str:

0000000000000000 <.debug_str>:
   0:	6f6c                	ld	a1,216(a4)
   2:	676e                	ld	a4,216(sp)
   4:	6c20                	ld	s0,88(s0)
   6:	20676e6f          	jal	t3,7620c <f8-0x80f89df4>
   a:	6e69                	lui	t3,0x1a
   c:	0074                	addi	a3,sp,12
   e:	616d                	addi	sp,sp,240
  10:	6e69                	lui	t3,0x1a
  12:	6c00                	ld	s0,24(s0)
  14:	20676e6f          	jal	t3,7621a <f8-0x80f89de6>
  18:	6f6c                	ld	a1,216(a4)
  1a:	676e                	ld	a4,216(sp)
  1c:	7520                	ld	s0,104(a0)
  1e:	736e                	ld	t1,248(sp)
  20:	6769                	lui	a4,0x1a
  22:	656e                	ld	a0,216(sp)
  24:	2064                	fld	fs1,192(s0)
  26:	6e69                	lui	t3,0x1a
  28:	0074                	addi	a3,sp,12
  2a:	6e75                	lui	t3,0x1d
  2c:	6e676973          	csrrsi	s2,0x6e6,14
  30:	6465                	lui	s0,0x19
  32:	6320                	ld	s0,64(a4)
  34:	6168                	ld	a0,192(a0)
  36:	0072                	c.slli	zero,0x1c
  38:	20554e47          	fmsub.s	ft8,fa0,ft5,ft4,rmm
  3c:	20393943          	fmadd.s	fs2,fs2,ft3,ft4,rup
  40:	3131                	addiw	sp,sp,-20
  42:	312e                	fld	ft2,232(sp)
  44:	302e                	fld	ft0,232(sp)
  46:	2d20                	fld	fs0,88(a0)
  48:	636d                	lui	t1,0x1b
  4a:	6f6d                	lui	t5,0x1b
  4c:	6564                	ld	s1,200(a0)
  4e:	3d6c                	fld	fa1,248(a0)
  50:	656d                	lui	a0,0x1b
  52:	6164                	ld	s1,192(a0)
  54:	796e                	ld	s2,248(sp)
  56:	2d20                	fld	fs0,88(a0)
  58:	746d                	lui	s0,0xffffb
  5a:	6e75                	lui	t3,0x1d
  5c:	3d65                	addiw	s10,s10,-7
  5e:	6f72                	ld	t5,280(sp)
  60:	74656b63          	bltu	a0,t1,7b6 <f8-0x80fff84a>
  64:	2d20                	fld	fs0,88(a0)
  66:	616d                	addi	sp,sp,240
  68:	6372                	ld	t1,280(sp)
  6a:	3d68                	fld	fa0,248(a0)
  6c:	7672                	ld	a2,312(sp)
  6e:	3436                	fld	fs0,360(sp)
  70:	6d69                	lui	s10,0x1a
  72:	6661                	lui	a2,0x18
  74:	6364                	ld	s1,192(a4)
  76:	2d20                	fld	fs0,88(a0)
  78:	616d                	addi	sp,sp,240
  7a:	6962                	ld	s2,24(sp)
  7c:	6c3d                	lui	s8,0xf
  7e:	3670                	fld	fa2,232(a2)
  80:	6434                	ld	a3,72(s0)
  82:	2d20                	fld	fs0,88(a0)
  84:	616d                	addi	sp,sp,240
  86:	6372                	ld	t1,280(sp)
  88:	3d68                	fld	fa0,248(a0)
  8a:	7672                	ld	a2,312(sp)
  8c:	3436                	fld	fs0,360(sp)
  8e:	6d69                	lui	s10,0x1a
  90:	6661                	lui	a2,0x18
  92:	6364                	ld	s1,192(a4)
  94:	2d20                	fld	fs0,88(a0)
  96:	4f2d2067          	0x4f2d2067
  9a:	732d2067          	0x732d2067
  9e:	6474                	ld	a3,200(s0)
  a0:	673d                	lui	a4,0xf
  a2:	756e                	ld	a0,248(sp)
  a4:	3939                	addiw	s2,s2,-18
  a6:	2d20                	fld	fs0,88(a0)
  a8:	6e66                	ld	t3,88(sp)
  aa:	75622d6f          	jal	s10,22800 <f8-0x80fdd800>
  ae:	6c69                	lui	s8,0x1a
  b0:	6974                	ld	a3,208(a0)
  b2:	206e                	fld	ft0,216(sp)
  b4:	662d                	lui	a2,0xb
  b6:	6f6e                	ld	t5,216(sp)
  b8:	642d                	lui	s0,0xb
  ba:	6c65                	lui	s8,0x19
  bc:	7465                	lui	s0,0xffff9
  be:	2d65                	addiw	s10,s10,25
  c0:	756e                	ld	a0,248(sp)
  c2:	6c6c                	ld	a1,216(s0)
  c4:	702d                	c.lui	zero,0xfffeb
  c6:	746e696f          	jal	s2,e680c <f8-0x80f197f4>
  ca:	7265                	lui	tp,0xffff9
  cc:	632d                	lui	t1,0xb
  ce:	6568                	ld	a0,200(a0)
  d0:	20736b63          	bltu	t1,t2,2e6 <f8-0x80fffd1a>
  d4:	662d                	lui	a2,0xb
  d6:	6f6e                	ld	t5,216(sp)
  d8:	502d                	c.li	zero,-21
  da:	4549                	li	a0,18
  dc:	2d20                	fld	fs0,88(a0)
  de:	6e66                	ld	t3,88(sp)
  e0:	6d6f2d6f          	jal	s10,f27b6 <f8-0x80f0d84a>
  e4:	7469                	lui	s0,0xffffa
  e6:	662d                	lui	a2,0xb
  e8:	6172                	ld	sp,280(sp)
  ea:	656d                	lui	a0,0x1b
  ec:	702d                	c.lui	zero,0xfffeb
  ee:	746e696f          	jal	s2,e6834 <f8-0x80f197cc>
  f2:	7265                	lui	tp,0xffff9
  f4:	7000                	ld	s0,32(s0)
  f6:	6972                	ld	s2,280(sp)
  f8:	746e                	ld	s0,248(sp)
  fa:	0075                	c.nop	29
  fc:	726f6873          	csrrsi	a6,0x726,30
 100:	2074                	fld	fa3,192(s0)
 102:	6e75                	lui	t3,0x1d
 104:	6e676973          	csrrsi	s2,0x6e6,14
 108:	6465                	lui	s0,0x19
 10a:	6920                	ld	s0,80(a0)
 10c:	746e                	ld	s0,248(sp)
 10e:	6500                	ld	s0,8(a0)
 110:	6978                	ld	a4,208(a0)
 112:	0074                	addi	a3,sp,12
 114:	7270                	ld	a2,224(a2)
 116:	6e69                	lui	t3,0x1a
 118:	5f74                	lw	a3,124(a4)
 11a:	6162                	ld	sp,24(sp)
 11c:	72746b63          	bltu	s0,t2,852 <f8-0x80fff7ae>
 120:	6361                	lui	t1,0x18
 122:	0065                	c.nop	25
 124:	726f6873          	csrrsi	a6,0x726,30
 128:	2074                	fld	fa3,192(s0)
 12a:	6e69                	lui	t3,0x1a
 12c:	0074                	addi	a3,sp,12
 12e:	657a6973          	csrrsi	s2,0x657,20
 132:	745f 5f00 625f      	0x625f5f00745f
 138:	6975                	lui	s2,0x1d
 13a:	746c                	ld	a1,232(s0)
 13c:	6e69                	lui	t3,0x1a
 13e:	765f 5f61 696c      	0x696c5f61765f
 144:	76007473          	csrrci	s0,0x760,0
 148:	72706e73          	csrrsi	t3,0x727,0
 14c:	6e69                	lui	t3,0x1a
 14e:	6674                	ld	a3,200(a2)
 150:	7300                	ld	s0,32(a4)
 152:	7379                	lui	t1,0xffffe
 154:	756e                	ld	a0,248(sp)
 156:	006d                	c.nop	27
 158:	6975                	lui	s2,0x1d
 15a:	746e                	ld	s0,248(sp)
 15c:	3436                	fld	fs0,360(sp)
 15e:	6400                	ld	s0,8(s0)
 160:	73755f6f          	jal	t5,56096 <f8-0x80fa9f6a>
 164:	7265                	lui	tp,0xffff9
 166:	635f 6c61 006c      	0x6c6c61635f
 16c:	5f5f 6e67 6375      	0x63756e675f5f
 172:	765f 5f61 696c      	0x696c5f61765f
 178:	63007473          	csrrci	s0,0x630,0
 17c:	0065646f          	jal	s0,56182 <f8-0x80fa9e7e>
 180:	6f62                	ld	t5,24(sp)
 182:	64006c6f          	jal	s8,67c2 <f8-0x80ff983e>
 186:	6769                	lui	a4,0x1a
 188:	7469                	lui	s0,0xffffa
 18a:	6f660073          	0x6f660073
 18e:	6d72                	ld	s10,280(sp)
 190:	7461                	lui	s0,0xffff8
 192:	6c00                	ld	s0,24(s0)
 194:	61676e6f          	jal	t3,767aa <f8-0x80f89856>
 198:	6772                	ld	a4,280(sp)
 19a:	6900                	ld	s0,16(a0)
 19c:	746e                	ld	s0,248(sp)
 19e:	          	snez	tp,zero

Disassembly of section .debug_line_str:

0000000000000000 <.debug_line_str>:
   0:	7375                	lui	t1,0xffffd
   2:	7265                	lui	tp,0xffff9
   4:	7070612f          	0x7070612f
   8:	705f 6972 746e      	0x746e6972705f
   e:	625f 6361 746b      	0x746b6361625f
  14:	6172                	ld	sp,280(sp)
  16:	632e6563          	bltu	t3,s2,640 <f8-0x80fff9c0>
  1a:	2f00                	fld	fs0,24(a4)
  1c:	6f68                	ld	a0,216(a4)
  1e:	656d                	lui	a0,0x1b
  20:	7879772f          	0x7879772f
  24:	2f6d                	addiw	t5,t5,27
  26:	6c2f534f          	0x6c2f534f
  2a:	722f6d67          	0x722f6d67
  2e:	7369                	lui	t1,0xffffa
  30:	702d7663          	bgeu	s10,sp,73c <f8-0x80fff8c4>
  34:	7500656b          	0x7500656b
  38:	00726573          	csrrsi	a0,0x7,4
  3c:	7375                	lui	t1,0xffffd
  3e:	7265                	lui	tp,0xffff9
  40:	6c5f 6269 682e      	0x682e62696c5f
  46:	7500                	ld	s0,40(a0)
  48:	2f726573          	csrrsi	a0,0x2f7,4
  4c:	7375                	lui	t1,0xffffd
  4e:	7265                	lui	tp,0xffff9
  50:	6c5f 6269 632e      	0x632e62696c5f
  56:	2e00                	fld	fs0,24(a2)
  58:	6974752f          	0x6974752f
  5c:	006c                	addi	a1,sp,12
  5e:	6d6f682f          	0x6d6f682f
  62:	2f65                	addiw	t5,t5,25
  64:	6d787977          	0x6d787977
  68:	2f534f2f          	0x2f534f2f
  6c:	676c                	ld	a1,200(a4)
  6e:	2f6d                	addiw	t5,t5,27
  70:	6972                	ld	s2,280(sp)
  72:	36766373          	csrrsi	t1,0x367,12
  76:	2d34                	fld	fa3,88(a0)
  78:	6c65                	lui	s8,0x19
  7a:	2d66                	fld	fs10,88(sp)
  7c:	2f636367          	0x2f636367
  80:	696c                	ld	a1,208(a0)
  82:	2f62                	fld	ft10,24(sp)
  84:	2f636367          	0x2f636367
  88:	6972                	ld	s2,280(sp)
  8a:	36766373          	csrrsi	t1,0x367,12
  8e:	2d34                	fld	fa3,88(a0)
  90:	6e75                	lui	t3,0x1d
  92:	776f6e6b          	0x776f6e6b
  96:	2d6e                	fld	fs10,216(sp)
  98:	6c65                	lui	s8,0x19
  9a:	2f66                	fld	ft10,88(sp)
  9c:	3131                	addiw	sp,sp,-20
  9e:	312e                	fld	ft2,232(sp)
  a0:	302e                	fld	ft0,232(sp)
  a2:	636e692f          	0x636e692f
  a6:	756c                	ld	a1,232(a0)
  a8:	6564                	ld	s1,200(a0)
  aa:	7400                	ld	s0,40(s0)
  ac:	7079                	c.lui	zero,0xffffe
  ae:	7365                	lui	t1,0xffff9
  b0:	682e                	ld	a6,200(sp)
  b2:	7300                	ld	s0,32(a4)
  b4:	6474                	ld	a3,200(s0)
  b6:	7261                	lui	tp,0xffff8
  b8:	00682e67          	0x682e67
  bc:	72706e73          	csrrsi	t3,0x727,0
  c0:	6e69                	lui	t3,0x1a
  c2:	6674                	ld	a3,200(a2)
  c4:	682e                	ld	a6,200(sp)
  c6:	7500                	ld	s0,40(a0)
  c8:	6974                	ld	a3,208(a0)
  ca:	2f6c                	fld	fa1,216(a4)
  cc:	72706e73          	csrrsi	t3,0x727,0
  d0:	6e69                	lui	t3,0x1a
  d2:	6674                	ld	a3,200(a2)
  d4:	632e                	ld	t1,200(sp)
	...

Disassembly of section .comment:

0000000000000000 <.comment>:
   0:	3a434347          	fmsub.d	ft6,ft6,ft4,ft7,rmm
   4:	2820                	fld	fs0,80(s0)
   6:	29554e47          	fmsub.s	ft8,fa0,fs5,ft5,rmm
   a:	3120                	fld	fs0,96(a0)
   c:	2e31                	addiw	t3,t3,12
   e:	2e31                	addiw	t3,t3,12
  10:	0030                	addi	a2,sp,8

Disassembly of section .riscv.attributes:

0000000000000000 <.riscv.attributes>:
   0:	3441                	addiw	s0,s0,-16
   2:	0000                	unimp
   4:	7200                	ld	s0,32(a2)
   6:	7369                	lui	t1,0xffffa
   8:	01007663          	bgeu	zero,a6,14 <f8-0x80ffffec>
   c:	002a                	c.slli	zero,0xa
   e:	0000                	unimp
  10:	1004                	addi	s1,sp,32
  12:	7205                	lui	tp,0xfffe1
  14:	3676                	fld	fa2,376(sp)
  16:	6934                	ld	a3,80(a0)
  18:	7032                	0x7032
  1a:	5f30                	lw	a2,120(a4)
  1c:	326d                	addiw	tp,tp,-5
  1e:	3070                	fld	fa2,224(s0)
  20:	615f 7032 5f30      	0x5f307032615f
  26:	3266                	fld	ft4,120(sp)
  28:	3070                	fld	fa2,224(s0)
  2a:	645f 7032 5f30      	0x5f307032645f
  30:	30703263          	0x30703263
	...

Disassembly of section .debug_frame:

0000000000000000 <.debug_frame>:
   0:	000c                	0xc
   2:	0000                	unimp
   4:	ffff                	0xffff
   6:	ffff                	0xffff
   8:	7c010003          	lb	zero,1984(sp)
   c:	0d01                	addi	s10,s10,0
   e:	0002                	c.slli64	zero
  10:	002c                	addi	a1,sp,8
	...
  1a:	8100                	0x8100
  1c:	0000                	unimp
  1e:	0000                	unimp
  20:	0016                	c.slli	zero,0x5
  22:	0000                	unimp
  24:	0000                	unimp
  26:	0000                	unimp
  28:	0e42                	slli	t3,t3,0x10
  2a:	4410                	lw	a2,8(s0)
  2c:	0281                	addi	t0,t0,0
  2e:	0488                	addi	a0,sp,576
  30:	0c42                	slli	s8,s8,0x10
  32:	0008                	0x8
  34:	c148                	sw	a0,4(a0)
  36:	c842                	sw	a6,16(sp)
  38:	020c                	addi	a1,sp,256
  3a:	4210                	lw	a2,0(a2)
  3c:	000e                	c.slli	zero,0x3
  3e:	0000                	unimp
  40:	002c                	addi	a1,sp,8
  42:	0000                	unimp
  44:	0000                	unimp
  46:	0000                	unimp
  48:	0016                	c.slli	zero,0x5
  4a:	8100                	0x8100
  4c:	0000                	unimp
  4e:	0000                	unimp
  50:	0014                	0x14
  52:	0000                	unimp
  54:	0000                	unimp
  56:	0000                	unimp
  58:	0e42                	slli	t3,t3,0x10
  5a:	4410                	lw	a2,8(s0)
  5c:	0281                	addi	t0,t0,0
  5e:	0488                	addi	a0,sp,576
  60:	0c42                	slli	s8,s8,0x10
  62:	0008                	0x8
  64:	c146                	sw	a7,128(sp)
  66:	c842                	sw	a6,16(sp)
  68:	020c                	addi	a1,sp,256
  6a:	4210                	lw	a2,0(a2)
  6c:	000e                	c.slli	zero,0x3
  6e:	0000                	unimp
  70:	002c                	addi	a1,sp,8
  72:	0000                	unimp
  74:	0000                	unimp
  76:	0000                	unimp
  78:	002a                	c.slli	zero,0xa
  7a:	8100                	0x8100
  7c:	0000                	unimp
  7e:	0000                	unimp
  80:	0014                	0x14
  82:	0000                	unimp
  84:	0000                	unimp
  86:	0000                	unimp
  88:	0e42                	slli	t3,t3,0x10
  8a:	4410                	lw	a2,8(s0)
  8c:	0281                	addi	t0,t0,0
  8e:	0488                	addi	a0,sp,576
  90:	0c42                	slli	s8,s8,0x10
  92:	0008                	0x8
  94:	c146                	sw	a7,128(sp)
  96:	c842                	sw	a6,16(sp)
  98:	020c                	addi	a1,sp,256
  9a:	4210                	lw	a2,0(a2)
  9c:	000e                	c.slli	zero,0x3
  9e:	0000                	unimp
  a0:	002c                	addi	a1,sp,8
  a2:	0000                	unimp
  a4:	0000                	unimp
  a6:	0000                	unimp
  a8:	003e                	c.slli	zero,0xf
  aa:	8100                	0x8100
  ac:	0000                	unimp
  ae:	0000                	unimp
  b0:	0014                	0x14
  b2:	0000                	unimp
  b4:	0000                	unimp
  b6:	0000                	unimp
  b8:	0e42                	slli	t3,t3,0x10
  ba:	4410                	lw	a2,8(s0)
  bc:	0281                	addi	t0,t0,0
  be:	0488                	addi	a0,sp,576
  c0:	0c42                	slli	s8,s8,0x10
  c2:	0008                	0x8
  c4:	c146                	sw	a7,128(sp)
  c6:	c842                	sw	a6,16(sp)
  c8:	020c                	addi	a1,sp,256
  ca:	4210                	lw	a2,0(a2)
  cc:	000e                	c.slli	zero,0x3
  ce:	0000                	unimp
  d0:	002c                	addi	a1,sp,8
  d2:	0000                	unimp
  d4:	0000                	unimp
  d6:	0000                	unimp
  d8:	0052                	c.slli	zero,0x14
  da:	8100                	0x8100
  dc:	0000                	unimp
  de:	0000                	unimp
  e0:	0014                	0x14
  e2:	0000                	unimp
  e4:	0000                	unimp
  e6:	0000                	unimp
  e8:	0e42                	slli	t3,t3,0x10
  ea:	4410                	lw	a2,8(s0)
  ec:	0281                	addi	t0,t0,0
  ee:	0488                	addi	a0,sp,576
  f0:	0c42                	slli	s8,s8,0x10
  f2:	0008                	0x8
  f4:	c146                	sw	a7,128(sp)
  f6:	c842                	sw	a6,16(sp)
  f8:	020c                	addi	a1,sp,256
  fa:	4210                	lw	a2,0(a2)
  fc:	000e                	c.slli	zero,0x3
  fe:	0000                	unimp
 100:	002c                	addi	a1,sp,8
 102:	0000                	unimp
 104:	0000                	unimp
 106:	0000                	unimp
 108:	0066                	c.slli	zero,0x19
 10a:	8100                	0x8100
 10c:	0000                	unimp
 10e:	0000                	unimp
 110:	0014                	0x14
 112:	0000                	unimp
 114:	0000                	unimp
 116:	0000                	unimp
 118:	0e42                	slli	t3,t3,0x10
 11a:	4410                	lw	a2,8(s0)
 11c:	0281                	addi	t0,t0,0
 11e:	0488                	addi	a0,sp,576
 120:	0c42                	slli	s8,s8,0x10
 122:	0008                	0x8
 124:	c146                	sw	a7,128(sp)
 126:	c842                	sw	a6,16(sp)
 128:	020c                	addi	a1,sp,256
 12a:	4210                	lw	a2,0(a2)
 12c:	000e                	c.slli	zero,0x3
 12e:	0000                	unimp
 130:	002c                	addi	a1,sp,8
 132:	0000                	unimp
 134:	0000                	unimp
 136:	0000                	unimp
 138:	007a                	c.slli	zero,0x1e
 13a:	8100                	0x8100
 13c:	0000                	unimp
 13e:	0000                	unimp
 140:	0014                	0x14
 142:	0000                	unimp
 144:	0000                	unimp
 146:	0000                	unimp
 148:	0e42                	slli	t3,t3,0x10
 14a:	4410                	lw	a2,8(s0)
 14c:	0281                	addi	t0,t0,0
 14e:	0488                	addi	a0,sp,576
 150:	0c42                	slli	s8,s8,0x10
 152:	0008                	0x8
 154:	c146                	sw	a7,128(sp)
 156:	c842                	sw	a6,16(sp)
 158:	020c                	addi	a1,sp,256
 15a:	4210                	lw	a2,0(a2)
 15c:	000e                	c.slli	zero,0x3
 15e:	0000                	unimp
 160:	002c                	addi	a1,sp,8
 162:	0000                	unimp
 164:	0000                	unimp
 166:	0000                	unimp
 168:	008e                	slli	ra,ra,0x3
 16a:	8100                	0x8100
 16c:	0000                	unimp
 16e:	0000                	unimp
 170:	0014                	0x14
 172:	0000                	unimp
 174:	0000                	unimp
 176:	0000                	unimp
 178:	0e42                	slli	t3,t3,0x10
 17a:	4410                	lw	a2,8(s0)
 17c:	0281                	addi	t0,t0,0
 17e:	0488                	addi	a0,sp,576
 180:	0c42                	slli	s8,s8,0x10
 182:	0008                	0x8
 184:	c146                	sw	a7,128(sp)
 186:	c842                	sw	a6,16(sp)
 188:	020c                	addi	a1,sp,256
 18a:	4210                	lw	a2,0(a2)
 18c:	000e                	c.slli	zero,0x3
 18e:	0000                	unimp
 190:	002c                	addi	a1,sp,8
 192:	0000                	unimp
 194:	0000                	unimp
 196:	0000                	unimp
 198:	00a2                	slli	ra,ra,0x8
 19a:	8100                	0x8100
 19c:	0000                	unimp
 19e:	0000                	unimp
 1a0:	0028                	addi	a0,sp,8
 1a2:	0000                	unimp
 1a4:	0000                	unimp
 1a6:	0000                	unimp
 1a8:	0e42                	slli	t3,t3,0x10
 1aa:	4410                	lw	a2,8(s0)
 1ac:	0281                	addi	t0,t0,0
 1ae:	0488                	addi	a0,sp,576
 1b0:	0c42                	slli	s8,s8,0x10
 1b2:	0008                	0x8
 1b4:	c15a                	sw	s6,128(sp)
 1b6:	c842                	sw	a6,16(sp)
 1b8:	020c                	addi	a1,sp,256
 1ba:	4210                	lw	a2,0(a2)
 1bc:	000e                	c.slli	zero,0x3
 1be:	0000                	unimp
 1c0:	000c                	0xc
 1c2:	0000                	unimp
 1c4:	ffff                	0xffff
 1c6:	ffff                	0xffff
 1c8:	7c010003          	lb	zero,1984(sp)
 1cc:	0d01                	addi	s10,s10,0
 1ce:	0002                	c.slli64	zero
 1d0:	002c                	addi	a1,sp,8
 1d2:	0000                	unimp
 1d4:	01c0                	addi	s0,sp,196
 1d6:	0000                	unimp
 1d8:	00ca                	slli	ra,ra,0x12
 1da:	8100                	0x8100
 1dc:	0000                	unimp
 1de:	0000                	unimp
 1e0:	0018                	0x18
 1e2:	0000                	unimp
 1e4:	0000                	unimp
 1e6:	0000                	unimp
 1e8:	0e42                	slli	t3,t3,0x10
 1ea:	4220                	lw	s0,64(a2)
 1ec:	0288                	addi	a0,sp,320
 1ee:	0c42                	slli	s8,s8,0x10
 1f0:	0008                	0x8
 1f2:	c84e                	sw	s3,16(sp)
 1f4:	020c                	addi	a1,sp,256
 1f6:	4220                	lw	s0,64(a2)
 1f8:	000e                	c.slli	zero,0x3
 1fa:	0000                	unimp
 1fc:	0000                	unimp
 1fe:	0000                	unimp
 200:	0034                	addi	a3,sp,8
 202:	0000                	unimp
 204:	01c0                	addi	s0,sp,196
 206:	0000                	unimp
 208:	00e2                	slli	ra,ra,0x18
 20a:	8100                	0x8100
 20c:	0000                	unimp
 20e:	0000                	unimp
 210:	0062                	c.slli	zero,0x18
 212:	0000                	unimp
 214:	0000                	unimp
 216:	0000                	unimp
 218:	0e42                	slli	t3,t3,0x10
 21a:	02e0                	addi	s0,sp,332
 21c:	8144                	0x8144
 21e:	8812                	mv	a6,tp
 220:	4214                	lw	a3,0(a2)
 222:	080c                	addi	a1,sp,16
 224:	0240                	addi	s0,sp,260
 226:	0a4e                	slli	s4,s4,0x13
 228:	42c1                	li	t0,16
 22a:	0cc8                	addi	a0,sp,596
 22c:	e002                	sd	zero,0(sp)
 22e:	4202                	lw	tp,0(sp)
 230:	000e                	c.slli	zero,0x3
 232:	0b42                	slli	s6,s6,0x10
 234:	0000                	unimp
 236:	0000                	unimp
 238:	002c                	addi	a1,sp,8
 23a:	0000                	unimp
 23c:	01c0                	addi	s0,sp,196
 23e:	0000                	unimp
 240:	0144                	addi	s1,sp,132
 242:	8100                	0x8100
 244:	0000                	unimp
 246:	0000                	unimp
 248:	0026                	c.slli	zero,0x9
 24a:	0000                	unimp
 24c:	0000                	unimp
 24e:	0000                	unimp
 250:	0e42                	slli	t3,t3,0x10
 252:	4410                	lw	a2,8(s0)
 254:	0281                	addi	t0,t0,0
 256:	0488                	addi	a0,sp,576
 258:	0c42                	slli	s8,s8,0x10
 25a:	0008                	0x8
 25c:	c158                	sw	a4,4(a0)
 25e:	c842                	sw	a6,16(sp)
 260:	020c                	addi	a1,sp,256
 262:	4210                	lw	a2,0(a2)
 264:	000e                	c.slli	zero,0x3
 266:	0000                	unimp
 268:	002c                	addi	a1,sp,8
 26a:	0000                	unimp
 26c:	01c0                	addi	s0,sp,196
 26e:	0000                	unimp
 270:	016a                	slli	sp,sp,0x1a
 272:	8100                	0x8100
 274:	0000                	unimp
 276:	0000                	unimp
 278:	0026                	c.slli	zero,0x9
 27a:	0000                	unimp
 27c:	0000                	unimp
 27e:	0000                	unimp
 280:	0e42                	slli	t3,t3,0x10
 282:	4410                	lw	a2,8(s0)
 284:	0281                	addi	t0,t0,0
 286:	0488                	addi	a0,sp,576
 288:	0c42                	slli	s8,s8,0x10
 28a:	0008                	0x8
 28c:	c158                	sw	a4,4(a0)
 28e:	c842                	sw	a6,16(sp)
 290:	020c                	addi	a1,sp,256
 292:	4210                	lw	a2,0(a2)
 294:	000e                	c.slli	zero,0x3
 296:	0000                	unimp
 298:	000c                	0xc
 29a:	0000                	unimp
 29c:	ffff                	0xffff
 29e:	ffff                	0xffff
 2a0:	7c010003          	lb	zero,1984(sp)
 2a4:	0d01                	addi	s10,s10,0
 2a6:	0002                	c.slli64	zero
 2a8:	002c                	addi	a1,sp,8
 2aa:	0000                	unimp
 2ac:	0298                	addi	a4,sp,320
 2ae:	0000                	unimp
 2b0:	0190                	addi	a2,sp,192
 2b2:	8100                	0x8100
 2b4:	0000                	unimp
 2b6:	0000                	unimp
 2b8:	0202                	c.slli64	tp
 2ba:	0000                	unimp
 2bc:	0000                	unimp
 2be:	0000                	unimp
 2c0:	0e42                	slli	t3,t3,0x10
 2c2:	4220                	lw	s0,64(a2)
 2c4:	0288                	addi	a0,sp,320
 2c6:	0c42                	slli	s8,s8,0x10
 2c8:	0008                	0x8
 2ca:	0a01ec03          	lwu	s8,160(gp)
 2ce:	0cc8                	addi	a0,sp,596
 2d0:	2002                	fld	ft0,0(sp)
 2d2:	0e42                	slli	t3,t3,0x10
 2d4:	4200                	lw	s0,0(a2)
 2d6:	          	0xb

Disassembly of section .debug_loclists:

0000000000000000 <.debug_loclists>:
   0:	013e                	slli	sp,sp,0xf
   2:	0000                	unimp
   4:	0005                	c.nop	1
   6:	0008                	0x8
   8:	0000                	unimp
   a:	0000                	unimp
   c:	00016a07          	0x16a07
  10:	0081                	addi	ra,ra,0
  12:	0000                	unimp
  14:	8400                	0x8400
  16:	0001                	nop
  18:	0081                	addi	ra,ra,0
  1a:	0000                	unimp
  1c:	0100                	addi	s0,sp,128
  1e:	075a                	slli	a4,a4,0x16
  20:	0184                	addi	s1,sp,192
  22:	8100                	0x8100
  24:	0000                	unimp
  26:	0000                	unimp
  28:	0190                	addi	a2,sp,192
  2a:	8100                	0x8100
  2c:	0000                	unimp
  2e:	0000                	unimp
  30:	a304                	fsd	fs1,0(a4)
  32:	5a01                	li	s4,-32
  34:	009f 4407 0001      	0x14407009f
  3a:	0081                	addi	ra,ra,0
  3c:	0000                	unimp
  3e:	5e00                	lw	s0,56(a2)
  40:	0001                	nop
  42:	0081                	addi	ra,ra,0
  44:	0000                	unimp
  46:	0100                	addi	s0,sp,128
  48:	075a                	slli	a4,a4,0x16
  4a:	015e                	slli	sp,sp,0x17
  4c:	8100                	0x8100
  4e:	0000                	unimp
  50:	0000                	unimp
  52:	016a                	slli	sp,sp,0x1a
  54:	8100                	0x8100
  56:	0000                	unimp
  58:	0000                	unimp
  5a:	a304                	fsd	fs1,0(a4)
  5c:	5a01                	li	s4,-32
  5e:	009f e207 0000      	0xe207009f
  64:	0081                	addi	ra,ra,0
  66:	0000                	unimp
  68:	0e00                	addi	s0,sp,784
  6a:	0001                	nop
  6c:	0081                	addi	ra,ra,0
  6e:	0000                	unimp
  70:	0100                	addi	s0,sp,128
  72:	075a                	slli	a4,a4,0x16
  74:	010e                	slli	sp,sp,0x3
  76:	8100                	0x8100
  78:	0000                	unimp
  7a:	0000                	unimp
  7c:	0111                	addi	sp,sp,4
  7e:	8100                	0x8100
  80:	0000                	unimp
  82:	0000                	unimp
  84:	5c01                	li	s8,-32
  86:	00011107          	0x11107
  8a:	0081                	addi	ra,ra,0
  8c:	0000                	unimp
  8e:	4400                	lw	s0,8(s0)
  90:	0001                	nop
  92:	0081                	addi	ra,ra,0
  94:	0000                	unimp
  96:	0400                	addi	s0,sp,512
  98:	9f5a01a3          	sb	s5,-1565(s4)
  9c:	0700                	addi	s0,sp,896
  9e:	0112                	slli	sp,sp,0x4
  a0:	8100                	0x8100
  a2:	0000                	unimp
  a4:	0000                	unimp
  a6:	0132                	slli	sp,sp,0xc
  a8:	8100                	0x8100
  aa:	0000                	unimp
  ac:	0000                	unimp
  ae:	5a01                	li	s4,-32
  b0:	00013e07          	fld	ft8,0(sp)
  b4:	0081                	addi	ra,ra,0
  b6:	0000                	unimp
  b8:	4400                	lw	s0,8(s0)
  ba:	0001                	nop
  bc:	0081                	addi	ra,ra,0
  be:	0000                	unimp
  c0:	0100                	addi	s0,sp,128
  c2:	005a                	c.slli	zero,0x16
  c4:	00011207          	0x11207
  c8:	0081                	addi	ra,ra,0
  ca:	0000                	unimp
  cc:	2e00                	fld	fs0,24(a2)
  ce:	0001                	nop
  d0:	0081                	addi	ra,ra,0
  d2:	0000                	unimp
  d4:	0400                	addi	s0,sp,512
  d6:	a891                	j	12a <f8-0x80fffed6>
  d8:	9f7d                	0x9f7d
  da:	00012e07          	flw	ft8,0(sp)
  de:	0081                	addi	ra,ra,0
  e0:	0000                	unimp
  e2:	3500                	fld	fs0,40(a0)
  e4:	0001                	nop
  e6:	0081                	addi	ra,ra,0
  e8:	0000                	unimp
  ea:	0100                	addi	s0,sp,128
  ec:	0135075b          	0x135075b
  f0:	8100                	0x8100
  f2:	0000                	unimp
  f4:	0000                	unimp
  f6:	0144                	addi	s1,sp,132
  f8:	8100                	0x8100
  fa:	0000                	unimp
  fc:	0000                	unimp
  fe:	9104                	0x9104
 100:	7da8                	ld	a0,120(a1)
 102:	009f 2007 0001      	0x12007009f
 108:	0081                	addi	ra,ra,0
 10a:	0000                	unimp
 10c:	3500                	fld	fs0,40(a0)
 10e:	0001                	nop
 110:	0081                	addi	ra,ra,0
 112:	0000                	unimp
 114:	0100                	addi	s0,sp,128
 116:	005c                	addi	a5,sp,4
 118:	0000ca07          	flq	fs4,0(ra)
 11c:	0081                	addi	ra,ra,0
 11e:	0000                	unimp
 120:	dc00                	sw	s0,56(s0)
 122:	0000                	unimp
 124:	0081                	addi	ra,ra,0
 126:	0000                	unimp
 128:	0100                	addi	s0,sp,128
 12a:	075a                	slli	a4,a4,0x16
 12c:	00dc                	addi	a5,sp,68
 12e:	8100                	0x8100
 130:	0000                	unimp
 132:	0000                	unimp
 134:	00e2                	slli	ra,ra,0x18
 136:	8100                	0x8100
 138:	0000                	unimp
 13a:	0000                	unimp
 13c:	a304                	fsd	fs1,0(a4)
 13e:	5a01                	li	s4,-32
 140:	009f 05e1 0000      	0x5e1009f
 146:	0005                	c.nop	1
 148:	0008                	0x8
 14a:	0000                	unimp
 14c:	0000                	unimp
 14e:	00019007          	0x19007
 152:	0081                	addi	ra,ra,0
 154:	0000                	unimp
 156:	7800                	ld	s0,48(s0)
 158:	00810003          	lb	zero,8(sp)
 15c:	0000                	unimp
 15e:	0100                	addi	s0,sp,128
 160:	075a                	slli	a4,a4,0x16
 162:	0378                	addi	a4,sp,396
 164:	8100                	0x8100
 166:	0000                	unimp
 168:	0000                	unimp
 16a:	0386                	slli	t2,t2,0x1
 16c:	8100                	0x8100
 16e:	0000                	unimp
 170:	0000                	unimp
 172:	a304                	fsd	fs1,0(a4)
 174:	5a01                	li	s4,-32
 176:	079f 0386 8100      	0x81000386079f
 17c:	0000                	unimp
 17e:	0000                	unimp
 180:	038c                	addi	a1,sp,448
 182:	8100                	0x8100
 184:	0000                	unimp
 186:	0000                	unimp
 188:	5a01                	li	s4,-32
 18a:	00038c07          	0x38c07
 18e:	0081                	addi	ra,ra,0
 190:	0000                	unimp
 192:	9200                	0x9200
 194:	00810003          	lb	zero,8(sp)
 198:	0000                	unimp
 19a:	0400                	addi	s0,sp,512
 19c:	9f5a01a3          	sb	s5,-1565(s4)
 1a0:	0700                	addi	s0,sp,896
 1a2:	0190                	addi	a2,sp,192
 1a4:	8100                	0x8100
 1a6:	0000                	unimp
 1a8:	0000                	unimp
 1aa:	037c                	addi	a5,sp,396
 1ac:	8100                	0x8100
 1ae:	0000                	unimp
 1b0:	0000                	unimp
 1b2:	5b01                	li	s6,-32
 1b4:	00037c07          	0x37c07
 1b8:	0081                	addi	ra,ra,0
 1ba:	0000                	unimp
 1bc:	8600                	0x8600
 1be:	00810003          	lb	zero,8(sp)
 1c2:	0000                	unimp
 1c4:	0400                	addi	s0,sp,512
 1c6:	9f5b01a3          	sb	s5,-1565(s6)
 1ca:	00038607          	0x38607
 1ce:	0081                	addi	ra,ra,0
 1d0:	0000                	unimp
 1d2:	8a00                	0x8a00
 1d4:	00810003          	lb	zero,8(sp)
 1d8:	0000                	unimp
 1da:	0100                	addi	s0,sp,128
 1dc:	038a075b          	0x38a075b
 1e0:	8100                	0x8100
 1e2:	0000                	unimp
 1e4:	0000                	unimp
 1e6:	0392                	slli	t2,t2,0x4
 1e8:	8100                	0x8100
 1ea:	0000                	unimp
 1ec:	0000                	unimp
 1ee:	9f017b03          	0x9f017b03
 1f2:	0700                	addi	s0,sp,896
 1f4:	0190                	addi	a2,sp,192
 1f6:	8100                	0x8100
 1f8:	0000                	unimp
 1fa:	0000                	unimp
 1fc:	0344                	addi	s1,sp,388
 1fe:	8100                	0x8100
 200:	0000                	unimp
 202:	0000                	unimp
 204:	5c01                	li	s8,-32
 206:	00034407          	flq	fs0,0(t1) # ffffffffffffa000 <vsnprintf+0xffffffff7eff9e70>
 20a:	0081                	addi	ra,ra,0
 20c:	0000                	unimp
 20e:	9200                	0x9200
 210:	00810003          	lb	zero,8(sp)
 214:	0000                	unimp
 216:	0100                	addi	s0,sp,128
 218:	005c                	addi	a5,sp,4
 21a:	00019007          	0x19007
 21e:	0081                	addi	ra,ra,0
 220:	0000                	unimp
 222:	a000                	fsd	fs0,0(s0)
 224:	0001                	nop
 226:	0081                	addi	ra,ra,0
 228:	0000                	unimp
 22a:	0100                	addi	s0,sp,128
 22c:	075d                	addi	a4,a4,23
 22e:	01a0                	addi	s0,sp,200
 230:	8100                	0x8100
 232:	0000                	unimp
 234:	0000                	unimp
 236:	01a2                	slli	gp,gp,0x8
 238:	8100                	0x8100
 23a:	0000                	unimp
 23c:	0000                	unimp
 23e:	7802                	ld	a6,32(sp)
 240:	0768                	addi	a0,sp,908
 242:	01a2                	slli	gp,gp,0x8
 244:	8100                	0x8100
 246:	0000                	unimp
 248:	0000                	unimp
 24a:	0392                	slli	t2,t2,0x4
 24c:	8100                	0x8100
 24e:	0000                	unimp
 250:	0000                	unimp
 252:	a304                	fsd	fs1,0(a4)
 254:	5d01                	li	s10,-32
 256:	009f 9a07 0001      	0x19a07009f
 25c:	0081                	addi	ra,ra,0
 25e:	0000                	unimp
 260:	a200                	fsd	fs0,0(a2)
 262:	0001                	nop
 264:	0081                	addi	ra,ra,0
 266:	0000                	unimp
 268:	0200                	addi	s0,sp,256
 26a:	9f30                	0x9f30
 26c:	0001a207          	flw	ft4,0(gp)
 270:	0081                	addi	ra,ra,0
 272:	0000                	unimp
 274:	c600                	sw	s0,8(a2)
 276:	0001                	nop
 278:	0081                	addi	ra,ra,0
 27a:	0000                	unimp
 27c:	0100                	addi	s0,sp,128
 27e:	075d                	addi	a4,a4,23
 280:	01dc                	addi	a5,sp,196
 282:	8100                	0x8100
 284:	0000                	unimp
 286:	0000                	unimp
 288:	01e2                	slli	gp,gp,0x18
 28a:	8100                	0x8100
 28c:	0000                	unimp
 28e:	0000                	unimp
 290:	5d01                	li	s10,-32
 292:	0001e407          	0x1e407
 296:	0081                	addi	ra,ra,0
 298:	0000                	unimp
 29a:	ec00                	sd	s0,24(s0)
 29c:	0001                	nop
 29e:	0081                	addi	ra,ra,0
 2a0:	0000                	unimp
 2a2:	0100                	addi	s0,sp,128
 2a4:	075d                	addi	a4,a4,23
 2a6:	0232                	slli	tp,tp,0xc
 2a8:	8100                	0x8100
 2aa:	0000                	unimp
 2ac:	0000                	unimp
 2ae:	023e                	slli	tp,tp,0xf
 2b0:	8100                	0x8100
 2b2:	0000                	unimp
 2b4:	0000                	unimp
 2b6:	5d01                	li	s10,-32
 2b8:	00025007          	0x25007
 2bc:	0081                	addi	ra,ra,0
 2be:	0000                	unimp
 2c0:	5800                	lw	s0,48(s0)
 2c2:	0002                	c.slli64	zero
 2c4:	0081                	addi	ra,ra,0
 2c6:	0000                	unimp
 2c8:	0100                	addi	s0,sp,128
 2ca:	075d                	addi	a4,a4,23
 2cc:	02bc                	addi	a5,sp,328
 2ce:	8100                	0x8100
 2d0:	0000                	unimp
 2d2:	0000                	unimp
 2d4:	02c2                	slli	t0,t0,0x10
 2d6:	8100                	0x8100
 2d8:	0000                	unimp
 2da:	0000                	unimp
 2dc:	3002                	fld	ft0,32(sp)
 2de:	079f 02c2 8100      	0x810002c2079f
 2e4:	0000                	unimp
 2e6:	0000                	unimp
 2e8:	02ca                	slli	t0,t0,0x12
 2ea:	8100                	0x8100
 2ec:	0000                	unimp
 2ee:	0000                	unimp
 2f0:	5d01                	li	s10,-32
 2f2:	0002f407          	0x2f407
 2f6:	0081                	addi	ra,ra,0
 2f8:	0000                	unimp
 2fa:	0000                	unimp
 2fc:	00810003          	lb	zero,8(sp)
 300:	0000                	unimp
 302:	0100                	addi	s0,sp,128
 304:	075d                	addi	a4,a4,23
 306:	031a                	slli	t1,t1,0x6
 308:	8100                	0x8100
 30a:	0000                	unimp
 30c:	0000                	unimp
 30e:	033e                	slli	t1,t1,0xf
 310:	8100                	0x8100
 312:	0000                	unimp
 314:	0000                	unimp
 316:	5d01                	li	s10,-32
 318:	00034007          	flq	ft0,0(t1)
 31c:	0081                	addi	ra,ra,0
 31e:	0000                	unimp
 320:	9200                	0x9200
 322:	00810003          	lb	zero,8(sp)
 326:	0000                	unimp
 328:	0100                	addi	s0,sp,128
 32a:	005d                	c.nop	23
 32c:	00019a07          	0x19a07
 330:	0081                	addi	ra,ra,0
 332:	0000                	unimp
 334:	a200                	fsd	fs0,0(a2)
 336:	0001                	nop
 338:	0081                	addi	ra,ra,0
 33a:	0000                	unimp
 33c:	0200                	addi	s0,sp,256
 33e:	9f30                	0x9f30
 340:	0001a207          	flw	ft4,0(gp)
 344:	0081                	addi	ra,ra,0
 346:	0000                	unimp
 348:	c600                	sw	s0,8(a2)
 34a:	0001                	nop
 34c:	0081                	addi	ra,ra,0
 34e:	0000                	unimp
 350:	0200                	addi	s0,sp,256
 352:	9f31                	addw	a4,a4,a2
 354:	0001dc07          	0x1dc07
 358:	0081                	addi	ra,ra,0
 35a:	0000                	unimp
 35c:	f800                	sd	s0,48(s0)
 35e:	0001                	nop
 360:	0081                	addi	ra,ra,0
 362:	0000                	unimp
 364:	0100                	addi	s0,sp,128
 366:	0756                	slli	a4,a4,0x15
 368:	0232                	slli	tp,tp,0xc
 36a:	8100                	0x8100
 36c:	0000                	unimp
 36e:	0000                	unimp
 370:	024e                	slli	tp,tp,0x13
 372:	8100                	0x8100
 374:	0000                	unimp
 376:	0000                	unimp
 378:	5601                	li	a2,-32
 37a:	00025007          	0x25007
 37e:	0081                	addi	ra,ra,0
 380:	0000                	unimp
 382:	8000                	0x8000
 384:	0002                	c.slli64	zero
 386:	0081                	addi	ra,ra,0
 388:	0000                	unimp
 38a:	0100                	addi	s0,sp,128
 38c:	0756                	slli	a4,a4,0x15
 38e:	02bc                	addi	a5,sp,328
 390:	8100                	0x8100
 392:	0000                	unimp
 394:	0000                	unimp
 396:	02c2                	slli	t0,t0,0x10
 398:	8100                	0x8100
 39a:	0000                	unimp
 39c:	0000                	unimp
 39e:	3002                	fld	ft0,32(sp)
 3a0:	079f 02c2 8100      	0x810002c2079f
 3a6:	0000                	unimp
 3a8:	0000                	unimp
 3aa:	02f0                	addi	a2,sp,332
 3ac:	8100                	0x8100
 3ae:	0000                	unimp
 3b0:	0000                	unimp
 3b2:	5601                	li	a2,-32
 3b4:	0002f407          	0x2f407
 3b8:	0081                	addi	ra,ra,0
 3ba:	0000                	unimp
 3bc:	1600                	addi	s0,sp,800
 3be:	00810003          	lb	zero,8(sp)
 3c2:	0000                	unimp
 3c4:	0100                	addi	s0,sp,128
 3c6:	0756                	slli	a4,a4,0x15
 3c8:	031a                	slli	t1,t1,0x6
 3ca:	8100                	0x8100
 3cc:	0000                	unimp
 3ce:	0000                	unimp
 3d0:	0336                	slli	t1,t1,0xd
 3d2:	8100                	0x8100
 3d4:	0000                	unimp
 3d6:	0000                	unimp
 3d8:	5601                	li	a2,-32
 3da:	00033807          	fld	fa6,0(t1)
 3de:	0081                	addi	ra,ra,0
 3e0:	0000                	unimp
 3e2:	3c00                	fld	fs0,56(s0)
 3e4:	00810003          	lb	zero,8(sp)
 3e8:	0000                	unimp
 3ea:	0100                	addi	s0,sp,128
 3ec:	0756                	slli	a4,a4,0x15
 3ee:	0340                	addi	s0,sp,388
 3f0:	8100                	0x8100
 3f2:	0000                	unimp
 3f4:	0000                	unimp
 3f6:	0392                	slli	t2,t2,0x4
 3f8:	8100                	0x8100
 3fa:	0000                	unimp
 3fc:	0000                	unimp
 3fe:	5601                	li	a2,-32
 400:	0700                	addi	s0,sp,896
 402:	019a                	slli	gp,gp,0x6
 404:	8100                	0x8100
 406:	0000                	unimp
 408:	0000                	unimp
 40a:	01a2                	slli	gp,gp,0x8
 40c:	8100                	0x8100
 40e:	0000                	unimp
 410:	0000                	unimp
 412:	3002                	fld	ft0,32(sp)
 414:	079f 01a2 8100      	0x810001a2079f
 41a:	0000                	unimp
 41c:	0000                	unimp
 41e:	01a6                	slli	gp,gp,0x9
 420:	8100                	0x8100
 422:	0000                	unimp
 424:	0000                	unimp
 426:	5f01                	li	t5,-32
 428:	0001a607          	flw	fa2,0(gp)
 42c:	0081                	addi	ra,ra,0
 42e:	0000                	unimp
 430:	b800                	fsd	fs0,48(s0)
 432:	0001                	nop
 434:	0081                	addi	ra,ra,0
 436:	0000                	unimp
 438:	0100                	addi	s0,sp,128
 43a:	075e                	slli	a4,a4,0x17
 43c:	01b8                	addi	a4,sp,200
 43e:	8100                	0x8100
 440:	0000                	unimp
 442:	0000                	unimp
 444:	01c6                	slli	gp,gp,0x11
 446:	8100                	0x8100
 448:	0000                	unimp
 44a:	0000                	unimp
 44c:	5f01                	li	t5,-32
 44e:	0001dc07          	0x1dc07
 452:	0081                	addi	ra,ra,0
 454:	0000                	unimp
 456:	f800                	sd	s0,48(s0)
 458:	0001                	nop
 45a:	0081                	addi	ra,ra,0
 45c:	0000                	unimp
 45e:	0100                	addi	s0,sp,128
 460:	075f 01f8 8100      	0x810001f8075f
 466:	0000                	unimp
 468:	0000                	unimp
 46a:	0206                	slli	tp,tp,0x1
 46c:	8100                	0x8100
 46e:	0000                	unimp
 470:	0000                	unimp
 472:	6001                	0x6001
 474:	00020607          	0x20607
 478:	0081                	addi	ra,ra,0
 47a:	0000                	unimp
 47c:	1800                	addi	s0,sp,48
 47e:	0002                	c.slli64	zero
 480:	0081                	addi	ra,ra,0
 482:	0000                	unimp
 484:	0100                	addi	s0,sp,128
 486:	075f 0218 8100      	0x81000218075f
 48c:	0000                	unimp
 48e:	0000                	unimp
 490:	0228                	addi	a0,sp,264
 492:	8100                	0x8100
 494:	0000                	unimp
 496:	0000                	unimp
 498:	6001                	0x6001
 49a:	00022c07          	flw	fs8,0(tp) # fffffffffffe1000 <vsnprintf+0xffffffff7efe0e70>
 49e:	0081                	addi	ra,ra,0
 4a0:	0000                	unimp
 4a2:	6a00                	ld	s0,16(a2)
 4a4:	0002                	c.slli64	zero
 4a6:	0081                	addi	ra,ra,0
 4a8:	0000                	unimp
 4aa:	0100                	addi	s0,sp,128
 4ac:	075f 026a 8100      	0x8100026a075f
 4b2:	0000                	unimp
 4b4:	0000                	unimp
 4b6:	0280                	addi	s0,sp,320
 4b8:	8100                	0x8100
 4ba:	0000                	unimp
 4bc:	0000                	unimp
 4be:	5e01                	li	t3,-32
 4c0:	00028007          	0x28007
 4c4:	0081                	addi	ra,ra,0
 4c6:	0000                	unimp
 4c8:	d200                	sw	s0,32(a2)
 4ca:	0002                	c.slli64	zero
 4cc:	0081                	addi	ra,ra,0
 4ce:	0000                	unimp
 4d0:	0100                	addi	s0,sp,128
 4d2:	075f 02d2 8100      	0x810002d2075f
 4d8:	0000                	unimp
 4da:	0000                	unimp
 4dc:	02d6                	slli	t0,t0,0x15
 4de:	8100                	0x8100
 4e0:	0000                	unimp
 4e2:	0000                	unimp
 4e4:	5d01                	li	s10,-32
 4e6:	0002d607          	0x2d607
 4ea:	0081                	addi	ra,ra,0
 4ec:	0000                	unimp
 4ee:	e200                	sd	s0,0(a2)
 4f0:	0002                	c.slli64	zero
 4f2:	0081                	addi	ra,ra,0
 4f4:	0000                	unimp
 4f6:	0100                	addi	s0,sp,128
 4f8:	075f 02e2 8100      	0x810002e2075f
 4fe:	0000                	unimp
 500:	0000                	unimp
 502:	02ee                	slli	t0,t0,0x1b
 504:	8100                	0x8100
 506:	0000                	unimp
 508:	0000                	unimp
 50a:	5d01                	li	s10,-32
 50c:	0002ee07          	0x2ee07
 510:	0081                	addi	ra,ra,0
 512:	0000                	unimp
 514:	f800                	sd	s0,48(s0)
 516:	0002                	c.slli64	zero
 518:	0081                	addi	ra,ra,0
 51a:	0000                	unimp
 51c:	0100                	addi	s0,sp,128
 51e:	075f 02f8 8100      	0x810002f8075f
 524:	0000                	unimp
 526:	0000                	unimp
 528:	031a                	slli	t1,t1,0x6
 52a:	8100                	0x8100
 52c:	0000                	unimp
 52e:	0000                	unimp
 530:	5e01                	li	t3,-32
 532:	00031a07          	0x31a07
 536:	0081                	addi	ra,ra,0
 538:	0000                	unimp
 53a:	2600                	fld	fs0,8(a2)
 53c:	00810003          	lb	zero,8(sp)
 540:	0000                	unimp
 542:	0100                	addi	s0,sp,128
 544:	075f 0326 8100      	0x81000326075f
 54a:	0000                	unimp
 54c:	0000                	unimp
 54e:	0334                	addi	a3,sp,392
 550:	8100                	0x8100
 552:	0000                	unimp
 554:	0000                	unimp
 556:	6001                	0x6001
 558:	00033407          	fld	fs0,0(t1)
 55c:	0081                	addi	ra,ra,0
 55e:	0000                	unimp
 560:	3800                	fld	fs0,48(s0)
 562:	00810003          	lb	zero,8(sp)
 566:	0000                	unimp
 568:	0100                	addi	s0,sp,128
 56a:	075f 0338 8100      	0x81000338075f
 570:	0000                	unimp
 572:	0000                	unimp
 574:	0340                	addi	s0,sp,388
 576:	8100                	0x8100
 578:	0000                	unimp
 57a:	0000                	unimp
 57c:	5e01                	li	t3,-32
 57e:	00034007          	flq	ft0,0(t1)
 582:	0081                	addi	ra,ra,0
 584:	0000                	unimp
 586:	6e00                	ld	s0,24(a2)
 588:	00810003          	lb	zero,8(sp)
 58c:	0000                	unimp
 58e:	0100                	addi	s0,sp,128
 590:	075f 036e 8100      	0x8100036e075f
 596:	0000                	unimp
 598:	0000                	unimp
 59a:	0372                	slli	t1,t1,0x1c
 59c:	8100                	0x8100
 59e:	0000                	unimp
 5a0:	0000                	unimp
 5a2:	6001                	0x6001
 5a4:	00037207          	0x37207
 5a8:	0081                	addi	ra,ra,0
 5aa:	0000                	unimp
 5ac:	9200                	0x9200
 5ae:	00810003          	lb	zero,8(sp)
 5b2:	0000                	unimp
 5b4:	0100                	addi	s0,sp,128
 5b6:	005f d607 0001      	0x1d607005f
 5bc:	0081                	addi	ra,ra,0
 5be:	0000                	unimp
 5c0:	dc00                	sw	s0,56(s0)
 5c2:	0001                	nop
 5c4:	0081                	addi	ra,ra,0
 5c6:	0000                	unimp
 5c8:	0100                	addi	s0,sp,128
 5ca:	0761                	addi	a4,a4,24
 5cc:	01f8                	addi	a4,sp,204
 5ce:	8100                	0x8100
 5d0:	0000                	unimp
 5d2:	0000                	unimp
 5d4:	0232                	slli	tp,tp,0xc
 5d6:	8100                	0x8100
 5d8:	0000                	unimp
 5da:	0000                	unimp
 5dc:	6101                	addi	sp,sp,0
 5de:	0700                	addi	s0,sp,896
 5e0:	01f8                	addi	a4,sp,204
 5e2:	8100                	0x8100
 5e4:	0000                	unimp
 5e6:	0000                	unimp
 5e8:	0204                	addi	s1,sp,256
 5ea:	8100                	0x8100
 5ec:	0000                	unimp
 5ee:	0000                	unimp
 5f0:	5d01                	li	s10,-32
 5f2:	00020607          	0x20607
 5f6:	0081                	addi	ra,ra,0
 5f8:	0000                	unimp
 5fa:	2800                	fld	fs0,16(s0)
 5fc:	0002                	c.slli64	zero
 5fe:	0081                	addi	ra,ra,0
 600:	0000                	unimp
 602:	0100                	addi	s0,sp,128
 604:	075d                	addi	a4,a4,23
 606:	022c                	addi	a1,sp,264
 608:	8100                	0x8100
 60a:	0000                	unimp
 60c:	0000                	unimp
 60e:	0230                	addi	a2,sp,264
 610:	8100                	0x8100
 612:	0000                	unimp
 614:	0000                	unimp
 616:	5d01                	li	s10,-32
 618:	0700                	addi	s0,sp,896
 61a:	01f8                	addi	a4,sp,204
 61c:	8100                	0x8100
 61e:	0000                	unimp
 620:	0000                	unimp
 622:	01fc                	addi	a5,sp,204
 624:	8100                	0x8100
 626:	0000                	unimp
 628:	0000                	unimp
 62a:	5e01                	li	t3,-32
 62c:	0001fc07          	0x1fc07
 630:	0081                	addi	ra,ra,0
 632:	0000                	unimp
 634:	0400                	addi	s0,sp,512
 636:	0002                	c.slli64	zero
 638:	0081                	addi	ra,ra,0
 63a:	0000                	unimp
 63c:	0d00                	addi	s0,sp,656
 63e:	0081                	addi	ra,ra,0
 640:	007d                	c.nop	31
 642:	2432                	fld	fs0,264(sp)
 644:	ff08                	sd	a0,56(a4)
 646:	261a                	fld	fa2,384(sp)
 648:	079f1a3f 81000214 	0x81000214079f1a3f
 650:	0000                	unimp
 652:	0000                	unimp
 654:	0226                	slli	tp,tp,0x9
 656:	8100                	0x8100
 658:	0000                	unimp
 65a:	0000                	unimp
 65c:	5e01                	li	t3,-32
 65e:	00022607          	flw	fa2,0(tp) # 0 <f8-0x81000000>
 662:	0081                	addi	ra,ra,0
 664:	0000                	unimp
 666:	2800                	fld	fs0,16(s0)
 668:	0002                	c.slli64	zero
 66a:	0081                	addi	ra,ra,0
 66c:	0000                	unimp
 66e:	0300                	addi	s0,sp,384
 670:	507e                	0x507e
 672:	009f 4607 0002      	0x24607009f
 678:	0081                	addi	ra,ra,0
 67a:	0000                	unimp
 67c:	5000                	lw	s0,32(s0)
 67e:	0002                	c.slli64	zero
 680:	0081                	addi	ra,ra,0
 682:	0000                	unimp
 684:	0100                	addi	s0,sp,128
 686:	0761                	addi	a4,a4,24
 688:	0262                	slli	tp,tp,0x18
 68a:	8100                	0x8100
 68c:	0000                	unimp
 68e:	0000                	unimp
 690:	02c2                	slli	t0,t0,0x10
 692:	8100                	0x8100
 694:	0000                	unimp
 696:	0000                	unimp
 698:	6101                	addi	sp,sp,0
 69a:	0700                	addi	s0,sp,896
 69c:	024a                	slli	tp,tp,0x12
 69e:	8100                	0x8100
 6a0:	0000                	unimp
 6a2:	0000                	unimp
 6a4:	0250                	addi	a2,sp,260
 6a6:	8100                	0x8100
 6a8:	0000                	unimp
 6aa:	0000                	unimp
 6ac:	3102                	fld	ft2,32(sp)
 6ae:	079f 0280 8100      	0x81000280079f
 6b4:	0000                	unimp
 6b6:	0000                	unimp
 6b8:	02be                	slli	t0,t0,0xf
 6ba:	8100                	0x8100
 6bc:	0000                	unimp
 6be:	0000                	unimp
 6c0:	5601                	li	a2,-32
 6c2:	0700                	addi	s0,sp,896
 6c4:	024a                	slli	tp,tp,0x12
 6c6:	8100                	0x8100
 6c8:	0000                	unimp
 6ca:	0000                	unimp
 6cc:	0250                	addi	a2,sp,260
 6ce:	8100                	0x8100
 6d0:	0000                	unimp
 6d2:	0000                	unimp
 6d4:	6101                	addi	sp,sp,0
 6d6:	00028007          	0x28007
 6da:	0081                	addi	ra,ra,0
 6dc:	0000                	unimp
 6de:	8e00                	0x8e00
 6e0:	0002                	c.slli64	zero
 6e2:	0081                	addi	ra,ra,0
 6e4:	0000                	unimp
 6e6:	0100                	addi	s0,sp,128
 6e8:	005e                	c.slli	zero,0x17
 6ea:	00028e07          	0x28e07
 6ee:	0081                	addi	ra,ra,0
 6f0:	0000                	unimp
 6f2:	9000                	0x9000
 6f4:	0002                	c.slli64	zero
 6f6:	0081                	addi	ra,ra,0
 6f8:	0000                	unimp
 6fa:	0300                	addi	s0,sp,384
 6fc:	7f76                	ld	t5,376(sp)
 6fe:	079f 0290 8100      	0x81000290079f
 704:	0000                	unimp
 706:	0000                	unimp
 708:	02c2                	slli	t0,t0,0x10
 70a:	8100                	0x8100
 70c:	0000                	unimp
 70e:	0000                	unimp
 710:	5e01                	li	t3,-32
 712:	0700                	addi	s0,sp,896
 714:	02d2                	slli	t0,t0,0x14
 716:	8100                	0x8100
 718:	0000                	unimp
 71a:	0000                	unimp
 71c:	02f4                	addi	a3,sp,332
 71e:	8100                	0x8100
 720:	0000                	unimp
 722:	0000                	unimp
 724:	5e01                	li	t3,-32
	...

Disassembly of section .debug_rnglists:

0000000000000000 <.debug_rnglists>:
   0:	00000093          	li	ra,0
   4:	0005                	c.nop	1
   6:	0008                	0x8
   8:	0000                	unimp
   a:	0000                	unimp
   c:	d606                	sw	ra,44(sp)
   e:	0001                	nop
  10:	0081                	addi	ra,ra,0
  12:	0000                	unimp
  14:	dc00                	sw	s0,56(s0)
  16:	0001                	nop
  18:	0081                	addi	ra,ra,0
  1a:	0000                	unimp
  1c:	0600                	addi	s0,sp,768
  1e:	01f8                	addi	a4,sp,204
  20:	8100                	0x8100
  22:	0000                	unimp
  24:	0000                	unimp
  26:	022c                	addi	a1,sp,264
  28:	8100                	0x8100
  2a:	0000                	unimp
  2c:	0000                	unimp
  2e:	0600                	addi	s0,sp,768
  30:	01f8                	addi	a4,sp,204
  32:	8100                	0x8100
  34:	0000                	unimp
  36:	0000                	unimp
  38:	0202                	c.slli64	tp
  3a:	8100                	0x8100
  3c:	0000                	unimp
  3e:	0000                	unimp
  40:	0406                	slli	s0,s0,0x1
  42:	0002                	c.slli64	zero
  44:	0081                	addi	ra,ra,0
  46:	0000                	unimp
  48:	0600                	addi	s0,sp,768
  4a:	0002                	c.slli64	zero
  4c:	0081                	addi	ra,ra,0
  4e:	0000                	unimp
  50:	0600                	addi	s0,sp,768
  52:	020a                	slli	tp,tp,0x2
  54:	8100                	0x8100
  56:	0000                	unimp
  58:	0000                	unimp
  5a:	0228                	addi	a0,sp,264
  5c:	8100                	0x8100
  5e:	0000                	unimp
  60:	0000                	unimp
  62:	0600                	addi	s0,sp,768
  64:	024a                	slli	tp,tp,0x12
  66:	8100                	0x8100
  68:	0000                	unimp
  6a:	0000                	unimp
  6c:	024c                	addi	a1,sp,260
  6e:	8100                	0x8100
  70:	0000                	unimp
  72:	0000                	unimp
  74:	4e06                	lw	t3,64(sp)
  76:	0002                	c.slli64	zero
  78:	0081                	addi	ra,ra,0
  7a:	0000                	unimp
  7c:	5000                	lw	s0,32(s0)
  7e:	0002                	c.slli64	zero
  80:	0081                	addi	ra,ra,0
  82:	0000                	unimp
  84:	0600                	addi	s0,sp,768
  86:	0280                	addi	s0,sp,320
  88:	8100                	0x8100
  8a:	0000                	unimp
  8c:	0000                	unimp
  8e:	028a                	slli	t0,t0,0x2
  90:	8100                	0x8100
  92:	0000                	unimp
  94:	0000                	unimp
	...
