
../obj/riscv-pke:     file format elf64-littleriscv


Disassembly of section .text:

0000000080000000 <elf_fpread>:
}

//
// actual file reading, using the spike file interface.
//
static uint64 elf_fpread(elf_ctx *ctx, void *dest, uint64 nb, uint64 offset) {
    80000000:	1141                	addi	sp,sp,-16
    80000002:	e406                	sd	ra,8(sp)
  elf_info *msg = (elf_info *)ctx->info;
    80000004:	611c                	ld	a5,0(a0)
  // call spike file utility to load the content of elf file into memory.
  // spike_file_pread will read the elf file (msg->f) from offset to memory (indicated by
  // *dest) for nb bytes.
  return spike_file_pread(msg->f, dest, nb, offset);
    80000006:	6388                	ld	a0,0(a5)
    80000008:	6a8040ef          	jal	ra,800046b0 <spike_file_pread>
}
    8000000c:	60a2                	ld	ra,8(sp)
    8000000e:	0141                	addi	sp,sp,16
    80000010:	8082                	ret

0000000080000012 <elf_alloc_mb>:
static void *elf_alloc_mb(elf_ctx *ctx, uint64 elf_pa, uint64 elf_va, uint64 size) {
    80000012:	1101                	addi	sp,sp,-32
    80000014:	ec06                	sd	ra,24(sp)
    80000016:	e822                	sd	s0,16(sp)
    80000018:	e426                	sd	s1,8(sp)
    8000001a:	e04a                	sd	s2,0(sp)
  elf_info *msg = (elf_info *)ctx->info;
    8000001c:	00053903          	ld	s2,0(a0)
  kassert(size < PGSIZE);
    80000020:	6785                	lui	a5,0x1
    80000022:	04f6f263          	bgeu	a3,a5,80000066 <elf_alloc_mb+0x54>
    80000026:	84b2                	mv	s1,a2
  void *pa = alloc_page();
    80000028:	77c000ef          	jal	ra,800007a4 <alloc_page>
    8000002c:	842a                	mv	s0,a0
  if (pa == 0) panic("uvmalloc mem alloc falied\n");
    8000002e:	c131                	beqz	a0,80000072 <elf_alloc_mb+0x60>
  memset((void *)pa, 0, PGSIZE);
    80000030:	6605                	lui	a2,0x1
    80000032:	4581                	li	a1,0
    80000034:	210040ef          	jal	ra,80004244 <memset>
  user_vm_map((pagetable_t)msg->p->pagetable, elf_va, PGSIZE, (uint64)pa,
    80000038:	00893783          	ld	a5,8(s2)
    8000003c:	0087b903          	ld	s2,8(a5) # 1008 <elf_fpread-0x7fffeff8>
         prot_to_type(PROT_WRITE | PROT_READ | PROT_EXEC, 1));
    80000040:	4585                	li	a1,1
    80000042:	451d                	li	a0,7
    80000044:	0dd030ef          	jal	ra,80003920 <prot_to_type>
  user_vm_map((pagetable_t)msg->p->pagetable, elf_va, PGSIZE, (uint64)pa,
    80000048:	0005071b          	sext.w	a4,a0
    8000004c:	86a2                	mv	a3,s0
    8000004e:	6605                	lui	a2,0x1
    80000050:	85a6                	mv	a1,s1
    80000052:	854a                	mv	a0,s2
    80000054:	327030ef          	jal	ra,80003b7a <user_vm_map>
}
    80000058:	8522                	mv	a0,s0
    8000005a:	60e2                	ld	ra,24(sp)
    8000005c:	6442                	ld	s0,16(sp)
    8000005e:	64a2                	ld	s1,8(sp)
    80000060:	6902                	ld	s2,0(sp)
    80000062:	6105                	addi	sp,sp,32
    80000064:	8082                	ret
  kassert(size < PGSIZE);
    80000066:	00007517          	auipc	a0,0x7
    8000006a:	1b250513          	addi	a0,a0,434 # 80007218 <rfs_i_ops+0x188>
    8000006e:	537040ef          	jal	ra,80004da4 <kassert_fail>
  if (pa == 0) panic("uvmalloc mem alloc falied\n");
    80000072:	00007517          	auipc	a0,0x7
    80000076:	1b650513          	addi	a0,a0,438 # 80007228 <rfs_i_ops+0x198>
    8000007a:	50b040ef          	jal	ra,80004d84 <do_panic>

000000008000007e <parse_args>:

//
// returns the number (should be 1) of string(s) after PKE kernel in command line.
// and store the string(s) in arg_bug_msg.
//
static size_t parse_args(arg_buf *arg_bug_msg) {
    8000007e:	1141                	addi	sp,sp,-16
    80000080:	e406                	sd	ra,8(sp)
    80000082:	e022                	sd	s0,0(sp)
    80000084:	842a                	mv	s0,a0
  // HTIFSYS_getmainvars frontend call reads command arguments to (input) *arg_bug_msg
  long r = frontend_syscall(HTIFSYS_getmainvars, (uint64)arg_bug_msg,
    80000086:	4881                	li	a7,0
    80000088:	4801                	li	a6,0
    8000008a:	4781                	li	a5,0
    8000008c:	4701                	li	a4,0
    8000008e:	4681                	li	a3,0
    80000090:	20000613          	li	a2,512
    80000094:	85aa                	mv	a1,a0
    80000096:	7db00513          	li	a0,2011
    8000009a:	343040ef          	jal	ra,80004bdc <frontend_syscall>
      sizeof(*arg_bug_msg), 0, 0, 0, 0, 0);
  kassert(r == 0);
    8000009e:	e511                	bnez	a0,800000aa <parse_args+0x2c>

  size_t pk_argc = arg_bug_msg->buf[0];
    800000a0:	6008                	ld	a0,0(s0)
  uint64 *pk_argv = &arg_bug_msg->buf[1];
    800000a2:	00840613          	addi	a2,s0,8

  int arg = 1;  // skip the PKE OS kernel string, leave behind only the application name
  for (size_t i = 0; arg + i < pk_argc; i++)
    800000a6:	4781                	li	a5,0
    800000a8:	a839                	j	800000c6 <parse_args+0x48>
  kassert(r == 0);
    800000aa:	00007517          	auipc	a0,0x7
    800000ae:	19e50513          	addi	a0,a0,414 # 80007248 <rfs_i_ops+0x1b8>
    800000b2:	4f3040ef          	jal	ra,80004da4 <kassert_fail>
    arg_bug_msg->argv[i] = (char *)(uintptr_t)pk_argv[arg + i];
    800000b6:	00371693          	slli	a3,a4,0x3
    800000ba:	96b2                	add	a3,a3,a2
    800000bc:	6294                	ld	a3,0(a3)
    800000be:	078e                	slli	a5,a5,0x3
    800000c0:	97a2                	add	a5,a5,s0
    800000c2:	e394                	sd	a3,0(a5)
  for (size_t i = 0; arg + i < pk_argc; i++)
    800000c4:	87ba                	mv	a5,a4
    800000c6:	00178713          	addi	a4,a5,1
    800000ca:	fea766e3          	bltu	a4,a0,800000b6 <parse_args+0x38>

  //returns the number of strings after PKE kernel in command line
  return pk_argc - arg;
}
    800000ce:	157d                	addi	a0,a0,-1
    800000d0:	60a2                	ld	ra,8(sp)
    800000d2:	6402                	ld	s0,0(sp)
    800000d4:	0141                	addi	sp,sp,16
    800000d6:	8082                	ret

00000000800000d8 <elf_init>:
elf_status elf_init(elf_ctx *ctx, void *info) {
    800000d8:	1141                	addi	sp,sp,-16
    800000da:	e406                	sd	ra,8(sp)
    800000dc:	e022                	sd	s0,0(sp)
    800000de:	842a                	mv	s0,a0
  ctx->info = info;
    800000e0:	e10c                	sd	a1,0(a0)
  if (elf_fpread(ctx, &ctx->ehdr, sizeof(ctx->ehdr), 0) != sizeof(ctx->ehdr)) return EL_EIO;
    800000e2:	4681                	li	a3,0
    800000e4:	04000613          	li	a2,64
    800000e8:	00850593          	addi	a1,a0,8
    800000ec:	f15ff0ef          	jal	ra,80000000 <elf_fpread>
    800000f0:	04000793          	li	a5,64
    800000f4:	00f51b63          	bne	a0,a5,8000010a <elf_init+0x32>
  if (ctx->ehdr.magic != ELF_MAGIC) return EL_NOTELF;
    800000f8:	4418                	lw	a4,8(s0)
    800000fa:	464c47b7          	lui	a5,0x464c4
    800000fe:	57f78793          	addi	a5,a5,1407 # 464c457f <elf_fpread-0x39b3ba81>
    80000102:	00f71963          	bne	a4,a5,80000114 <elf_init+0x3c>
  return EL_OK;
    80000106:	4501                	li	a0,0
    80000108:	a011                	j	8000010c <elf_init+0x34>
  if (elf_fpread(ctx, &ctx->ehdr, sizeof(ctx->ehdr), 0) != sizeof(ctx->ehdr)) return EL_EIO;
    8000010a:	4505                	li	a0,1
}
    8000010c:	60a2                	ld	ra,8(sp)
    8000010e:	6402                	ld	s0,0(sp)
    80000110:	0141                	addi	sp,sp,16
    80000112:	8082                	ret
  if (ctx->ehdr.magic != ELF_MAGIC) return EL_NOTELF;
    80000114:	450d                	li	a0,3
    80000116:	bfdd                	j	8000010c <elf_init+0x34>

0000000080000118 <elf_load>:
elf_status elf_load(elf_ctx *ctx) {
    80000118:	7159                	addi	sp,sp,-112
    8000011a:	f486                	sd	ra,104(sp)
    8000011c:	f0a2                	sd	s0,96(sp)
    8000011e:	eca6                	sd	s1,88(sp)
    80000120:	e8ca                	sd	s2,80(sp)
    80000122:	e4ce                	sd	s3,72(sp)
    80000124:	842a                	mv	s0,a0
  for (i = 0, off = ctx->ehdr.phoff; i < ctx->ehdr.phnum; i++, off += sizeof(ph_addr)) {
    80000126:	02852903          	lw	s2,40(a0)
    8000012a:	4481                	li	s1,0
    8000012c:	a891                	j	80000180 <elf_load+0x68>
    ((process*)(((elf_info*)(ctx->info))->p))->mapped_info[j].va = ph_addr.vaddr;
    8000012e:	601c                	ld	a5,0(s0)
    80000130:	679c                	ld	a5,8(a5)
    80000132:	6f98                	ld	a4,24(a5)
    80000134:	00459793          	slli	a5,a1,0x4
    80000138:	973e                	add	a4,a4,a5
    8000013a:	66e2                	ld	a3,24(sp)
    8000013c:	e314                	sd	a3,0(a4)
    ((process*)(((elf_info*)(ctx->info))->p))->mapped_info[j].npages = 1;
    8000013e:	6018                	ld	a4,0(s0)
    80000140:	6718                	ld	a4,8(a4)
    80000142:	6f18                	ld	a4,24(a4)
    80000144:	973e                	add	a4,a4,a5
    80000146:	4685                	li	a3,1
    80000148:	c714                	sw	a3,8(a4)
    if( ph_addr.flags == (SEGMENT_READABLE|SEGMENT_EXECUTABLE) ){
    8000014a:	4732                	lw	a4,12(sp)
    8000014c:	4695                	li	a3,5
    8000014e:	0ad70363          	beq	a4,a3,800001f4 <elf_load+0xdc>
    }else if ( ph_addr.flags == (SEGMENT_READABLE|SEGMENT_WRITABLE) ){
    80000152:	4699                	li	a3,6
    80000154:	0ad71d63          	bne	a4,a3,8000020e <elf_load+0xf6>
      ((process*)(((elf_info*)(ctx->info))->p))->mapped_info[j].seg_type = DATA_SEGMENT;
    80000158:	6018                	ld	a4,0(s0)
    8000015a:	6718                	ld	a4,8(a4)
    8000015c:	6f18                	ld	a4,24(a4)
    8000015e:	97ba                	add	a5,a5,a4
    80000160:	4715                	li	a4,5
    80000162:	c7d8                	sw	a4,12(a5)
      sprint( "DATA_SEGMENT added at mapped info offset:%d\n", j );
    80000164:	00007517          	auipc	a0,0x7
    80000168:	11c50513          	addi	a0,a0,284 # 80007280 <rfs_i_ops+0x1f0>
    8000016c:	375040ef          	jal	ra,80004ce0 <sprint>
    ((process*)(((elf_info*)(ctx->info))->p))->total_mapped_region ++;
    80000170:	601c                	ld	a5,0(s0)
    80000172:	6798                	ld	a4,8(a5)
    80000174:	531c                	lw	a5,32(a4)
    80000176:	2785                	addiw	a5,a5,1
    80000178:	d31c                	sw	a5,32(a4)
  for (i = 0, off = ctx->ehdr.phoff; i < ctx->ehdr.phnum; i++, off += sizeof(ph_addr)) {
    8000017a:	2485                	addiw	s1,s1,1
    8000017c:	0389091b          	addiw	s2,s2,56
    80000180:	04045783          	lhu	a5,64(s0)
    80000184:	08f4dc63          	bge	s1,a5,8000021c <elf_load+0x104>
    if (elf_fpread(ctx, (void *)&ph_addr, sizeof(ph_addr), off) != sizeof(ph_addr)) return EL_EIO;
    80000188:	86ca                	mv	a3,s2
    8000018a:	03800613          	li	a2,56
    8000018e:	002c                	addi	a1,sp,8
    80000190:	8522                	mv	a0,s0
    80000192:	e6fff0ef          	jal	ra,80000000 <elf_fpread>
    80000196:	03800793          	li	a5,56
    8000019a:	08f51a63          	bne	a0,a5,8000022e <elf_load+0x116>
    if (ph_addr.type != ELF_PROG_LOAD) continue;
    8000019e:	49a2                	lw	s3,8(sp)
    800001a0:	4785                	li	a5,1
    800001a2:	fcf99ce3          	bne	s3,a5,8000017a <elf_load+0x62>
    if (ph_addr.memsz < ph_addr.filesz) return EL_ERR;
    800001a6:	76c2                	ld	a3,48(sp)
    800001a8:	77a2                	ld	a5,40(sp)
    800001aa:	08f6e463          	bltu	a3,a5,80000232 <elf_load+0x11a>
    if (ph_addr.vaddr + ph_addr.memsz < ph_addr.vaddr) return EL_ERR;
    800001ae:	65e2                	ld	a1,24(sp)
    800001b0:	00b687b3          	add	a5,a3,a1
    800001b4:	08b7e163          	bltu	a5,a1,80000236 <elf_load+0x11e>
    void *dest = elf_alloc_mb(ctx, ph_addr.vaddr, ph_addr.vaddr, ph_addr.memsz);
    800001b8:	862e                	mv	a2,a1
    800001ba:	8522                	mv	a0,s0
    800001bc:	e57ff0ef          	jal	ra,80000012 <elf_alloc_mb>
    800001c0:	85aa                	mv	a1,a0
    if (elf_fpread(ctx, dest, ph_addr.memsz, ph_addr.off) != ph_addr.memsz)
    800001c2:	66c2                	ld	a3,16(sp)
    800001c4:	7642                	ld	a2,48(sp)
    800001c6:	8522                	mv	a0,s0
    800001c8:	e39ff0ef          	jal	ra,80000000 <elf_fpread>
    800001cc:	77c2                	ld	a5,48(sp)
    800001ce:	04f51863          	bne	a0,a5,8000021e <elf_load+0x106>
    for( j=0; j<PGSIZE/sizeof(mapped_region); j++ ) //seek the last mapped region
    800001d2:	4581                	li	a1,0
    800001d4:	0005879b          	sext.w	a5,a1
    800001d8:	0ff00713          	li	a4,255
    800001dc:	f4f769e3          	bltu	a4,a5,8000012e <elf_load+0x16>
      if( (process*)(((elf_info*)(ctx->info))->p)->mapped_info[j].va == 0x0 ) break;
    800001e0:	601c                	ld	a5,0(s0)
    800001e2:	679c                	ld	a5,8(a5)
    800001e4:	6f9c                	ld	a5,24(a5)
    800001e6:	00459713          	slli	a4,a1,0x4
    800001ea:	97ba                	add	a5,a5,a4
    800001ec:	639c                	ld	a5,0(a5)
    800001ee:	d3a1                	beqz	a5,8000012e <elf_load+0x16>
    for( j=0; j<PGSIZE/sizeof(mapped_region); j++ ) //seek the last mapped region
    800001f0:	2585                	addiw	a1,a1,1
    800001f2:	b7cd                	j	800001d4 <elf_load+0xbc>
      ((process*)(((elf_info*)(ctx->info))->p))->mapped_info[j].seg_type = CODE_SEGMENT;
    800001f4:	6018                	ld	a4,0(s0)
    800001f6:	6718                	ld	a4,8(a4)
    800001f8:	6f18                	ld	a4,24(a4)
    800001fa:	97ba                	add	a5,a5,a4
    800001fc:	4711                	li	a4,4
    800001fe:	c7d8                	sw	a4,12(a5)
      sprint( "CODE_SEGMENT added at mapped info offset:%d\n", j );
    80000200:	00007517          	auipc	a0,0x7
    80000204:	05050513          	addi	a0,a0,80 # 80007250 <rfs_i_ops+0x1c0>
    80000208:	2d9040ef          	jal	ra,80004ce0 <sprint>
    8000020c:	b795                	j	80000170 <elf_load+0x58>
      panic( "unknown program segment encountered, segment flag:%d.\n", ph_addr.flags );
    8000020e:	85ba                	mv	a1,a4
    80000210:	00007517          	auipc	a0,0x7
    80000214:	0a050513          	addi	a0,a0,160 # 800072b0 <rfs_i_ops+0x220>
    80000218:	36d040ef          	jal	ra,80004d84 <do_panic>
  return EL_OK;
    8000021c:	4981                	li	s3,0
}
    8000021e:	854e                	mv	a0,s3
    80000220:	70a6                	ld	ra,104(sp)
    80000222:	7406                	ld	s0,96(sp)
    80000224:	64e6                	ld	s1,88(sp)
    80000226:	6946                	ld	s2,80(sp)
    80000228:	69a6                	ld	s3,72(sp)
    8000022a:	6165                	addi	sp,sp,112
    8000022c:	8082                	ret
    if (elf_fpread(ctx, (void *)&ph_addr, sizeof(ph_addr), off) != sizeof(ph_addr)) return EL_EIO;
    8000022e:	4985                	li	s3,1
    80000230:	b7fd                	j	8000021e <elf_load+0x106>
    if (ph_addr.memsz < ph_addr.filesz) return EL_ERR;
    80000232:	4991                	li	s3,4
    80000234:	b7ed                	j	8000021e <elf_load+0x106>
    if (ph_addr.vaddr + ph_addr.memsz < ph_addr.vaddr) return EL_ERR;
    80000236:	4991                	li	s3,4
    80000238:	b7dd                	j	8000021e <elf_load+0x106>

000000008000023a <load_bincode_from_host_elf>:

//
// load the elf of user application, by using the spike file interface.
//
void load_bincode_from_host_elf(process *p) {
    8000023a:	d9010113          	addi	sp,sp,-624
    8000023e:	26113423          	sd	ra,616(sp)
    80000242:	26813023          	sd	s0,608(sp)
    80000246:	842a                	mv	s0,a0
  arg_buf arg_bug_msg;

  // retrieve command line arguements
  size_t argc = parse_args(&arg_bug_msg);
    80000248:	1088                	addi	a0,sp,96
    8000024a:	e35ff0ef          	jal	ra,8000007e <parse_args>
  if (!argc) panic("You need to specify the application program!\n");
    8000024e:	c525                	beqz	a0,800002b6 <load_bincode_from_host_elf+0x7c>

  sprint("Application: %s\n", arg_bug_msg.argv[0]);
    80000250:	7586                	ld	a1,96(sp)
    80000252:	00007517          	auipc	a0,0x7
    80000256:	0c650513          	addi	a0,a0,198 # 80007318 <rfs_i_ops+0x288>
    8000025a:	287040ef          	jal	ra,80004ce0 <sprint>
  //elf loading. elf_ctx is defined in kernel/elf.h, used to track the loading process.
  elf_ctx elfloader;
  // elf_info is defined above, used to tie the elf file and its corresponding process.
  elf_info info;

  info.f = spike_file_open(arg_bug_msg.argv[0], O_RDONLY, 0);
    8000025e:	4601                	li	a2,0
    80000260:	4581                	li	a1,0
    80000262:	7506                	ld	a0,96(sp)
    80000264:	434040ef          	jal	ra,80004698 <spike_file_open>
    80000268:	e42a                	sd	a0,8(sp)
  // REMOVE: 
  // sprint("lgm: main file: %s\n", arg_bug_msg.argv[0]);
  info.p = p;
    8000026a:	e822                	sd	s0,16(sp)
  // IS_ERR_VALUE is a macro defined in spike_interface/spike_htif.h
  if (IS_ERR_VALUE(info.f)) panic("Fail on openning the input application program.\n");
    8000026c:	77fd                	lui	a5,0xfffff
    8000026e:	04f57a63          	bgeu	a0,a5,800002c2 <load_bincode_from_host_elf+0x88>

  // init elfloader context. elf_init() is defined above.
  if (elf_init(&elfloader, &info) != EL_OK)
    80000272:	002c                	addi	a1,sp,8
    80000274:	0828                	addi	a0,sp,24
    80000276:	e63ff0ef          	jal	ra,800000d8 <elf_init>
    8000027a:	2501                	sext.w	a0,a0
    8000027c:	e929                	bnez	a0,800002ce <load_bincode_from_host_elf+0x94>
    panic("fail to init elfloader.\n");

  // load elf. elf_load() is defined above.
  if (elf_load(&elfloader) != EL_OK) panic("Fail on loading elf.\n");
    8000027e:	0828                	addi	a0,sp,24
    80000280:	e99ff0ef          	jal	ra,80000118 <elf_load>
    80000284:	2501                	sext.w	a0,a0
    80000286:	e931                	bnez	a0,800002da <load_bincode_from_host_elf+0xa0>

  // entry (virtual, also physical in lab1_x) address
  p->trapframe->epc = elfloader.ehdr.entry;
    80000288:	681c                	ld	a5,16(s0)
    8000028a:	7762                	ld	a4,56(sp)
    8000028c:	10e7b423          	sd	a4,264(a5) # fffffffffffff108 <_end+0xffffffff7ffee108>

  // close the host spike file
  spike_file_close( info.f );
    80000290:	6522                	ld	a0,8(sp)
    80000292:	2a0040ef          	jal	ra,80004532 <spike_file_close>

  sprint("Application program entry point (virtual address): 0x%lx\n", p->trapframe->epc);
    80000296:	681c                	ld	a5,16(s0)
    80000298:	1087b583          	ld	a1,264(a5)
    8000029c:	00007517          	auipc	a0,0x7
    800002a0:	10450513          	addi	a0,a0,260 # 800073a0 <rfs_i_ops+0x310>
    800002a4:	23d040ef          	jal	ra,80004ce0 <sprint>
}
    800002a8:	26813083          	ld	ra,616(sp)
    800002ac:	26013403          	ld	s0,608(sp)
    800002b0:	27010113          	addi	sp,sp,624
    800002b4:	8082                	ret
  if (!argc) panic("You need to specify the application program!\n");
    800002b6:	00007517          	auipc	a0,0x7
    800002ba:	03250513          	addi	a0,a0,50 # 800072e8 <rfs_i_ops+0x258>
    800002be:	2c7040ef          	jal	ra,80004d84 <do_panic>
  if (IS_ERR_VALUE(info.f)) panic("Fail on openning the input application program.\n");
    800002c2:	00007517          	auipc	a0,0x7
    800002c6:	06e50513          	addi	a0,a0,110 # 80007330 <rfs_i_ops+0x2a0>
    800002ca:	2bb040ef          	jal	ra,80004d84 <do_panic>
    panic("fail to init elfloader.\n");
    800002ce:	00007517          	auipc	a0,0x7
    800002d2:	09a50513          	addi	a0,a0,154 # 80007368 <rfs_i_ops+0x2d8>
    800002d6:	2af040ef          	jal	ra,80004d84 <do_panic>
  if (elf_load(&elfloader) != EL_OK) panic("Fail on loading elf.\n");
    800002da:	00007517          	auipc	a0,0x7
    800002de:	0ae50513          	addi	a0,a0,174 # 80007388 <rfs_i_ops+0x2f8>
    800002e2:	2a3040ef          	jal	ra,80004d84 <do_panic>

00000000800002e6 <hostfs_write_back_vinode>:
  vinode->i_fs_info = NULL;
  vinode->i_ops = &hostfs_i_ops;
  return vinode;
}

int hostfs_write_back_vinode(struct vinode *vinode) { return 0; }
    800002e6:	4501                	li	a0,0
    800002e8:	8082                	ret

00000000800002ea <hostfs_link>:
    return 0;
  return -1;
}

int hostfs_link(struct vinode *parent, struct dentry *sub_dentry,
                struct vinode *link_node) {
    800002ea:	1141                	addi	sp,sp,-16
    800002ec:	e406                	sd	ra,8(sp)
  panic("hostfs_link not implemented!\n");
    800002ee:	00007517          	auipc	a0,0x7
    800002f2:	0f250513          	addi	a0,a0,242 # 800073e0 <rfs_i_ops+0x350>
    800002f6:	28f040ef          	jal	ra,80004d84 <do_panic>

00000000800002fa <hostfs_unlink>:
  return -1;
}

int hostfs_unlink(struct vinode *parent, struct dentry *sub_dentry, struct vinode *unlink_node) {
    800002fa:	1141                	addi	sp,sp,-16
    800002fc:	e406                	sd	ra,8(sp)
  panic("hostfs_unlink not implemented!\n");
    800002fe:	00007517          	auipc	a0,0x7
    80000302:	10250513          	addi	a0,a0,258 # 80007400 <rfs_i_ops+0x370>
    80000306:	27f040ef          	jal	ra,80004d84 <do_panic>

000000008000030a <hostfs_readdir>:
  return -1;
}

int hostfs_readdir(struct vinode *dir_vinode, struct dir *dir, int *offset) {
    8000030a:	1141                	addi	sp,sp,-16
    8000030c:	e406                	sd	ra,8(sp)
  panic("hostfs_readdir not implemented!\n");
    8000030e:	00007517          	auipc	a0,0x7
    80000312:	11a50513          	addi	a0,a0,282 # 80007428 <rfs_i_ops+0x398>
    80000316:	26f040ef          	jal	ra,80004d84 <do_panic>

000000008000031a <hostfs_mkdir>:
  return -1;
}

struct vinode *hostfs_mkdir(struct vinode *parent, struct dentry *sub_dentry) {
    8000031a:	1141                	addi	sp,sp,-16
    8000031c:	e406                	sd	ra,8(sp)
  panic("hostfs_mkdir not implemented!\n");
    8000031e:	00007517          	auipc	a0,0x7
    80000322:	13250513          	addi	a0,a0,306 # 80007450 <rfs_i_ops+0x3c0>
    80000326:	25f040ef          	jal	ra,80004d84 <do_panic>

000000008000032a <hostfs_read>:
                    int *offset) {
    8000032a:	1101                	addi	sp,sp,-32
    8000032c:	ec06                	sd	ra,24(sp)
    8000032e:	e822                	sd	s0,16(sp)
    80000330:	e426                	sd	s1,8(sp)
    80000332:	e04a                	sd	s2,0(sp)
    80000334:	84b6                	mv	s1,a3
  spike_file_t *pf = (spike_file_t *)f_inode->i_fs_info;
    80000336:	04053903          	ld	s2,64(a0)
  int read_len = spike_file_read(pf, r_buf, len);
    8000033a:	854a                	mv	a0,s2
    8000033c:	394040ef          	jal	ra,800046d0 <spike_file_read>
    80000340:	0005041b          	sext.w	s0,a0
  *offset = spike_file_lseek(pf, 0, 1);
    80000344:	4605                	li	a2,1
    80000346:	4581                	li	a1,0
    80000348:	854a                	mv	a0,s2
    8000034a:	3a6040ef          	jal	ra,800046f0 <spike_file_lseek>
    8000034e:	c088                	sw	a0,0(s1)
}
    80000350:	8522                	mv	a0,s0
    80000352:	60e2                	ld	ra,24(sp)
    80000354:	6442                	ld	s0,16(sp)
    80000356:	64a2                	ld	s1,8(sp)
    80000358:	6902                	ld	s2,0(sp)
    8000035a:	6105                	addi	sp,sp,32
    8000035c:	8082                	ret

000000008000035e <hostfs_lseek>:
                  int *offset) {
    8000035e:	1141                	addi	sp,sp,-16
    80000360:	e406                	sd	ra,8(sp)
    80000362:	e022                	sd	s0,0(sp)
    80000364:	8436                	mv	s0,a3
  *offset = spike_file_lseek(f, new_offset, whence);
    80000366:	6128                	ld	a0,64(a0)
    80000368:	388040ef          	jal	ra,800046f0 <spike_file_lseek>
    8000036c:	2501                	sext.w	a0,a0
    8000036e:	c008                	sw	a0,0(s0)
  if (*offset >= 0)
    80000370:	00054763          	bltz	a0,8000037e <hostfs_lseek+0x20>
    return 0;
    80000374:	4501                	li	a0,0
}
    80000376:	60a2                	ld	ra,8(sp)
    80000378:	6402                	ld	s0,0(sp)
    8000037a:	0141                	addi	sp,sp,16
    8000037c:	8082                	ret
  return -1;
    8000037e:	557d                	li	a0,-1
    80000380:	bfdd                	j	80000376 <hostfs_lseek+0x18>

0000000080000382 <hostfs_write>:
                     int *offset) {
    80000382:	1101                	addi	sp,sp,-32
    80000384:	ec06                	sd	ra,24(sp)
    80000386:	e822                	sd	s0,16(sp)
    80000388:	e426                	sd	s1,8(sp)
    8000038a:	e04a                	sd	s2,0(sp)
    8000038c:	84b6                	mv	s1,a3
  spike_file_t *pf = (spike_file_t *)f_inode->i_fs_info;
    8000038e:	04053903          	ld	s2,64(a0)
  int write_len = spike_file_write(pf, w_buf, len);
    80000392:	854a                	mv	a0,s2
    80000394:	212040ef          	jal	ra,800045a6 <spike_file_write>
    80000398:	0005041b          	sext.w	s0,a0
  *offset = spike_file_lseek(pf, 0, 1);
    8000039c:	4605                	li	a2,1
    8000039e:	4581                	li	a1,0
    800003a0:	854a                	mv	a0,s2
    800003a2:	34e040ef          	jal	ra,800046f0 <spike_file_lseek>
    800003a6:	c088                	sw	a0,0(s1)
}
    800003a8:	8522                	mv	a0,s0
    800003aa:	60e2                	ld	ra,24(sp)
    800003ac:	6442                	ld	s0,16(sp)
    800003ae:	64a2                	ld	s1,8(sp)
    800003b0:	6902                	ld	s2,0(sp)
    800003b2:	6105                	addi	sp,sp,32
    800003b4:	8082                	ret

00000000800003b6 <hostfs_hook_close>:
}

//
// close a hostfs file.
//
int hostfs_hook_close(struct vinode *f_inode, struct dentry *dentry) {
    800003b6:	1141                	addi	sp,sp,-16
    800003b8:	e406                	sd	ra,8(sp)
  spike_file_t *f = (spike_file_t *)f_inode->i_fs_info;
  spike_file_close(f);
    800003ba:	6128                	ld	a0,64(a0)
    800003bc:	176040ef          	jal	ra,80004532 <spike_file_close>
  return 0;
}
    800003c0:	4501                	li	a0,0
    800003c2:	60a2                	ld	ra,8(sp)
    800003c4:	0141                	addi	sp,sp,16
    800003c6:	8082                	ret

00000000800003c8 <register_hostfs>:
int register_hostfs() {
    800003c8:	1141                	addi	sp,sp,-16
    800003ca:	e406                	sd	ra,8(sp)
  struct file_system_type *fs_type = (struct file_system_type *)alloc_page();
    800003cc:	3d8000ef          	jal	ra,800007a4 <alloc_page>
  fs_type->type_num = HOSTFS_TYPE;
    800003d0:	4785                	li	a5,1
    800003d2:	c11c                	sw	a5,0(a0)
  fs_type->get_superblock = hostfs_get_superblock;
    800003d4:	00000797          	auipc	a5,0x0
    800003d8:	19078793          	addi	a5,a5,400 # 80000564 <hostfs_get_superblock>
    800003dc:	e51c                	sd	a5,8(a0)
  for (int i = 0; i < MAX_SUPPORTED_FS; i++) {
    800003de:	4781                	li	a5,0
    800003e0:	4725                	li	a4,9
    800003e2:	02f74663          	blt	a4,a5,8000040e <register_hostfs+0x46>
    if (fs_list[i] == NULL) {
    800003e6:	00379693          	slli	a3,a5,0x3
    800003ea:	0000d717          	auipc	a4,0xd
    800003ee:	02670713          	addi	a4,a4,38 # 8000d410 <fs_list>
    800003f2:	9736                	add	a4,a4,a3
    800003f4:	6318                	ld	a4,0(a4)
    800003f6:	c319                	beqz	a4,800003fc <register_hostfs+0x34>
  for (int i = 0; i < MAX_SUPPORTED_FS; i++) {
    800003f8:	2785                	addiw	a5,a5,1
    800003fa:	b7dd                	j	800003e0 <register_hostfs+0x18>
      fs_list[i] = fs_type;
    800003fc:	0000d717          	auipc	a4,0xd
    80000400:	01470713          	addi	a4,a4,20 # 8000d410 <fs_list>
    80000404:	00d707b3          	add	a5,a4,a3
    80000408:	e388                	sd	a0,0(a5)
      return 0;
    8000040a:	4501                	li	a0,0
    8000040c:	a011                	j	80000410 <register_hostfs+0x48>
  return -1;
    8000040e:	557d                	li	a0,-1
}
    80000410:	60a2                	ld	ra,8(sp)
    80000412:	0141                	addi	sp,sp,16
    80000414:	8082                	ret

0000000080000416 <init_host_device>:
struct device *init_host_device(char *name) {
    80000416:	1101                	addi	sp,sp,-32
    80000418:	ec06                	sd	ra,24(sp)
    8000041a:	e822                	sd	s0,16(sp)
    8000041c:	e426                	sd	s1,8(sp)
    8000041e:	e04a                	sd	s2,0(sp)
    80000420:	892a                	mv	s2,a0
  for (int i = 0; i < MAX_SUPPORTED_FS; i++) {
    80000422:	4781                	li	a5,0
    80000424:	a011                	j	80000428 <init_host_device+0x12>
    80000426:	2785                	addiw	a5,a5,1
    80000428:	4725                	li	a4,9
    8000042a:	02f74063          	blt	a4,a5,8000044a <init_host_device+0x34>
    if (fs_list[i] != NULL && fs_list[i]->type_num == HOSTFS_TYPE) {
    8000042e:	00379693          	slli	a3,a5,0x3
    80000432:	0000d717          	auipc	a4,0xd
    80000436:	fde70713          	addi	a4,a4,-34 # 8000d410 <fs_list>
    8000043a:	9736                	add	a4,a4,a3
    8000043c:	6300                	ld	s0,0(a4)
    8000043e:	d465                	beqz	s0,80000426 <init_host_device+0x10>
    80000440:	4014                	lw	a3,0(s0)
    80000442:	4705                	li	a4,1
    80000444:	fee691e3          	bne	a3,a4,80000426 <init_host_device+0x10>
    80000448:	a011                	j	8000044c <init_host_device+0x36>
  struct file_system_type *fs_type = NULL;
    8000044a:	4401                	li	s0,0
  if (!fs_type)
    8000044c:	c80d                	beqz	s0,8000047e <init_host_device+0x68>
  struct device *device = (struct device *)alloc_page();
    8000044e:	356000ef          	jal	ra,800007a4 <alloc_page>
    80000452:	84aa                	mv	s1,a0
  strcpy(device->dev_name, name);
    80000454:	85ca                	mv	a1,s2
    80000456:	65d030ef          	jal	ra,800042b2 <strcpy>
  device->dev_id = 0;
    8000045a:	0204a023          	sw	zero,32(s1)
  device->fs_type = fs_type;
    8000045e:	f480                	sd	s0,40(s1)
  for (int i = 0; i < MAX_VFS_DEV; i++) {
    80000460:	4781                	li	a5,0
    80000462:	4725                	li	a4,9
    80000464:	02f74a63          	blt	a4,a5,80000498 <init_host_device+0x82>
    if (vfs_dev_list[i] == NULL) {
    80000468:	00379693          	slli	a3,a5,0x3
    8000046c:	0000d717          	auipc	a4,0xd
    80000470:	f0470713          	addi	a4,a4,-252 # 8000d370 <vfs_dev_list>
    80000474:	9736                	add	a4,a4,a3
    80000476:	6318                	ld	a4,0(a4)
    80000478:	cb09                	beqz	a4,8000048a <init_host_device+0x74>
  for (int i = 0; i < MAX_VFS_DEV; i++) {
    8000047a:	2785                	addiw	a5,a5,1
    8000047c:	b7dd                	j	80000462 <init_host_device+0x4c>
    panic("init_host_device: No HOSTFS file system found!\n");
    8000047e:	00007517          	auipc	a0,0x7
    80000482:	ff250513          	addi	a0,a0,-14 # 80007470 <rfs_i_ops+0x3e0>
    80000486:	0ff040ef          	jal	ra,80004d84 <do_panic>
      vfs_dev_list[i] = device;
    8000048a:	0000d717          	auipc	a4,0xd
    8000048e:	ee670713          	addi	a4,a4,-282 # 8000d370 <vfs_dev_list>
    80000492:	00d707b3          	add	a5,a4,a3
    80000496:	e384                	sd	s1,0(a5)
}
    80000498:	8526                	mv	a0,s1
    8000049a:	60e2                	ld	ra,24(sp)
    8000049c:	6442                	ld	s0,16(sp)
    8000049e:	64a2                	ld	s1,8(sp)
    800004a0:	6902                	ld	s2,0(sp)
    800004a2:	6105                	addi	sp,sp,32
    800004a4:	8082                	ret

00000000800004a6 <path_backtrack>:
void path_backtrack(char *path, struct dentry *dentry) {
    800004a6:	1101                	addi	sp,sp,-32
    800004a8:	ec06                	sd	ra,24(sp)
    800004aa:	e822                	sd	s0,16(sp)
    800004ac:	e426                	sd	s1,8(sp)
    800004ae:	84ae                	mv	s1,a1
  if (dentry->parent == NULL) {
    800004b0:	798c                	ld	a1,48(a1)
    800004b2:	cd99                	beqz	a1,800004d0 <path_backtrack+0x2a>
    800004b4:	842a                	mv	s0,a0
  path_backtrack(path, dentry->parent);
    800004b6:	ff1ff0ef          	jal	ra,800004a6 <path_backtrack>
  strcat(path, "/");
    800004ba:	00007597          	auipc	a1,0x7
    800004be:	fee58593          	addi	a1,a1,-18 # 800074a8 <rfs_i_ops+0x418>
    800004c2:	8522                	mv	a0,s0
    800004c4:	69f030ef          	jal	ra,80004362 <strcat>
  strcat(path, dentry->name);
    800004c8:	85a6                	mv	a1,s1
    800004ca:	8522                	mv	a0,s0
    800004cc:	697030ef          	jal	ra,80004362 <strcat>
}
    800004d0:	60e2                	ld	ra,24(sp)
    800004d2:	6442                	ld	s0,16(sp)
    800004d4:	64a2                	ld	s1,8(sp)
    800004d6:	6105                	addi	sp,sp,32
    800004d8:	8082                	ret

00000000800004da <get_path_string>:
void get_path_string(char *path, struct dentry *dentry) {
    800004da:	1101                	addi	sp,sp,-32
    800004dc:	ec06                	sd	ra,24(sp)
    800004de:	e822                	sd	s0,16(sp)
    800004e0:	e426                	sd	s1,8(sp)
    800004e2:	842a                	mv	s0,a0
    800004e4:	84ae                	mv	s1,a1
  strcpy(path, H_ROOT_DIR);
    800004e6:	00007597          	auipc	a1,0x7
    800004ea:	fca58593          	addi	a1,a1,-54 # 800074b0 <rfs_i_ops+0x420>
    800004ee:	5c5030ef          	jal	ra,800042b2 <strcpy>
  path_backtrack(path, dentry);
    800004f2:	85a6                	mv	a1,s1
    800004f4:	8522                	mv	a0,s0
    800004f6:	fb1ff0ef          	jal	ra,800004a6 <path_backtrack>
}
    800004fa:	60e2                	ld	ra,24(sp)
    800004fc:	6442                	ld	s0,16(sp)
    800004fe:	64a2                	ld	s1,8(sp)
    80000500:	6105                	addi	sp,sp,32
    80000502:	8082                	ret

0000000080000504 <hostfs_hook_open>:
  if (f_inode->i_fs_info != NULL) return 0;
    80000504:	613c                	ld	a5,64(a0)
    80000506:	c399                	beqz	a5,8000050c <hostfs_hook_open+0x8>
    80000508:	4501                	li	a0,0
}
    8000050a:	8082                	ret
int hostfs_hook_open(struct vinode *f_inode, struct dentry *f_dentry) {
    8000050c:	7179                	addi	sp,sp,-48
    8000050e:	f406                	sd	ra,40(sp)
    80000510:	f022                	sd	s0,32(sp)
    80000512:	842a                	mv	s0,a0
  get_path_string(path, f_dentry);
    80000514:	850a                	mv	a0,sp
    80000516:	fc5ff0ef          	jal	ra,800004da <get_path_string>
  spike_file_t *f = spike_file_open(path, O_RDWR, 0);
    8000051a:	4601                	li	a2,0
    8000051c:	4589                	li	a1,2
    8000051e:	850a                	mv	a0,sp
    80000520:	178040ef          	jal	ra,80004698 <spike_file_open>
  if ((int64)f < 0) {
    80000524:	00054863          	bltz	a0,80000534 <hostfs_hook_open+0x30>
  f_inode->i_fs_info = f;
    80000528:	e028                	sd	a0,64(s0)
  return 0;
    8000052a:	4501                	li	a0,0
}
    8000052c:	70a2                	ld	ra,40(sp)
    8000052e:	7402                	ld	s0,32(sp)
    80000530:	6145                	addi	sp,sp,48
    80000532:	8082                	ret
    sprint("hostfs_hook_open cannot open the given file.\n");
    80000534:	00007517          	auipc	a0,0x7
    80000538:	f8c50513          	addi	a0,a0,-116 # 800074c0 <rfs_i_ops+0x430>
    8000053c:	7a4040ef          	jal	ra,80004ce0 <sprint>
    return -1;
    80000540:	557d                	li	a0,-1
    80000542:	b7ed                	j	8000052c <hostfs_hook_open+0x28>

0000000080000544 <hostfs_alloc_vinode>:
struct vinode *hostfs_alloc_vinode(struct super_block *sb) {
    80000544:	1141                	addi	sp,sp,-16
    80000546:	e406                	sd	ra,8(sp)
  struct vinode *vinode = default_alloc_vinode(sb);
    80000548:	3ae030ef          	jal	ra,800038f6 <default_alloc_vinode>
  vinode->inum = -1; 
    8000054c:	577d                	li	a4,-1
    8000054e:	c118                	sw	a4,0(a0)
  vinode->i_fs_info = NULL;
    80000550:	04053023          	sd	zero,64(a0)
  vinode->i_ops = &hostfs_i_ops;
    80000554:	00007717          	auipc	a4,0x7
    80000558:	aac70713          	addi	a4,a4,-1364 # 80007000 <hostfs_i_ops>
    8000055c:	e938                	sd	a4,80(a0)
}
    8000055e:	60a2                	ld	ra,8(sp)
    80000560:	0141                	addi	sp,sp,16
    80000562:	8082                	ret

0000000080000564 <hostfs_get_superblock>:

/**** vfs-hostfs file system type interface functions ****/
struct super_block *hostfs_get_superblock(struct device *dev) {
    80000564:	1101                	addi	sp,sp,-32
    80000566:	ec06                	sd	ra,24(sp)
    80000568:	e822                	sd	s0,16(sp)
    8000056a:	e426                	sd	s1,8(sp)
    8000056c:	84aa                	mv	s1,a0
  // set the data for the vfs super block
  struct super_block *sb = alloc_page();
    8000056e:	236000ef          	jal	ra,800007a4 <alloc_page>
    80000572:	842a                	mv	s0,a0
  sb->s_dev = dev;
    80000574:	ed04                	sd	s1,24(a0)

  struct vinode *root_inode = hostfs_alloc_vinode(sb);
    80000576:	fcfff0ef          	jal	ra,80000544 <hostfs_alloc_vinode>
    8000057a:	85aa                	mv	a1,a0
  root_inode->type = H_DIR;
    8000057c:	4785                	li	a5,1
    8000057e:	c55c                	sw	a5,12(a0)

  struct dentry *root_dentry = alloc_vfs_dentry("/", root_inode, NULL);
    80000580:	4601                	li	a2,0
    80000582:	00007517          	auipc	a0,0x7
    80000586:	f2650513          	addi	a0,a0,-218 # 800074a8 <rfs_i_ops+0x418>
    8000058a:	3b7020ef          	jal	ra,80003140 <alloc_vfs_dentry>
  sb->s_root = root_dentry;
    8000058e:	e808                	sd	a0,16(s0)

  return sb;
}
    80000590:	8522                	mv	a0,s0
    80000592:	60e2                	ld	ra,24(sp)
    80000594:	6442                	ld	s0,16(sp)
    80000596:	64a2                	ld	s1,8(sp)
    80000598:	6105                	addi	sp,sp,32
    8000059a:	8082                	ret

000000008000059c <hostfs_update_vinode>:
int hostfs_update_vinode(struct vinode *vinode) {
    8000059c:	7119                	addi	sp,sp,-128
    8000059e:	fc86                	sd	ra,120(sp)
    800005a0:	f8a2                	sd	s0,112(sp)
    800005a2:	842a                	mv	s0,a0
  spike_file_t *f = vinode->i_fs_info;
    800005a4:	6128                	ld	a0,64(a0)
  if ((int64)f < 0) {  // is a direntry
    800005a6:	04054063          	bltz	a0,800005e6 <hostfs_update_vinode+0x4a>
  spike_file_stat(f, &stat);
    800005aa:	002c                	addi	a1,sp,8
    800005ac:	715030ef          	jal	ra,800044c0 <spike_file_stat>
  vinode->inum = stat.st_ino;
    800005b0:	00a15783          	lhu	a5,10(sp)
    800005b4:	c01c                	sw	a5,0(s0)
  vinode->size = stat.st_size;
    800005b6:	67e2                	ld	a5,24(sp)
    800005b8:	c41c                	sw	a5,8(s0)
  vinode->nlinks = stat.st_nlink;
    800005ba:	01015783          	lhu	a5,16(sp)
    800005be:	c81c                	sw	a5,16(s0)
  vinode->blocks = stat.st_blocks;
    800005c0:	67e6                	ld	a5,88(sp)
    800005c2:	c85c                	sw	a5,20(s0)
  if (S_ISDIR(stat.st_mode)) {
    800005c4:	47b2                	lw	a5,12(sp)
    800005c6:	673d                	lui	a4,0xf
    800005c8:	8ff9                	and	a5,a5,a4
    800005ca:	2781                	sext.w	a5,a5
    800005cc:	6711                	lui	a4,0x4
    800005ce:	02e78063          	beq	a5,a4,800005ee <hostfs_update_vinode+0x52>
  } else if (S_ISREG(stat.st_mode)) {
    800005d2:	6721                	lui	a4,0x8
    800005d4:	02e79163          	bne	a5,a4,800005f6 <hostfs_update_vinode+0x5a>
    vinode->type = H_FILE;
    800005d8:	00042623          	sw	zero,12(s0)
  return 0;
    800005dc:	4501                	li	a0,0
}
    800005de:	70e6                	ld	ra,120(sp)
    800005e0:	7446                	ld	s0,112(sp)
    800005e2:	6109                	addi	sp,sp,128
    800005e4:	8082                	ret
    vinode->type = H_DIR;
    800005e6:	4785                	li	a5,1
    800005e8:	c45c                	sw	a5,12(s0)
    return -1;
    800005ea:	557d                	li	a0,-1
    800005ec:	bfcd                	j	800005de <hostfs_update_vinode+0x42>
    vinode->type = H_DIR;
    800005ee:	4785                	li	a5,1
    800005f0:	c45c                	sw	a5,12(s0)
  return 0;
    800005f2:	4501                	li	a0,0
    800005f4:	b7ed                	j	800005de <hostfs_update_vinode+0x42>
    sprint("hostfs_lookup:unknown file type!");
    800005f6:	00007517          	auipc	a0,0x7
    800005fa:	efa50513          	addi	a0,a0,-262 # 800074f0 <rfs_i_ops+0x460>
    800005fe:	6e2040ef          	jal	ra,80004ce0 <sprint>
    return -1;
    80000602:	557d                	li	a0,-1
    80000604:	bfe9                	j	800005de <hostfs_update_vinode+0x42>

0000000080000606 <hostfs_lookup>:
struct vinode *hostfs_lookup(struct vinode *parent, struct dentry *sub_dentry) {
    80000606:	7139                	addi	sp,sp,-64
    80000608:	fc06                	sd	ra,56(sp)
    8000060a:	f822                	sd	s0,48(sp)
    8000060c:	f426                	sd	s1,40(sp)
    8000060e:	842a                	mv	s0,a0
  get_path_string(path, sub_dentry);
    80000610:	850a                	mv	a0,sp
    80000612:	ec9ff0ef          	jal	ra,800004da <get_path_string>
  spike_file_t *f = spike_file_open(path, O_RDWR, 0);
    80000616:	4601                	li	a2,0
    80000618:	4589                	li	a1,2
    8000061a:	850a                	mv	a0,sp
    8000061c:	07c040ef          	jal	ra,80004698 <spike_file_open>
    80000620:	84aa                	mv	s1,a0
  struct vinode *child_inode = hostfs_alloc_vinode(parent->sb);
    80000622:	6428                	ld	a0,72(s0)
    80000624:	f21ff0ef          	jal	ra,80000544 <hostfs_alloc_vinode>
    80000628:	842a                	mv	s0,a0
  child_inode->i_fs_info = f;
    8000062a:	e124                	sd	s1,64(a0)
  hostfs_update_vinode(child_inode);
    8000062c:	f71ff0ef          	jal	ra,8000059c <hostfs_update_vinode>
  child_inode->ref = 0;
    80000630:	00042223          	sw	zero,4(s0)
}
    80000634:	8522                	mv	a0,s0
    80000636:	70e2                	ld	ra,56(sp)
    80000638:	7442                	ld	s0,48(sp)
    8000063a:	74a2                	ld	s1,40(sp)
    8000063c:	6121                	addi	sp,sp,64
    8000063e:	8082                	ret

0000000080000640 <hostfs_create>:
struct vinode *hostfs_create(struct vinode *parent, struct dentry *sub_dentry) {
    80000640:	7139                	addi	sp,sp,-64
    80000642:	fc06                	sd	ra,56(sp)
    80000644:	f822                	sd	s0,48(sp)
    80000646:	f426                	sd	s1,40(sp)
    80000648:	842a                	mv	s0,a0
  get_path_string(path, sub_dentry);
    8000064a:	850a                	mv	a0,sp
    8000064c:	e8fff0ef          	jal	ra,800004da <get_path_string>
  spike_file_t *f = spike_file_open(path, O_RDWR | O_CREAT, S_IRUSR | S_IWUSR);
    80000650:	18000613          	li	a2,384
    80000654:	04200593          	li	a1,66
    80000658:	850a                	mv	a0,sp
    8000065a:	03e040ef          	jal	ra,80004698 <spike_file_open>
  if ((int64)f < 0) {
    8000065e:	02054363          	bltz	a0,80000684 <hostfs_create+0x44>
    80000662:	84aa                	mv	s1,a0
  struct vinode *new_inode = hostfs_alloc_vinode(parent->sb);
    80000664:	6428                	ld	a0,72(s0)
    80000666:	edfff0ef          	jal	ra,80000544 <hostfs_alloc_vinode>
    8000066a:	842a                	mv	s0,a0
  new_inode->i_fs_info = f;
    8000066c:	e124                	sd	s1,64(a0)
  if (hostfs_update_vinode(new_inode) != 0) return NULL;
    8000066e:	f2fff0ef          	jal	ra,8000059c <hostfs_update_vinode>
    80000672:	e10d                	bnez	a0,80000694 <hostfs_create+0x54>
  new_inode->ref = 0;
    80000674:	00042223          	sw	zero,4(s0)
}
    80000678:	8522                	mv	a0,s0
    8000067a:	70e2                	ld	ra,56(sp)
    8000067c:	7442                	ld	s0,48(sp)
    8000067e:	74a2                	ld	s1,40(sp)
    80000680:	6121                	addi	sp,sp,64
    80000682:	8082                	ret
    sprint("hostfs_create cannot create the given file.\n");
    80000684:	00007517          	auipc	a0,0x7
    80000688:	e9450513          	addi	a0,a0,-364 # 80007518 <rfs_i_ops+0x488>
    8000068c:	654040ef          	jal	ra,80004ce0 <sprint>
    return NULL;
    80000690:	4401                	li	s0,0
    80000692:	b7dd                	j	80000678 <hostfs_create+0x38>
  if (hostfs_update_vinode(new_inode) != 0) return NULL;
    80000694:	4401                	li	s0,0
    80000696:	b7cd                	j	80000678 <hostfs_create+0x38>

0000000080000698 <enable_paging>:
//
// turn on paging. added @lab2_1
//
void enable_paging() {
  // write the pointer to kernel page (table) directory into the CSR of "satp".
  write_csr(satp, MAKE_SATP(g_kernel_pagetable));
    80000698:	00010797          	auipc	a5,0x10
    8000069c:	bc07b783          	ld	a5,-1088(a5) # 80010258 <g_kernel_pagetable>
    800006a0:	83b1                	srli	a5,a5,0xc
    800006a2:	577d                	li	a4,-1
    800006a4:	177e                	slli	a4,a4,0x3f
    800006a6:	8fd9                	or	a5,a5,a4
    800006a8:	18079073          	csrw	satp,a5
  /* 232 */ uint64 t5;
  /* 240 */ uint64 t6;
}riscv_regs;

// following lines are added @lab2_1
static inline void flush_tlb(void) { asm volatile("sfence.vma zero, zero"); }
    800006ac:	12000073          	sfence.vma

  // refresh tlb to invalidate its content.
  flush_tlb();
}
    800006b0:	8082                	ret

00000000800006b2 <load_user_program>:

//
// load the elf, and construct a "process" (with only a trapframe).
// load_bincode_from_host_elf is defined in elf.c
//
process* load_user_program() {
    800006b2:	1141                	addi	sp,sp,-16
    800006b4:	e406                	sd	ra,8(sp)
    800006b6:	e022                	sd	s0,0(sp)
  process* proc;

  proc = alloc_process();
    800006b8:	0d5000ef          	jal	ra,80000f8c <alloc_process>
    800006bc:	842a                	mv	s0,a0
  sprint("User application is loading.\n");
    800006be:	00007517          	auipc	a0,0x7
    800006c2:	e8a50513          	addi	a0,a0,-374 # 80007548 <rfs_i_ops+0x4b8>
    800006c6:	61a040ef          	jal	ra,80004ce0 <sprint>

  load_bincode_from_host_elf(proc);
    800006ca:	8522                	mv	a0,s0
    800006cc:	b6fff0ef          	jal	ra,8000023a <load_bincode_from_host_elf>
  return proc;
}
    800006d0:	8522                	mv	a0,s0
    800006d2:	60a2                	ld	ra,8(sp)
    800006d4:	6402                	ld	s0,0(sp)
    800006d6:	0141                	addi	sp,sp,16
    800006d8:	8082                	ret

00000000800006da <s_start>:

//
// s_start: S-mode entry point of riscv-pke OS kernel.
//
int s_start(void) {
    800006da:	1141                	addi	sp,sp,-16
    800006dc:	e406                	sd	ra,8(sp)
  sprint("Enter supervisor mode...\n");
    800006de:	00007517          	auipc	a0,0x7
    800006e2:	e8a50513          	addi	a0,a0,-374 # 80007568 <rfs_i_ops+0x4d8>
    800006e6:	5fa040ef          	jal	ra,80004ce0 <sprint>
  // in the beginning, we use Bare mode (direct) memory mapping as in lab1.
  // but now, we are going to switch to the paging mode @lab2_1.
  // note, the code still works in Bare mode when calling pmm_init() and kern_vm_init().
  write_csr(satp, 0);
    800006ea:	18005073          	csrwi	satp,0

  // init phisical memory manager
  pmm_init();
    800006ee:	0cc000ef          	jal	ra,800007ba <pmm_init>

  // build the kernel page table
  kern_vm_init();
    800006f2:	3c4030ef          	jal	ra,80003ab6 <kern_vm_init>

  // now, switch to paging mode by turning on paging (SV39)
  enable_paging();
    800006f6:	fa3ff0ef          	jal	ra,80000698 <enable_paging>
  // the code now formally works in paging mode, meaning the page table is now in use.
  sprint("kernel page table is on \n");
    800006fa:	00007517          	auipc	a0,0x7
    800006fe:	e8e50513          	addi	a0,a0,-370 # 80007588 <rfs_i_ops+0x4f8>
    80000702:	5de040ef          	jal	ra,80004ce0 <sprint>

  // added @lab3_1
  init_proc_pool();
    80000706:	043000ef          	jal	ra,80000f48 <init_proc_pool>

  // init file system, added @lab4_1
  fs_init();
    8000070a:	15a000ef          	jal	ra,80000864 <fs_init>

  sprint("Switch to user mode...\n");
    8000070e:	00007517          	auipc	a0,0x7
    80000712:	e9a50513          	addi	a0,a0,-358 # 800075a8 <rfs_i_ops+0x518>
    80000716:	5ca040ef          	jal	ra,80004ce0 <sprint>
  // the application code (elf) is first loaded into memory, and then put into execution
  // added @lab3_1
  insert_to_ready_queue( load_user_program() );
    8000071a:	f99ff0ef          	jal	ra,800006b2 <load_user_program>
    8000071e:	6af010ef          	jal	ra,800025cc <insert_to_ready_queue>
  schedule();
    80000722:	709010ef          	jal	ra,8000262a <schedule>

  // we should never reach here.
  return 0;
}
    80000726:	4501                	li	a0,0
    80000728:	60a2                	ld	ra,8(sp)
    8000072a:	0141                	addi	sp,sp,16
    8000072c:	8082                	ret

000000008000072e <free_page>:
//
// place a physical page at *pa to the free list of g_free_mem_list (to reclaim the page)
//
void free_page(void *pa) {
  // sprint("lgm:in function free_page: before panic: pa is %lx\n", pa);
  if (((uint64)pa % PGSIZE) != 0 || (uint64)pa < free_mem_start_addr || (uint64)pa >= free_mem_end_addr) {
    8000072e:	6785                	lui	a5,0x1
    80000730:	17fd                	addi	a5,a5,-1
    80000732:	8fe9                	and	a5,a5,a0
    80000734:	e78d                	bnez	a5,8000075e <free_page+0x30>
    80000736:	00010797          	auipc	a5,0x10
    8000073a:	afa7b783          	ld	a5,-1286(a5) # 80010230 <free_mem_start_addr>
    8000073e:	02f56063          	bltu	a0,a5,8000075e <free_page+0x30>
    80000742:	00010797          	auipc	a5,0x10
    80000746:	ae67b783          	ld	a5,-1306(a5) # 80010228 <free_mem_end_addr>
    8000074a:	00f57a63          	bgeu	a0,a5,8000075e <free_page+0x30>
    panic("free_page 0x%lx \n", pa);
  }
  // sprint("lgm:in function free_page: after panic: pa is %lx\n", pa);
  // insert a physical page to g_free_mem_list
  list_node *n = (list_node *)pa;
  n->next = g_free_mem_list.next;
    8000074e:	00010797          	auipc	a5,0x10
    80000752:	ad278793          	addi	a5,a5,-1326 # 80010220 <g_free_mem_list>
    80000756:	6398                	ld	a4,0(a5)
    80000758:	e118                	sd	a4,0(a0)
  g_free_mem_list.next = n;
    8000075a:	e388                	sd	a0,0(a5)
    8000075c:	8082                	ret
void free_page(void *pa) {
    8000075e:	1141                	addi	sp,sp,-16
    80000760:	e406                	sd	ra,8(sp)
    panic("free_page 0x%lx \n", pa);
    80000762:	85aa                	mv	a1,a0
    80000764:	00007517          	auipc	a0,0x7
    80000768:	e5c50513          	addi	a0,a0,-420 # 800075c0 <rfs_i_ops+0x530>
    8000076c:	618040ef          	jal	ra,80004d84 <do_panic>

0000000080000770 <create_freepage_list>:
static void create_freepage_list(uint64 start, uint64 end) {
    80000770:	1101                	addi	sp,sp,-32
    80000772:	ec06                	sd	ra,24(sp)
    80000774:	e822                	sd	s0,16(sp)
    80000776:	e426                	sd	s1,8(sp)
    80000778:	84ae                	mv	s1,a1
  g_free_mem_list.next = 0;
    8000077a:	00010797          	auipc	a5,0x10
    8000077e:	aa07b323          	sd	zero,-1370(a5) # 80010220 <g_free_mem_list>
  for (uint64 p = ROUNDUP(start, PGSIZE); p + PGSIZE < end; p += PGSIZE)
    80000782:	157d                	addi	a0,a0,-1
    80000784:	8131                	srli	a0,a0,0xc
    80000786:	0505                	addi	a0,a0,1
    80000788:	0532                	slli	a0,a0,0xc
    8000078a:	a021                	j	80000792 <create_freepage_list+0x22>
    free_page( (void *)p );
    8000078c:	fa3ff0ef          	jal	ra,8000072e <free_page>
  for (uint64 p = ROUNDUP(start, PGSIZE); p + PGSIZE < end; p += PGSIZE)
    80000790:	8522                	mv	a0,s0
    80000792:	6405                	lui	s0,0x1
    80000794:	942a                	add	s0,s0,a0
    80000796:	fe946be3          	bltu	s0,s1,8000078c <create_freepage_list+0x1c>
}
    8000079a:	60e2                	ld	ra,24(sp)
    8000079c:	6442                	ld	s0,16(sp)
    8000079e:	64a2                	ld	s1,8(sp)
    800007a0:	6105                	addi	sp,sp,32
    800007a2:	8082                	ret

00000000800007a4 <alloc_page>:
//
// takes the first free page from g_free_mem_list, and returns (allocates) it.
// Allocates only ONE page!
//
void *alloc_page(void) {
  list_node *n = g_free_mem_list.next;
    800007a4:	00010517          	auipc	a0,0x10
    800007a8:	a7c53503          	ld	a0,-1412(a0) # 80010220 <g_free_mem_list>
  if (n) g_free_mem_list.next = n->next;
    800007ac:	c511                	beqz	a0,800007b8 <alloc_page+0x14>
    800007ae:	611c                	ld	a5,0(a0)
    800007b0:	00010717          	auipc	a4,0x10
    800007b4:	a6f73823          	sd	a5,-1424(a4) # 80010220 <g_free_mem_list>

  return (void *)n;
}
    800007b8:	8082                	ret

00000000800007ba <pmm_init>:

//
// pmm_init() establishes the list of free physical pages according to available
// physical memory space.
//
void pmm_init() {
    800007ba:	1141                	addi	sp,sp,-16
    800007bc:	e406                	sd	ra,8(sp)
    800007be:	e022                	sd	s0,0(sp)
  // start of kernel program segment
  uint64 g_kernel_start = KERN_BASE; // KERN_BASE = 0x80000000
  uint64 g_kernel_end = (uint64)&_end;

  uint64 pke_kernel_size = g_kernel_end - g_kernel_start;
    800007c0:	80011417          	auipc	s0,0x80011
    800007c4:	84040413          	addi	s0,s0,-1984 # 11000 <elf_fpread-0x7ffef000>
  sprint("PKE kernel start 0x%lx, PKE kernel end: 0x%lx, PKE kernel size: 0x%lx .\n",
    800007c8:	86a2                	mv	a3,s0
    800007ca:	00011617          	auipc	a2,0x11
    800007ce:	83660613          	addi	a2,a2,-1994 # 80011000 <_end>
    800007d2:	4585                	li	a1,1
    800007d4:	05fe                	slli	a1,a1,0x1f
    800007d6:	00007517          	auipc	a0,0x7
    800007da:	e0250513          	addi	a0,a0,-510 # 800075d8 <rfs_i_ops+0x548>
    800007de:	502040ef          	jal	ra,80004ce0 <sprint>
    g_kernel_start, g_kernel_end, pke_kernel_size);

  // free memory starts from the end of PKE kernel and must be page-aligined
  free_mem_start_addr = ROUNDUP(g_kernel_end , PGSIZE);
    800007e2:	00011597          	auipc	a1,0x11
    800007e6:	81d58593          	addi	a1,a1,-2019 # 80010fff <g_mem_size+0xd87>
    800007ea:	81b1                	srli	a1,a1,0xc
    800007ec:	0585                	addi	a1,a1,1
    800007ee:	05b2                	slli	a1,a1,0xc
    800007f0:	00010797          	auipc	a5,0x10
    800007f4:	a4b7b023          	sd	a1,-1472(a5) # 80010230 <free_mem_start_addr>

  // recompute g_mem_size to limit the physical memory space that our riscv-pke kernel
  // needs to manage
  g_mem_size = MIN(PKE_MAX_ALLOWABLE_RAM, g_mem_size);
    800007f8:	00010617          	auipc	a2,0x10
    800007fc:	a8063603          	ld	a2,-1408(a2) # 80010278 <g_mem_size>
    80000800:	080007b7          	lui	a5,0x8000
    80000804:	00c7f463          	bgeu	a5,a2,8000080c <pmm_init+0x52>
    80000808:	08000637          	lui	a2,0x8000
    8000080c:	00010797          	auipc	a5,0x10
    80000810:	a6c7b623          	sd	a2,-1428(a5) # 80010278 <g_mem_size>
  if( g_mem_size < pke_kernel_size )
    80000814:	04866263          	bltu	a2,s0,80000858 <pmm_init+0x9e>
    panic( "Error when recomputing physical memory size (g_mem_size).\n" );

  free_mem_end_addr = g_mem_size + DRAM_BASE;
    80000818:	4785                	li	a5,1
    8000081a:	07fe                	slli	a5,a5,0x1f
    8000081c:	963e                	add	a2,a2,a5
    8000081e:	00010417          	auipc	s0,0x10
    80000822:	a0a40413          	addi	s0,s0,-1526 # 80010228 <free_mem_end_addr>
    80000826:	e010                	sd	a2,0(s0)
  sprint("free physical memory address: [0x%lx, 0x%lx] \n", free_mem_start_addr,
    80000828:	167d                	addi	a2,a2,-1
    8000082a:	00007517          	auipc	a0,0x7
    8000082e:	e3e50513          	addi	a0,a0,-450 # 80007668 <rfs_i_ops+0x5d8>
    80000832:	4ae040ef          	jal	ra,80004ce0 <sprint>
    free_mem_end_addr - 1);

  sprint("kernel memory manager is initializing ...\n");
    80000836:	00007517          	auipc	a0,0x7
    8000083a:	e6250513          	addi	a0,a0,-414 # 80007698 <rfs_i_ops+0x608>
    8000083e:	4a2040ef          	jal	ra,80004ce0 <sprint>
  // create the list of free pages
  create_freepage_list(free_mem_start_addr, free_mem_end_addr);
    80000842:	600c                	ld	a1,0(s0)
    80000844:	00010517          	auipc	a0,0x10
    80000848:	9ec53503          	ld	a0,-1556(a0) # 80010230 <free_mem_start_addr>
    8000084c:	f25ff0ef          	jal	ra,80000770 <create_freepage_list>
}
    80000850:	60a2                	ld	ra,8(sp)
    80000852:	6402                	ld	s0,0(sp)
    80000854:	0141                	addi	sp,sp,16
    80000856:	8082                	ret
    panic( "Error when recomputing physical memory size (g_mem_size).\n" );
    80000858:	00007517          	auipc	a0,0x7
    8000085c:	dd050513          	addi	a0,a0,-560 # 80007628 <rfs_i_ops+0x598>
    80000860:	524040ef          	jal	ra,80004d84 <do_panic>

0000000080000864 <fs_init>:

//
// initialize file system
//
void fs_init(void)
{
    80000864:	1141                	addi	sp,sp,-16
    80000866:	e406                	sd	ra,8(sp)
    // initialize the vfs
    vfs_init();
    80000868:	67e020ef          	jal	ra,80002ee6 <vfs_init>

    // register hostfs and mount it as the root
    if (register_hostfs() < 0)
    8000086c:	b5dff0ef          	jal	ra,800003c8 <register_hostfs>
    80000870:	04054563          	bltz	a0,800008ba <fs_init+0x56>
        panic("fs_init: cannot register hostfs.\n");
    struct device *hostdev = init_host_device("HOSTDEV");
    80000874:	00007517          	auipc	a0,0x7
    80000878:	e7c50513          	addi	a0,a0,-388 # 800076f0 <rfs_i_ops+0x660>
    8000087c:	b9bff0ef          	jal	ra,80000416 <init_host_device>
    vfs_mount("HOSTDEV", MOUNT_AS_ROOT);
    80000880:	4585                	li	a1,1
    80000882:	00007517          	auipc	a0,0x7
    80000886:	e6e50513          	addi	a0,a0,-402 # 800076f0 <rfs_i_ops+0x660>
    8000088a:	221020ef          	jal	ra,800032aa <vfs_mount>

    // register and mount rfs
    if (register_rfs() < 0)
    8000088e:	76b000ef          	jal	ra,800017f8 <register_rfs>
    80000892:	02054a63          	bltz	a0,800008c6 <fs_init+0x62>
        panic("fs_init: cannot register rfs.\n");
    struct device *ramdisk0 = init_rfs_device("RAMDISK0");
    80000896:	00007517          	auipc	a0,0x7
    8000089a:	e8250513          	addi	a0,a0,-382 # 80007718 <rfs_i_ops+0x688>
    8000089e:	51b000ef          	jal	ra,800015b8 <init_rfs_device>
    rfs_format_dev(ramdisk0);
    800008a2:	2c8010ef          	jal	ra,80001b6a <rfs_format_dev>
    vfs_mount("RAMDISK0", MOUNT_DEFAULT);
    800008a6:	4581                	li	a1,0
    800008a8:	00007517          	auipc	a0,0x7
    800008ac:	e7050513          	addi	a0,a0,-400 # 80007718 <rfs_i_ops+0x688>
    800008b0:	1fb020ef          	jal	ra,800032aa <vfs_mount>
}
    800008b4:	60a2                	ld	ra,8(sp)
    800008b6:	0141                	addi	sp,sp,16
    800008b8:	8082                	ret
        panic("fs_init: cannot register hostfs.\n");
    800008ba:	00007517          	auipc	a0,0x7
    800008be:	e0e50513          	addi	a0,a0,-498 # 800076c8 <rfs_i_ops+0x638>
    800008c2:	4c2040ef          	jal	ra,80004d84 <do_panic>
        panic("fs_init: cannot register rfs.\n");
    800008c6:	00007517          	auipc	a0,0x7
    800008ca:	e3250513          	addi	a0,a0,-462 # 800076f8 <rfs_i_ops+0x668>
    800008ce:	4b6040ef          	jal	ra,80004d84 <do_panic>

00000000800008d2 <init_proc_file_management>:
//
// initialize a proc_file_management data structure for a process.
// return the pointer to the page containing the data structure.
//
proc_file_management *init_proc_file_management(void)
{
    800008d2:	1141                	addi	sp,sp,-16
    800008d4:	e406                	sd	ra,8(sp)
    800008d6:	e022                	sd	s0,0(sp)
    proc_file_management *pfiles = (proc_file_management *)alloc_page();
    800008d8:	ecdff0ef          	jal	ra,800007a4 <alloc_page>
    800008dc:	842a                	mv	s0,a0
    pfiles->cwd = vfs_root_dentry; // by default, cwd is the root
    800008de:	00010797          	auipc	a5,0x10
    800008e2:	9727b783          	ld	a5,-1678(a5) # 80010250 <vfs_root_dentry>
    800008e6:	e11c                	sd	a5,0(a0)
    pfiles->nfiles = 0;
    800008e8:	6785                	lui	a5,0x1
    800008ea:	97aa                	add	a5,a5,a0
    800008ec:	c007a423          	sw	zero,-1016(a5) # c08 <elf_fpread-0x7ffff3f8>

    for (int fd = 0; fd < MAX_FILES; ++fd)
    800008f0:	4701                	li	a4,0
    800008f2:	a809                	j	80000904 <init_proc_file_management+0x32>
        pfiles->opened_files[fd].status = FD_NONE;
    800008f4:	00171793          	slli	a5,a4,0x1
    800008f8:	97ba                	add	a5,a5,a4
    800008fa:	078e                	slli	a5,a5,0x3
    800008fc:	97a2                	add	a5,a5,s0
    800008fe:	0007a423          	sw	zero,8(a5)
    for (int fd = 0; fd < MAX_FILES; ++fd)
    80000902:	2705                	addiw	a4,a4,1
    80000904:	07f00793          	li	a5,127
    80000908:	fee7d6e3          	bge	a5,a4,800008f4 <init_proc_file_management+0x22>

    sprint("FS: created a file management struct for a process.\n");
    8000090c:	00007517          	auipc	a0,0x7
    80000910:	e1c50513          	addi	a0,a0,-484 # 80007728 <rfs_i_ops+0x698>
    80000914:	3cc040ef          	jal	ra,80004ce0 <sprint>
    return pfiles;
}
    80000918:	8522                	mv	a0,s0
    8000091a:	60a2                	ld	ra,8(sp)
    8000091c:	6402                	ld	s0,0(sp)
    8000091e:	0141                	addi	sp,sp,16
    80000920:	8082                	ret

0000000080000922 <reclaim_proc_file_management>:
//
// reclaim the open-file management data structure of a process.
// note: this function is not used as PKE does not actually reclaim a process.
//
void reclaim_proc_file_management(proc_file_management *pfiles)
{
    80000922:	1141                	addi	sp,sp,-16
    80000924:	e406                	sd	ra,8(sp)
    free_page(pfiles);
    80000926:	e09ff0ef          	jal	ra,8000072e <free_page>
    return;
}
    8000092a:	60a2                	ld	ra,8(sp)
    8000092c:	0141                	addi	sp,sp,16
    8000092e:	8082                	ret

0000000080000930 <get_opened_file>:
//
// get an opened file from proc->opened_file array.
// return: the pointer to the opened file structure.
//
struct file *get_opened_file(int fd)
{
    80000930:	86aa                	mv	a3,a0
    struct file *pfile = NULL;

    // browse opened file list to locate the fd
    for (int i = 0; i < MAX_FILES; ++i)
    80000932:	4701                	li	a4,0
    struct file *pfile = NULL;
    80000934:	4501                	li	a0,0
    for (int i = 0; i < MAX_FILES; ++i)
    80000936:	07f00793          	li	a5,127
    8000093a:	02e7c263          	blt	a5,a4,8000095e <get_opened_file+0x2e>
    {
        pfile = &(current->pfiles->opened_files[i]); // file entry
    8000093e:	00010797          	auipc	a5,0x10
    80000942:	8fa7b783          	ld	a5,-1798(a5) # 80010238 <current>
    80000946:	1687b503          	ld	a0,360(a5)
    8000094a:	00171793          	slli	a5,a4,0x1
    8000094e:	97ba                	add	a5,a5,a4
    80000950:	078e                	slli	a5,a5,0x3
    80000952:	953e                	add	a0,a0,a5
    80000954:	0521                	addi	a0,a0,8
        if (i == fd)
    80000956:	00d70463          	beq	a4,a3,8000095e <get_opened_file+0x2e>
    for (int i = 0; i < MAX_FILES; ++i)
    8000095a:	2705                	addiw	a4,a4,1
    8000095c:	bfe9                	j	80000936 <get_opened_file+0x6>
            break;
    }
    if (pfile == NULL)
    8000095e:	c111                	beqz	a0,80000962 <get_opened_file+0x32>
        panic("do_read: invalid fd!\n");
    return pfile;
}
    80000960:	8082                	ret
{
    80000962:	1141                	addi	sp,sp,-16
    80000964:	e406                	sd	ra,8(sp)
        panic("do_read: invalid fd!\n");
    80000966:	00007517          	auipc	a0,0x7
    8000096a:	dfa50513          	addi	a0,a0,-518 # 80007760 <rfs_i_ops+0x6d0>
    8000096e:	416040ef          	jal	ra,80004d84 <do_panic>

0000000080000972 <do_open>:
//
// open a file named as "pathname" with the permission of "flags".
// return: -1 on failure; non-zero file-descriptor on success.
//
int do_open(char *pathname, int flags)
{
    80000972:	1101                	addi	sp,sp,-32
    80000974:	ec06                	sd	ra,24(sp)
    80000976:	e822                	sd	s0,16(sp)
    80000978:	e426                	sd	s1,8(sp)
    struct file *opened_file = NULL;
    if ((opened_file = vfs_open(pathname, flags)) == NULL)
    8000097a:	421020ef          	jal	ra,8000359a <vfs_open>
    8000097e:	cd2d                	beqz	a0,800009f8 <do_open+0x86>
    80000980:	85aa                	mv	a1,a0
        return -1;

    int fd = 0;
    if (current->pfiles->nfiles >= MAX_FILES)
    80000982:	00010797          	auipc	a5,0x10
    80000986:	8b67b783          	ld	a5,-1866(a5) # 80010238 <current>
    8000098a:	1687b703          	ld	a4,360(a5)
    8000098e:	6785                	lui	a5,0x1
    80000990:	97ba                	add	a5,a5,a4
    80000992:	c087a683          	lw	a3,-1016(a5) # c08 <elf_fpread-0x7ffff3f8>
    80000996:	07f00793          	li	a5,127
    8000099a:	02d7c263          	blt	a5,a3,800009be <do_open+0x4c>
    {
        panic("do_open: no file entry for current process!\n");
    }
    struct file *pfile;
    for (fd = 0; fd < MAX_FILES; ++fd)
    8000099e:	4401                	li	s0,0
    800009a0:	07f00793          	li	a5,127
    800009a4:	0287c363          	blt	a5,s0,800009ca <do_open+0x58>
    {
        pfile = &(current->pfiles->opened_files[fd]);
    800009a8:	00141793          	slli	a5,s0,0x1
    800009ac:	97a2                	add	a5,a5,s0
    800009ae:	078e                	slli	a5,a5,0x3
    800009b0:	97ba                	add	a5,a5,a4
    800009b2:	00878493          	addi	s1,a5,8
        if (pfile->status == FD_NONE)
    800009b6:	479c                	lw	a5,8(a5)
    800009b8:	cb89                	beqz	a5,800009ca <do_open+0x58>
    for (fd = 0; fd < MAX_FILES; ++fd)
    800009ba:	2405                	addiw	s0,s0,1
    800009bc:	b7d5                	j	800009a0 <do_open+0x2e>
        panic("do_open: no file entry for current process!\n");
    800009be:	00007517          	auipc	a0,0x7
    800009c2:	dba50513          	addi	a0,a0,-582 # 80007778 <rfs_i_ops+0x6e8>
    800009c6:	3be040ef          	jal	ra,80004d84 <do_panic>
            break;
    }

    // initialize this file structure
    memcpy(pfile, opened_file, sizeof(struct file));
    800009ca:	4661                	li	a2,24
    800009cc:	8526                	mv	a0,s1
    800009ce:	03f030ef          	jal	ra,8000420c <memcpy>

    ++current->pfiles->nfiles;
    800009d2:	00010797          	auipc	a5,0x10
    800009d6:	8667b783          	ld	a5,-1946(a5) # 80010238 <current>
    800009da:	1687b783          	ld	a5,360(a5)
    800009de:	6705                	lui	a4,0x1
    800009e0:	97ba                	add	a5,a5,a4
    800009e2:	c087a703          	lw	a4,-1016(a5)
    800009e6:	2705                	addiw	a4,a4,1
    800009e8:	c0e7a423          	sw	a4,-1016(a5)
    return fd;
}
    800009ec:	8522                	mv	a0,s0
    800009ee:	60e2                	ld	ra,24(sp)
    800009f0:	6442                	ld	s0,16(sp)
    800009f2:	64a2                	ld	s1,8(sp)
    800009f4:	6105                	addi	sp,sp,32
    800009f6:	8082                	ret
        return -1;
    800009f8:	547d                	li	s0,-1
    800009fa:	bfcd                	j	800009ec <do_open+0x7a>

00000000800009fc <exec_bincode>:
    sprint("lgm:ehdr.shstrndx = %0x\n", ehdr->shstrndx);
}

// elf
static void exec_bincode(process *p, char *path)
{
    800009fc:	7131                	addi	sp,sp,-192
    800009fe:	fd06                	sd	ra,184(sp)
    80000a00:	f922                	sd	s0,176(sp)
    80000a02:	f526                	sd	s1,168(sp)
    80000a04:	f14a                	sd	s2,160(sp)
    80000a06:	ed4e                	sd	s3,152(sp)
    80000a08:	e952                	sd	s4,144(sp)
    80000a0a:	e556                	sd	s5,136(sp)
    80000a0c:	e15a                	sd	s6,128(sp)
    80000a0e:	842a                	mv	s0,a0
    80000a10:	84ae                	mv	s1,a1
    sprint("Application: %s\n", path);
    80000a12:	00007517          	auipc	a0,0x7
    80000a16:	90650513          	addi	a0,a0,-1786 # 80007318 <rfs_i_ops+0x288>
    80000a1a:	2c6040ef          	jal	ra,80004ce0 <sprint>
    // ehdr
    int fp = do_open(path, O_RDONLY);
    80000a1e:	4581                	li	a1,0
    80000a20:	8526                	mv	a0,s1
    80000a22:	f51ff0ef          	jal	ra,80000972 <do_open>
    spike_file_t *f = (spike_file_t *)(get_opened_file(fp)->f_dentry->dentry_inode->i_fs_info); // 134
    80000a26:	f0bff0ef          	jal	ra,80000930 <get_opened_file>
    80000a2a:	691c                	ld	a5,16(a0)
    80000a2c:	779c                	ld	a5,40(a5)
    80000a2e:	0407b983          	ld	s3,64(a5)
    elf_header ehdr;
    if (spike_file_read(f, &ehdr, sizeof(elf_header)) != sizeof(elf_header))
    80000a32:	04000613          	li	a2,64
    80000a36:	008c                	addi	a1,sp,64
    80000a38:	854e                	mv	a0,s3
    80000a3a:	497030ef          	jal	ra,800046d0 <spike_file_read>
    80000a3e:	04000793          	li	a5,64
    80000a42:	00f51c63          	bne	a0,a5,80000a5a <exec_bincode+0x5e>
    {
        panic("read elf header error\n");
    }
    if (ehdr.magic != ELF_MAGIC)
    80000a46:	4706                	lw	a4,64(sp)
    80000a48:	464c47b7          	lui	a5,0x464c4
    80000a4c:	57f78793          	addi	a5,a5,1407 # 464c457f <elf_fpread-0x39b3ba81>
    80000a50:	00f71b63          	bne	a4,a5,80000a66 <exec_bincode+0x6a>
    }
    // print_ehdr(&ehdr);

    //  & 
    elf_prog_header ph_addr;
    for (int i = 0, off = ehdr.phoff; i < ehdr.phnum; i++, off += sizeof(ph_addr))
    80000a54:	5906                	lw	s2,96(sp)
    80000a56:	4481                	li	s1,0
    80000a58:	a071                	j	80000ae4 <exec_bincode+0xe8>
        panic("read elf header error\n");
    80000a5a:	00007517          	auipc	a0,0x7
    80000a5e:	d4e50513          	addi	a0,a0,-690 # 800077a8 <rfs_i_ops+0x718>
    80000a62:	322040ef          	jal	ra,80004d84 <do_panic>
        panic("do_exec: not an elf file.\n");
    80000a66:	00007517          	auipc	a0,0x7
    80000a6a:	d5a50513          	addi	a0,a0,-678 # 800077c0 <rfs_i_ops+0x730>
    80000a6e:	316040ef          	jal	ra,80004d84 <do_panic>
    {
        // step1: entry
        spike_file_lseek(f, off, SEEK_SET); // seek to the program header
        if (spike_file_read(f, &ph_addr, sizeof(ph_addr)) != sizeof(ph_addr))
        {
            panic("read elf program header error\n");
    80000a72:	00007517          	auipc	a0,0x7
    80000a76:	d6e50513          	addi	a0,a0,-658 # 800077e0 <rfs_i_ops+0x750>
    80000a7a:	30a040ef          	jal	ra,80004d84 <do_panic>
        }
        if (ph_addr.type != ELF_PROG_LOAD) // ELF_PROG_LOAD
            continue;
        if (ph_addr.memsz < ph_addr.filesz)
        {
            panic("memsz < filesz error.\n");
    80000a7e:	00007517          	auipc	a0,0x7
    80000a82:	d8250513          	addi	a0,a0,-638 # 80007800 <rfs_i_ops+0x770>
    80000a86:	2fe040ef          	jal	ra,80004d84 <do_panic>
        }
        if (ph_addr.vaddr + ph_addr.memsz < ph_addr.vaddr)
        {
            panic("vaddr + memsz < vaddr error.\n");
    80000a8a:	00007517          	auipc	a0,0x7
    80000a8e:	d8e50513          	addi	a0,a0,-626 # 80007818 <rfs_i_ops+0x788>
    80000a92:	2f2040ef          	jal	ra,80004d84 <do_panic>
        memset(pa, 0, PGSIZE);
        user_vm_map((pagetable_t)p->pagetable, ph_addr.vaddr, PGSIZE, (uint64)pa, prot_to_type(PROT_WRITE | PROT_READ | PROT_EXEC, 1));
        spike_file_lseek(f, ph_addr.off, SEEK_SET);
        if (spike_file_read(f, pa, ph_addr.memsz) != ph_addr.memsz)
        {
            panic("read program segment error.\n");
    80000a96:	00007517          	auipc	a0,0x7
    80000a9a:	da250513          	addi	a0,a0,-606 # 80007838 <rfs_i_ops+0x7a8>
    80000a9e:	2e6040ef          	jal	ra,80004d84 <do_panic>
        int pos;
        for (pos = 0; pos < PGSIZE / sizeof(mapped_region); pos++) // seek the last mapped region
            if (p->mapped_info[pos].va == 0x0)
                break;

        p->mapped_info[pos].va = ph_addr.vaddr;
    80000aa2:	6c18                	ld	a4,24(s0)
    80000aa4:	00459793          	slli	a5,a1,0x4
    80000aa8:	973e                	add	a4,a4,a5
    80000aaa:	66e2                	ld	a3,24(sp)
    80000aac:	e314                	sd	a3,0(a4)
        p->mapped_info[pos].npages = 1;
    80000aae:	6c18                	ld	a4,24(s0)
    80000ab0:	973e                	add	a4,a4,a5
    80000ab2:	4685                	li	a3,1
    80000ab4:	c714                	sw	a3,8(a4)

        // SEGMENT_READABLE, SEGMENT_EXECUTABLE, SEGMENT_WRITABLE are defined in kernel/elf.h
        if (ph_addr.flags == (SEGMENT_READABLE | SEGMENT_EXECUTABLE))
    80000ab6:	4732                	lw	a4,12(sp)
    80000ab8:	4695                	li	a3,5
    80000aba:	0cd70763          	beq	a4,a3,80000b88 <exec_bincode+0x18c>
        {
            p->mapped_info[pos].seg_type = CODE_SEGMENT;
            sprint("CODE_SEGMENT added at mapped info offset:%d\n", pos);
        }
        else if (ph_addr.flags == (SEGMENT_READABLE | SEGMENT_WRITABLE))
    80000abe:	4699                	li	a3,6
    80000ac0:	0cd71f63          	bne	a4,a3,80000b9e <exec_bincode+0x1a2>
        {
            p->mapped_info[pos].seg_type = DATA_SEGMENT;
    80000ac4:	6c18                	ld	a4,24(s0)
    80000ac6:	97ba                	add	a5,a5,a4
    80000ac8:	4715                	li	a4,5
    80000aca:	c7d8                	sw	a4,12(a5)
            sprint("DATA_SEGMENT added at mapped info offset:%d\n", pos);
    80000acc:	00006517          	auipc	a0,0x6
    80000ad0:	7b450513          	addi	a0,a0,1972 # 80007280 <rfs_i_ops+0x1f0>
    80000ad4:	20c040ef          	jal	ra,80004ce0 <sprint>
        }
        else
            panic("unknown program segment encountered, segment flag:%d.\n", ph_addr.flags);

        p->total_mapped_region++;
    80000ad8:	501c                	lw	a5,32(s0)
    80000ada:	2785                	addiw	a5,a5,1
    80000adc:	d01c                	sw	a5,32(s0)
    for (int i = 0, off = ehdr.phoff; i < ehdr.phnum; i++, off += sizeof(ph_addr))
    80000ade:	2485                	addiw	s1,s1,1
    80000ae0:	0389091b          	addiw	s2,s2,56
    80000ae4:	07815783          	lhu	a5,120(sp)
    80000ae8:	0cf4d263          	bge	s1,a5,80000bac <exec_bincode+0x1b0>
        spike_file_lseek(f, off, SEEK_SET); // seek to the program header
    80000aec:	4601                	li	a2,0
    80000aee:	85ca                	mv	a1,s2
    80000af0:	854e                	mv	a0,s3
    80000af2:	3ff030ef          	jal	ra,800046f0 <spike_file_lseek>
        if (spike_file_read(f, &ph_addr, sizeof(ph_addr)) != sizeof(ph_addr))
    80000af6:	03800613          	li	a2,56
    80000afa:	002c                	addi	a1,sp,8
    80000afc:	854e                	mv	a0,s3
    80000afe:	3d3030ef          	jal	ra,800046d0 <spike_file_read>
    80000b02:	03800793          	li	a5,56
    80000b06:	f6f516e3          	bne	a0,a5,80000a72 <exec_bincode+0x76>
        if (ph_addr.type != ELF_PROG_LOAD) // ELF_PROG_LOAD
    80000b0a:	4722                	lw	a4,8(sp)
    80000b0c:	4785                	li	a5,1
    80000b0e:	fcf718e3          	bne	a4,a5,80000ade <exec_bincode+0xe2>
        if (ph_addr.memsz < ph_addr.filesz)
    80000b12:	77c2                	ld	a5,48(sp)
    80000b14:	7722                	ld	a4,40(sp)
    80000b16:	f6e7e4e3          	bltu	a5,a4,80000a7e <exec_bincode+0x82>
        if (ph_addr.vaddr + ph_addr.memsz < ph_addr.vaddr)
    80000b1a:	6762                	ld	a4,24(sp)
    80000b1c:	97ba                	add	a5,a5,a4
    80000b1e:	f6e7e6e3          	bltu	a5,a4,80000a8a <exec_bincode+0x8e>
        void *pa = alloc_page(); // 
    80000b22:	c83ff0ef          	jal	ra,800007a4 <alloc_page>
    80000b26:	8a2a                	mv	s4,a0
        memset(pa, 0, PGSIZE);
    80000b28:	6605                	lui	a2,0x1
    80000b2a:	4581                	li	a1,0
    80000b2c:	718030ef          	jal	ra,80004244 <memset>
        user_vm_map((pagetable_t)p->pagetable, ph_addr.vaddr, PGSIZE, (uint64)pa, prot_to_type(PROT_WRITE | PROT_READ | PROT_EXEC, 1));
    80000b30:	00843a83          	ld	s5,8(s0)
    80000b34:	6b62                	ld	s6,24(sp)
    80000b36:	4585                	li	a1,1
    80000b38:	451d                	li	a0,7
    80000b3a:	5e7020ef          	jal	ra,80003920 <prot_to_type>
    80000b3e:	0005071b          	sext.w	a4,a0
    80000b42:	86d2                	mv	a3,s4
    80000b44:	6605                	lui	a2,0x1
    80000b46:	85da                	mv	a1,s6
    80000b48:	8556                	mv	a0,s5
    80000b4a:	030030ef          	jal	ra,80003b7a <user_vm_map>
        spike_file_lseek(f, ph_addr.off, SEEK_SET);
    80000b4e:	4601                	li	a2,0
    80000b50:	65c2                	ld	a1,16(sp)
    80000b52:	854e                	mv	a0,s3
    80000b54:	39d030ef          	jal	ra,800046f0 <spike_file_lseek>
        if (spike_file_read(f, pa, ph_addr.memsz) != ph_addr.memsz)
    80000b58:	7642                	ld	a2,48(sp)
    80000b5a:	85d2                	mv	a1,s4
    80000b5c:	854e                	mv	a0,s3
    80000b5e:	373030ef          	jal	ra,800046d0 <spike_file_read>
    80000b62:	77c2                	ld	a5,48(sp)
    80000b64:	f2f519e3          	bne	a0,a5,80000a96 <exec_bincode+0x9a>
        for (pos = 0; pos < PGSIZE / sizeof(mapped_region); pos++) // seek the last mapped region
    80000b68:	4581                	li	a1,0
    80000b6a:	0005879b          	sext.w	a5,a1
    80000b6e:	0ff00713          	li	a4,255
    80000b72:	f2f768e3          	bltu	a4,a5,80000aa2 <exec_bincode+0xa6>
            if (p->mapped_info[pos].va == 0x0)
    80000b76:	6c1c                	ld	a5,24(s0)
    80000b78:	00459713          	slli	a4,a1,0x4
    80000b7c:	97ba                	add	a5,a5,a4
    80000b7e:	639c                	ld	a5,0(a5)
    80000b80:	f20781e3          	beqz	a5,80000aa2 <exec_bincode+0xa6>
        for (pos = 0; pos < PGSIZE / sizeof(mapped_region); pos++) // seek the last mapped region
    80000b84:	2585                	addiw	a1,a1,1
    80000b86:	b7d5                	j	80000b6a <exec_bincode+0x16e>
            p->mapped_info[pos].seg_type = CODE_SEGMENT;
    80000b88:	6c18                	ld	a4,24(s0)
    80000b8a:	97ba                	add	a5,a5,a4
    80000b8c:	4711                	li	a4,4
    80000b8e:	c7d8                	sw	a4,12(a5)
            sprint("CODE_SEGMENT added at mapped info offset:%d\n", pos);
    80000b90:	00006517          	auipc	a0,0x6
    80000b94:	6c050513          	addi	a0,a0,1728 # 80007250 <rfs_i_ops+0x1c0>
    80000b98:	148040ef          	jal	ra,80004ce0 <sprint>
    80000b9c:	bf35                	j	80000ad8 <exec_bincode+0xdc>
            panic("unknown program segment encountered, segment flag:%d.\n", ph_addr.flags);
    80000b9e:	85ba                	mv	a1,a4
    80000ba0:	00006517          	auipc	a0,0x6
    80000ba4:	71050513          	addi	a0,a0,1808 # 800072b0 <rfs_i_ops+0x220>
    80000ba8:	1dc040ef          	jal	ra,80004d84 <do_panic>
    }
    // tramframe
    p->trapframe->epc = ehdr.entry;
    80000bac:	681c                	ld	a5,16(s0)
    80000bae:	6766                	ld	a4,88(sp)
    80000bb0:	10e7b423          	sd	a4,264(a5)
    sprint("Application program entry point (virtual address): 0x%lx\n", p->trapframe->epc);
    80000bb4:	681c                	ld	a5,16(s0)
    80000bb6:	1087b583          	ld	a1,264(a5)
    80000bba:	00006517          	auipc	a0,0x6
    80000bbe:	7e650513          	addi	a0,a0,2022 # 800073a0 <rfs_i_ops+0x310>
    80000bc2:	11e040ef          	jal	ra,80004ce0 <sprint>
}
    80000bc6:	70ea                	ld	ra,184(sp)
    80000bc8:	744a                	ld	s0,176(sp)
    80000bca:	74aa                	ld	s1,168(sp)
    80000bcc:	790a                	ld	s2,160(sp)
    80000bce:	69ea                	ld	s3,152(sp)
    80000bd0:	6a4a                	ld	s4,144(sp)
    80000bd2:	6aaa                	ld	s5,136(sp)
    80000bd4:	6b0a                	ld	s6,128(sp)
    80000bd6:	6129                	addi	sp,sp,192
    80000bd8:	8082                	ret

0000000080000bda <do_read>:
{
    80000bda:	7179                	addi	sp,sp,-48
    80000bdc:	f406                	sd	ra,40(sp)
    80000bde:	f022                	sd	s0,32(sp)
    80000be0:	ec26                	sd	s1,24(sp)
    80000be2:	e84a                	sd	s2,16(sp)
    80000be4:	e44e                	sd	s3,8(sp)
    80000be6:	1800                	addi	s0,sp,48
    80000be8:	892e                	mv	s2,a1
    80000bea:	84b2                	mv	s1,a2
    struct file *pfile = get_opened_file(fd);
    80000bec:	d45ff0ef          	jal	ra,80000930 <get_opened_file>
    if (pfile->readable == 0)
    80000bf0:	415c                	lw	a5,4(a0)
    80000bf2:	cf8d                	beqz	a5,80000c2c <do_read+0x52>
    char buffer[count + 1];
    80000bf4:	01048793          	addi	a5,s1,16
    80000bf8:	9bc1                	andi	a5,a5,-16
    80000bfa:	40f10133          	sub	sp,sp,a5
    int len = vfs_read(pfile, buffer, count);
    80000bfe:	8626                	mv	a2,s1
    80000c00:	858a                	mv	a1,sp
    80000c02:	336020ef          	jal	ra,80002f38 <vfs_read>
    80000c06:	0005099b          	sext.w	s3,a0
    buffer[count] = '\0';
    80000c0a:	948a                	add	s1,s1,sp
    80000c0c:	00048023          	sb	zero,0(s1)
    strcpy(buf, buffer); // 
    80000c10:	858a                	mv	a1,sp
    80000c12:	854a                	mv	a0,s2
    80000c14:	69e030ef          	jal	ra,800042b2 <strcpy>
}
    80000c18:	854e                	mv	a0,s3
    80000c1a:	fd040113          	addi	sp,s0,-48
    80000c1e:	70a2                	ld	ra,40(sp)
    80000c20:	7402                	ld	s0,32(sp)
    80000c22:	64e2                	ld	s1,24(sp)
    80000c24:	6942                	ld	s2,16(sp)
    80000c26:	69a2                	ld	s3,8(sp)
    80000c28:	6145                	addi	sp,sp,48
    80000c2a:	8082                	ret
        panic("do_read: no readable file!\n");
    80000c2c:	00007517          	auipc	a0,0x7
    80000c30:	c2c50513          	addi	a0,a0,-980 # 80007858 <rfs_i_ops+0x7c8>
    80000c34:	150040ef          	jal	ra,80004d84 <do_panic>

0000000080000c38 <do_write>:
{
    80000c38:	1101                	addi	sp,sp,-32
    80000c3a:	ec06                	sd	ra,24(sp)
    80000c3c:	e822                	sd	s0,16(sp)
    80000c3e:	e426                	sd	s1,8(sp)
    80000c40:	842e                	mv	s0,a1
    80000c42:	84b2                	mv	s1,a2
    struct file *pfile = get_opened_file(fd);
    80000c44:	cedff0ef          	jal	ra,80000930 <get_opened_file>
    if (pfile->writable == 0)
    80000c48:	451c                	lw	a5,8(a0)
    80000c4a:	cb99                	beqz	a5,80000c60 <do_write+0x28>
    int len = vfs_write(pfile, buf, count);
    80000c4c:	8626                	mv	a2,s1
    80000c4e:	85a2                	mv	a1,s0
    80000c50:	328020ef          	jal	ra,80002f78 <vfs_write>
}
    80000c54:	2501                	sext.w	a0,a0
    80000c56:	60e2                	ld	ra,24(sp)
    80000c58:	6442                	ld	s0,16(sp)
    80000c5a:	64a2                	ld	s1,8(sp)
    80000c5c:	6105                	addi	sp,sp,32
    80000c5e:	8082                	ret
        panic("do_write: cannot write file!\n");
    80000c60:	00007517          	auipc	a0,0x7
    80000c64:	c1850513          	addi	a0,a0,-1000 # 80007878 <rfs_i_ops+0x7e8>
    80000c68:	11c040ef          	jal	ra,80004d84 <do_panic>

0000000080000c6c <do_lseek>:
{
    80000c6c:	1101                	addi	sp,sp,-32
    80000c6e:	ec06                	sd	ra,24(sp)
    80000c70:	e822                	sd	s0,16(sp)
    80000c72:	e426                	sd	s1,8(sp)
    80000c74:	842e                	mv	s0,a1
    80000c76:	84b2                	mv	s1,a2
    struct file *pfile = get_opened_file(fd);
    80000c78:	cb9ff0ef          	jal	ra,80000930 <get_opened_file>
    return vfs_lseek(pfile, offset, whence);
    80000c7c:	8626                	mv	a2,s1
    80000c7e:	85a2                	mv	a1,s0
    80000c80:	338020ef          	jal	ra,80002fb8 <vfs_lseek>
}
    80000c84:	2501                	sext.w	a0,a0
    80000c86:	60e2                	ld	ra,24(sp)
    80000c88:	6442                	ld	s0,16(sp)
    80000c8a:	64a2                	ld	s1,8(sp)
    80000c8c:	6105                	addi	sp,sp,32
    80000c8e:	8082                	ret

0000000080000c90 <do_stat>:
{
    80000c90:	1141                	addi	sp,sp,-16
    80000c92:	e406                	sd	ra,8(sp)
    80000c94:	e022                	sd	s0,0(sp)
    80000c96:	842e                	mv	s0,a1
    struct file *pfile = get_opened_file(fd);
    80000c98:	c99ff0ef          	jal	ra,80000930 <get_opened_file>
    return vfs_stat(pfile, istat);
    80000c9c:	85a2                	mv	a1,s0
    80000c9e:	360020ef          	jal	ra,80002ffe <vfs_stat>
}
    80000ca2:	60a2                	ld	ra,8(sp)
    80000ca4:	6402                	ld	s0,0(sp)
    80000ca6:	0141                	addi	sp,sp,16
    80000ca8:	8082                	ret

0000000080000caa <do_disk_stat>:
{
    80000caa:	1141                	addi	sp,sp,-16
    80000cac:	e406                	sd	ra,8(sp)
    80000cae:	e022                	sd	s0,0(sp)
    80000cb0:	842e                	mv	s0,a1
    struct file *pfile = get_opened_file(fd);
    80000cb2:	c7fff0ef          	jal	ra,80000930 <get_opened_file>
    return vfs_disk_stat(pfile, istat);
    80000cb6:	85a2                	mv	a1,s0
    80000cb8:	372020ef          	jal	ra,8000302a <vfs_disk_stat>
}
    80000cbc:	60a2                	ld	ra,8(sp)
    80000cbe:	6402                	ld	s0,0(sp)
    80000cc0:	0141                	addi	sp,sp,16
    80000cc2:	8082                	ret

0000000080000cc4 <do_close>:
{
    80000cc4:	1141                	addi	sp,sp,-16
    80000cc6:	e406                	sd	ra,8(sp)
    struct file *pfile = get_opened_file(fd);
    80000cc8:	c69ff0ef          	jal	ra,80000930 <get_opened_file>
    return vfs_close(pfile);
    80000ccc:	389020ef          	jal	ra,80003854 <vfs_close>
}
    80000cd0:	60a2                	ld	ra,8(sp)
    80000cd2:	0141                	addi	sp,sp,16
    80000cd4:	8082                	ret

0000000080000cd6 <do_opendir>:
{
    80000cd6:	1101                	addi	sp,sp,-32
    80000cd8:	ec06                	sd	ra,24(sp)
    80000cda:	e822                	sd	s0,16(sp)
    80000cdc:	e426                	sd	s1,8(sp)
    if ((opened_file = vfs_opendir(pathname)) == NULL)
    80000cde:	053020ef          	jal	ra,80003530 <vfs_opendir>
    80000ce2:	c53d                	beqz	a0,80000d50 <do_opendir+0x7a>
    80000ce4:	85aa                	mv	a1,a0
    for (fd = 0; fd < MAX_FILES; ++fd)
    80000ce6:	4401                	li	s0,0
    80000ce8:	07f00793          	li	a5,127
    80000cec:	0287c363          	blt	a5,s0,80000d12 <do_opendir+0x3c>
        pfile = &(current->pfiles->opened_files[fd]);
    80000cf0:	0000f797          	auipc	a5,0xf
    80000cf4:	5487b783          	ld	a5,1352(a5) # 80010238 <current>
    80000cf8:	1687b703          	ld	a4,360(a5)
    80000cfc:	00141793          	slli	a5,s0,0x1
    80000d00:	97a2                	add	a5,a5,s0
    80000d02:	078e                	slli	a5,a5,0x3
    80000d04:	97ba                	add	a5,a5,a4
    80000d06:	00878493          	addi	s1,a5,8
        if (pfile->status == FD_NONE)
    80000d0a:	479c                	lw	a5,8(a5)
    80000d0c:	c399                	beqz	a5,80000d12 <do_opendir+0x3c>
    for (fd = 0; fd < MAX_FILES; ++fd)
    80000d0e:	2405                	addiw	s0,s0,1
    80000d10:	bfe1                	j	80000ce8 <do_opendir+0x12>
    if (pfile->status != FD_NONE) // no free entry
    80000d12:	409c                	lw	a5,0(s1)
    80000d14:	eb85                	bnez	a5,80000d44 <do_opendir+0x6e>
    memcpy(pfile, opened_file, sizeof(struct file));
    80000d16:	4661                	li	a2,24
    80000d18:	8526                	mv	a0,s1
    80000d1a:	4f2030ef          	jal	ra,8000420c <memcpy>
    ++current->pfiles->nfiles;
    80000d1e:	0000f797          	auipc	a5,0xf
    80000d22:	51a7b783          	ld	a5,1306(a5) # 80010238 <current>
    80000d26:	1687b783          	ld	a5,360(a5)
    80000d2a:	6705                	lui	a4,0x1
    80000d2c:	97ba                	add	a5,a5,a4
    80000d2e:	c087a703          	lw	a4,-1016(a5)
    80000d32:	2705                	addiw	a4,a4,1
    80000d34:	c0e7a423          	sw	a4,-1016(a5)
}
    80000d38:	8522                	mv	a0,s0
    80000d3a:	60e2                	ld	ra,24(sp)
    80000d3c:	6442                	ld	s0,16(sp)
    80000d3e:	64a2                	ld	s1,8(sp)
    80000d40:	6105                	addi	sp,sp,32
    80000d42:	8082                	ret
        panic("do_opendir: no file entry for current process!\n");
    80000d44:	00007517          	auipc	a0,0x7
    80000d48:	b5450513          	addi	a0,a0,-1196 # 80007898 <rfs_i_ops+0x808>
    80000d4c:	038040ef          	jal	ra,80004d84 <do_panic>
        return -1;
    80000d50:	547d                	li	s0,-1
    80000d52:	b7dd                	j	80000d38 <do_opendir+0x62>

0000000080000d54 <do_readdir>:
{
    80000d54:	1141                	addi	sp,sp,-16
    80000d56:	e406                	sd	ra,8(sp)
    80000d58:	e022                	sd	s0,0(sp)
    80000d5a:	842e                	mv	s0,a1
    struct file *pfile = get_opened_file(fd);
    80000d5c:	bd5ff0ef          	jal	ra,80000930 <get_opened_file>
    return vfs_readdir(pfile, dir);
    80000d60:	85a2                	mv	a1,s0
    80000d62:	2dc020ef          	jal	ra,8000303e <vfs_readdir>
}
    80000d66:	60a2                	ld	ra,8(sp)
    80000d68:	6402                	ld	s0,0(sp)
    80000d6a:	0141                	addi	sp,sp,16
    80000d6c:	8082                	ret

0000000080000d6e <do_mkdir>:
{
    80000d6e:	1141                	addi	sp,sp,-16
    80000d70:	e406                	sd	ra,8(sp)
    return vfs_mkdir(pathname);
    80000d72:	13b020ef          	jal	ra,800036ac <vfs_mkdir>
}
    80000d76:	60a2                	ld	ra,8(sp)
    80000d78:	0141                	addi	sp,sp,16
    80000d7a:	8082                	ret

0000000080000d7c <do_closedir>:
{
    80000d7c:	1141                	addi	sp,sp,-16
    80000d7e:	e406                	sd	ra,8(sp)
    struct file *pfile = get_opened_file(fd);
    80000d80:	bb1ff0ef          	jal	ra,80000930 <get_opened_file>
    return vfs_closedir(pfile);
    80000d84:	2ea020ef          	jal	ra,8000306e <vfs_closedir>
}
    80000d88:	60a2                	ld	ra,8(sp)
    80000d8a:	0141                	addi	sp,sp,16
    80000d8c:	8082                	ret

0000000080000d8e <do_link>:
{
    80000d8e:	1141                	addi	sp,sp,-16
    80000d90:	e406                	sd	ra,8(sp)
    return vfs_link(oldpath, newpath);
    80000d92:	6dc020ef          	jal	ra,8000346e <vfs_link>
}
    80000d96:	60a2                	ld	ra,8(sp)
    80000d98:	0141                	addi	sp,sp,16
    80000d9a:	8082                	ret

0000000080000d9c <do_unlink>:
{
    80000d9c:	1141                	addi	sp,sp,-16
    80000d9e:	e406                	sd	ra,8(sp)
    return vfs_unlink(path);
    80000da0:	1e3020ef          	jal	ra,80003782 <vfs_unlink>
}
    80000da4:	60a2                	ld	ra,8(sp)
    80000da6:	0141                	addi	sp,sp,16
    80000da8:	8082                	ret

0000000080000daa <do_exec>:

int do_exec(char *path)
{
    80000daa:	1101                	addi	sp,sp,-32
    80000dac:	ec06                	sd	ra,24(sp)
    80000dae:	e822                	sd	s0,16(sp)
    80000db0:	e426                	sd	s1,8(sp)
    80000db2:	842a                	mv	s0,a0
    exec_clean(current);
    80000db4:	0000f497          	auipc	s1,0xf
    80000db8:	48448493          	addi	s1,s1,1156 # 80010238 <current>
    80000dbc:	6088                	ld	a0,0(s1)
    80000dbe:	676000ef          	jal	ra,80001434 <exec_clean>
    exec_bincode(current, path);
    80000dc2:	85a2                	mv	a1,s0
    80000dc4:	6088                	ld	a0,0(s1)
    80000dc6:	c37ff0ef          	jal	ra,800009fc <exec_bincode>
    return -1;
    80000dca:	557d                	li	a0,-1
    80000dcc:	60e2                	ld	ra,24(sp)
    80000dce:	6442                	ld	s0,16(sp)
    80000dd0:	64a2                	ld	s1,8(sp)
    80000dd2:	6105                	addi	sp,sp,32
    80000dd4:	8082                	ret

0000000080000dd6 <exec_clean_pagetable>:

    return child->pid;
}

// alloc_process
static void exec_clean_pagetable(pagetable_t page_dir) { // comment: pagetable_tuint64* 
    80000dd6:	715d                	addi	sp,sp,-80
    80000dd8:	e486                	sd	ra,72(sp)
    80000dda:	e0a2                	sd	s0,64(sp)
    80000ddc:	fc26                	sd	s1,56(sp)
    80000dde:	f84a                	sd	s2,48(sp)
    80000de0:	f44e                	sd	s3,40(sp)
    80000de2:	f052                	sd	s4,32(sp)
    80000de4:	ec56                	sd	s5,24(sp)
    80000de6:	e85a                	sd	s6,16(sp)
    80000de8:	e45e                	sd	s7,8(sp)
    80000dea:	e062                	sd	s8,0(sp)
    80000dec:	8baa                	mv	s7,a0
    int cnt = PGSIZE / sizeof(pte_t); // pte_tint
    int vaild_cnt = 0;
    int valid_and_writable_cnt = 0;
    for (int i = 0; i < cnt; i++) {
    80000dee:	4c01                	li	s8,0
    int valid_and_writable_cnt = 0;
    80000df0:	4a01                	li	s4,0
    int vaild_cnt = 0;
    80000df2:	4981                	li	s3,0
    for (int i = 0; i < cnt; i++) {
    80000df4:	a89d                	j	80000e6a <exec_clean_pagetable+0x94>
                                valid_and_writable_cnt ++;
                                sprint("lgm:the pa is %0x\n", PTE2PA(*pte3));
                                uint64 page = PTE2PA(*pte3);
                                free_page((void *)page); 
                            }
                            (*pte3) &= ~PTE_V; // 
    80000df6:	601c                	ld	a5,0(s0)
    80000df8:	9bf9                	andi	a5,a5,-2
    80000dfa:	e01c                	sd	a5,0(s0)
                    for (int k = 0; k < cnt; k++) {
    80000dfc:	2485                	addiw	s1,s1,1
    80000dfe:	1ff00793          	li	a5,511
    80000e02:	0297cc63          	blt	a5,s1,80000e3a <exec_clean_pagetable+0x64>
                        pte_t* pte3 = page_low_dir + k;
    80000e06:	00349413          	slli	s0,s1,0x3
    80000e0a:	944a                	add	s0,s0,s2
                        if (*pte3 & PTE_V) {
    80000e0c:	600c                	ld	a1,0(s0)
    80000e0e:	0015f793          	andi	a5,a1,1
    80000e12:	d7ed                	beqz	a5,80000dfc <exec_clean_pagetable+0x26>
                            vaild_cnt ++;
    80000e14:	2985                	addiw	s3,s3,1
                            if (*pte3 & PTE_W) {
    80000e16:	0045f793          	andi	a5,a1,4
    80000e1a:	dff1                	beqz	a5,80000df6 <exec_clean_pagetable+0x20>
                                valid_and_writable_cnt ++;
    80000e1c:	2a05                	addiw	s4,s4,1
                                sprint("lgm:the pa is %0x\n", PTE2PA(*pte3));
    80000e1e:	81a9                	srli	a1,a1,0xa
    80000e20:	05b2                	slli	a1,a1,0xc
    80000e22:	00007517          	auipc	a0,0x7
    80000e26:	aae50513          	addi	a0,a0,-1362 # 800078d0 <rfs_i_ops+0x840>
    80000e2a:	6b7030ef          	jal	ra,80004ce0 <sprint>
                                uint64 page = PTE2PA(*pte3);
    80000e2e:	6008                	ld	a0,0(s0)
    80000e30:	8129                	srli	a0,a0,0xa
                                free_page((void *)page); 
    80000e32:	0532                	slli	a0,a0,0xc
    80000e34:	8fbff0ef          	jal	ra,8000072e <free_page>
    80000e38:	bf7d                	j	80000df6 <exec_clean_pagetable+0x20>
                        }
                    }
                    // sprint("lgm:page_low_dir is %0x\n", page_low_dir);
                    free_page((void *)page_low_dir);
    80000e3a:	854a                	mv	a0,s2
    80000e3c:	8f3ff0ef          	jal	ra,8000072e <free_page>
            for (int j = 0; j < cnt; j++) {
    80000e40:	2a85                	addiw	s5,s5,1
    80000e42:	1ff00793          	li	a5,511
    80000e46:	0157ce63          	blt	a5,s5,80000e62 <exec_clean_pagetable+0x8c>
                pte_t* pte2 = page_mid_dir + j;
    80000e4a:	003a9793          	slli	a5,s5,0x3
    80000e4e:	97da                	add	a5,a5,s6
                if (*pte2 & PTE_V) {
    80000e50:	639c                	ld	a5,0(a5)
    80000e52:	0017f713          	andi	a4,a5,1
    80000e56:	d76d                	beqz	a4,80000e40 <exec_clean_pagetable+0x6a>
                    pagetable_t page_low_dir = (pagetable_t)PTE2PA(*pte2);
    80000e58:	83a9                	srli	a5,a5,0xa
    80000e5a:	00c79913          	slli	s2,a5,0xc
                    for (int k = 0; k < cnt; k++) {
    80000e5e:	4481                	li	s1,0
    80000e60:	bf79                	j	80000dfe <exec_clean_pagetable+0x28>
                }
            }
            // sprint("lgm:page_mid_dir is %0x\n", page_mid_dir);
            free_page((void *)page_mid_dir);
    80000e62:	855a                	mv	a0,s6
    80000e64:	8cbff0ef          	jal	ra,8000072e <free_page>
    for (int i = 0; i < cnt; i++) {
    80000e68:	2c05                	addiw	s8,s8,1
    80000e6a:	1ff00793          	li	a5,511
    80000e6e:	0187ce63          	blt	a5,s8,80000e8a <exec_clean_pagetable+0xb4>
        pte_t* pte1 = page_dir + i;
    80000e72:	003c1793          	slli	a5,s8,0x3
    80000e76:	97de                	add	a5,a5,s7
        if (*pte1 & PTE_V) {
    80000e78:	639c                	ld	a5,0(a5)
    80000e7a:	0017f713          	andi	a4,a5,1
    80000e7e:	d76d                	beqz	a4,80000e68 <exec_clean_pagetable+0x92>
            pagetable_t page_mid_dir = (pagetable_t)PTE2PA(*pte1);
    80000e80:	83a9                	srli	a5,a5,0xa
    80000e82:	00c79b13          	slli	s6,a5,0xc
            for (int j = 0; j < cnt; j++) {
    80000e86:	4a81                	li	s5,0
    80000e88:	bf6d                	j	80000e42 <exec_clean_pagetable+0x6c>
        }
    }
    // sprint("lgm:page_dir is %0x\n", page_dir);
    free_page((void *)page_dir);
    80000e8a:	855e                	mv	a0,s7
    80000e8c:	8a3ff0ef          	jal	ra,8000072e <free_page>
    // sprint("exec_clean_pagetable end\n");
    // panic("stop");
    sprint("                                         vaild_cnt is %d, valid_and_writable_cnt is %d\n", vaild_cnt, valid_and_writable_cnt);
    80000e90:	8652                	mv	a2,s4
    80000e92:	85ce                	mv	a1,s3
    80000e94:	00007517          	auipc	a0,0x7
    80000e98:	a5450513          	addi	a0,a0,-1452 # 800078e8 <rfs_i_ops+0x858>
    80000e9c:	645030ef          	jal	ra,80004ce0 <sprint>
}
    80000ea0:	60a6                	ld	ra,72(sp)
    80000ea2:	6406                	ld	s0,64(sp)
    80000ea4:	74e2                	ld	s1,56(sp)
    80000ea6:	7942                	ld	s2,48(sp)
    80000ea8:	79a2                	ld	s3,40(sp)
    80000eaa:	7a02                	ld	s4,32(sp)
    80000eac:	6ae2                	ld	s5,24(sp)
    80000eae:	6b42                	ld	s6,16(sp)
    80000eb0:	6ba2                	ld	s7,8(sp)
    80000eb2:	6c02                	ld	s8,0(sp)
    80000eb4:	6161                	addi	sp,sp,80
    80000eb6:	8082                	ret

0000000080000eb8 <switch_to>:
{
    80000eb8:	1141                	addi	sp,sp,-16
    80000eba:	e406                	sd	ra,8(sp)
    assert(proc);
    80000ebc:	c135                	beqz	a0,80000f20 <switch_to+0x68>
    80000ebe:	87aa                	mv	a5,a0
    current = proc;
    80000ec0:	0000f717          	auipc	a4,0xf
    80000ec4:	36a73c23          	sd	a0,888(a4) # 80010238 <current>
    write_csr(stvec, (uint64)smode_trap_vector);
    80000ec8:	00005717          	auipc	a4,0x5
    80000ecc:	13870713          	addi	a4,a4,312 # 80006000 <_trap_sec_start>
    80000ed0:	10571073          	csrw	stvec,a4
    proc->trapframe->kernel_sp = proc->kstack;     // process's kernel stack
    80000ed4:	6918                	ld	a4,16(a0)
    80000ed6:	6114                	ld	a3,0(a0)
    80000ed8:	ff74                	sd	a3,248(a4)
    proc->trapframe->kernel_satp = read_csr(satp); // kernel page table
    80000eda:	180026f3          	csrr	a3,satp
    80000ede:	6918                	ld	a4,16(a0)
    80000ee0:	10d73823          	sd	a3,272(a4)
    proc->trapframe->kernel_trap = (uint64)smode_trap_handler;
    80000ee4:	6918                	ld	a4,16(a0)
    80000ee6:	00002697          	auipc	a3,0x2
    80000eea:	92668693          	addi	a3,a3,-1754 # 8000280c <smode_trap_handler>
    80000eee:	10d73023          	sd	a3,256(a4)
    unsigned long x = read_csr(sstatus);
    80000ef2:	10002773          	csrr	a4,sstatus
    x &= ~SSTATUS_SPP; // clear SPP to 0 for user mode
    80000ef6:	eff77713          	andi	a4,a4,-257
    x |= SSTATUS_SPIE; // enable interrupts in user mode
    80000efa:	02076713          	ori	a4,a4,32
    write_csr(sstatus, x);
    80000efe:	10071073          	csrw	sstatus,a4
    write_csr(sepc, proc->trapframe->epc);
    80000f02:	6908                	ld	a0,16(a0)
    80000f04:	10853703          	ld	a4,264(a0)
    80000f08:	14171073          	csrw	sepc,a4
    uint64 user_satp = MAKE_SATP(proc->pagetable);
    80000f0c:	678c                	ld	a1,8(a5)
    80000f0e:	81b1                	srli	a1,a1,0xc
    return_to_user(proc->trapframe, user_satp);
    80000f10:	57fd                	li	a5,-1
    80000f12:	17fe                	slli	a5,a5,0x3f
    80000f14:	8ddd                	or	a1,a1,a5
    80000f16:	18a050ef          	jal	ra,800060a0 <return_to_user>
}
    80000f1a:	60a2                	ld	ra,8(sp)
    80000f1c:	0141                	addi	sp,sp,16
    80000f1e:	8082                	ret
    assert(proc);
    80000f20:	00007697          	auipc	a3,0x7
    80000f24:	a2068693          	addi	a3,a3,-1504 # 80007940 <rfs_i_ops+0x8b0>
    80000f28:	02800613          	li	a2,40
    80000f2c:	00007597          	auipc	a1,0x7
    80000f30:	a1c58593          	addi	a1,a1,-1508 # 80007948 <rfs_i_ops+0x8b8>
    80000f34:	00007517          	auipc	a0,0x7
    80000f38:	a2c50513          	addi	a0,a0,-1492 # 80007960 <rfs_i_ops+0x8d0>
    80000f3c:	5a5030ef          	jal	ra,80004ce0 <sprint>
    80000f40:	6541                	lui	a0,0x10
    80000f42:	157d                	addi	a0,a0,-1
    80000f44:	5bd030ef          	jal	ra,80004d00 <poweroff>

0000000080000f48 <init_proc_pool>:
{
    80000f48:	1141                	addi	sp,sp,-16
    80000f4a:	e406                	sd	ra,8(sp)
    memset(procs, 0, sizeof(process) * NPROC);
    80000f4c:	660d                	lui	a2,0x3
    80000f4e:	f0060613          	addi	a2,a2,-256 # 2f00 <elf_fpread-0x7fffd100>
    80000f52:	4581                	li	a1,0
    80000f54:	00009517          	auipc	a0,0x9
    80000f58:	4cc50513          	addi	a0,a0,1228 # 8000a420 <procs>
    80000f5c:	2e8030ef          	jal	ra,80004244 <memset>
    for (int i = 0; i < NPROC; ++i)
    80000f60:	4781                	li	a5,0
    80000f62:	a839                	j	80000f80 <init_proc_pool+0x38>
        procs[i].status = FREE;
    80000f64:	17800693          	li	a3,376
    80000f68:	02d786b3          	mul	a3,a5,a3
    80000f6c:	00009717          	auipc	a4,0x9
    80000f70:	4b470713          	addi	a4,a4,1204 # 8000a420 <procs>
    80000f74:	9736                	add	a4,a4,a3
    80000f76:	14072423          	sw	zero,328(a4)
        procs[i].pid = i;
    80000f7a:	14f73023          	sd	a5,320(a4)
    for (int i = 0; i < NPROC; ++i)
    80000f7e:	2785                	addiw	a5,a5,1
    80000f80:	477d                	li	a4,31
    80000f82:	fef751e3          	bge	a4,a5,80000f64 <init_proc_pool+0x1c>
}
    80000f86:	60a2                	ld	ra,8(sp)
    80000f88:	0141                	addi	sp,sp,16
    80000f8a:	8082                	ret

0000000080000f8c <alloc_process>:
{
    80000f8c:	7179                	addi	sp,sp,-48
    80000f8e:	f406                	sd	ra,40(sp)
    80000f90:	f022                	sd	s0,32(sp)
    80000f92:	ec26                	sd	s1,24(sp)
    80000f94:	e84a                	sd	s2,16(sp)
    80000f96:	e44e                	sd	s3,8(sp)
    for (i = 0; i < NPROC; i++)
    80000f98:	4401                	li	s0,0
    80000f9a:	47fd                	li	a5,31
    80000f9c:	0287c063          	blt	a5,s0,80000fbc <alloc_process+0x30>
        if (procs[i].status == FREE)
    80000fa0:	17800713          	li	a4,376
    80000fa4:	02e40733          	mul	a4,s0,a4
    80000fa8:	00009797          	auipc	a5,0x9
    80000fac:	47878793          	addi	a5,a5,1144 # 8000a420 <procs>
    80000fb0:	97ba                	add	a5,a5,a4
    80000fb2:	1487a783          	lw	a5,328(a5)
    80000fb6:	c399                	beqz	a5,80000fbc <alloc_process+0x30>
    for (i = 0; i < NPROC; i++)
    80000fb8:	2405                	addiw	s0,s0,1
    80000fba:	b7c5                	j	80000f9a <alloc_process+0xe>
    if (i >= NPROC)
    80000fbc:	47fd                	li	a5,31
    80000fbe:	1487c663          	blt	a5,s0,8000110a <alloc_process+0x17e>
    procs[i].trapframe = (trapframe *)alloc_page(); // trapframe, used to save context
    80000fc2:	fe2ff0ef          	jal	ra,800007a4 <alloc_page>
    80000fc6:	17800793          	li	a5,376
    80000fca:	02f40433          	mul	s0,s0,a5
    80000fce:	00009797          	auipc	a5,0x9
    80000fd2:	45278793          	addi	a5,a5,1106 # 8000a420 <procs>
    80000fd6:	943e                	add	s0,s0,a5
    80000fd8:	e808                	sd	a0,16(s0)
    memset(procs[i].trapframe, 0, sizeof(trapframe));
    80000fda:	11800613          	li	a2,280
    80000fde:	4581                	li	a1,0
    80000fe0:	264030ef          	jal	ra,80004244 <memset>
    procs[i].pagetable = (pagetable_t)alloc_page();
    80000fe4:	fc0ff0ef          	jal	ra,800007a4 <alloc_page>
    80000fe8:	e408                	sd	a0,8(s0)
    memset((void *)procs[i].pagetable, 0, PGSIZE);
    80000fea:	6605                	lui	a2,0x1
    80000fec:	4581                	li	a1,0
    80000fee:	256030ef          	jal	ra,80004244 <memset>
    procs[i].kstack = (uint64)alloc_page() + PGSIZE; // user kernel stack top
    80000ff2:	fb2ff0ef          	jal	ra,800007a4 <alloc_page>
    80000ff6:	6785                	lui	a5,0x1
    80000ff8:	953e                	add	a0,a0,a5
    80000ffa:	e008                	sd	a0,0(s0)
    uint64 user_stack = (uint64)alloc_page();        // phisical address of user stack bottom
    80000ffc:	fa8ff0ef          	jal	ra,800007a4 <alloc_page>
    80001000:	84aa                	mv	s1,a0
    procs[i].trapframe->regs.sp = USER_STACK_TOP;    // virtual address of user stack top
    80001002:	681c                	ld	a5,16(s0)
    80001004:	7ffff737          	lui	a4,0x7ffff
    80001008:	e798                	sd	a4,8(a5)
    procs[i].mapped_info = (mapped_region *)alloc_page();
    8000100a:	f9aff0ef          	jal	ra,800007a4 <alloc_page>
    8000100e:	ec08                	sd	a0,24(s0)
    memset(procs[i].mapped_info, 0, PGSIZE);
    80001010:	6605                	lui	a2,0x1
    80001012:	4581                	li	a1,0
    80001014:	230030ef          	jal	ra,80004244 <memset>
    user_vm_map((pagetable_t)procs[i].pagetable, USER_STACK_TOP - PGSIZE, PGSIZE,
    80001018:	00843903          	ld	s2,8(s0)
                user_stack, prot_to_type(PROT_WRITE | PROT_READ, 1));
    8000101c:	4585                	li	a1,1
    8000101e:	450d                	li	a0,3
    80001020:	101020ef          	jal	ra,80003920 <prot_to_type>
    user_vm_map((pagetable_t)procs[i].pagetable, USER_STACK_TOP - PGSIZE, PGSIZE,
    80001024:	0005071b          	sext.w	a4,a0
    80001028:	86a6                	mv	a3,s1
    8000102a:	6605                	lui	a2,0x1
    8000102c:	7fffe5b7          	lui	a1,0x7fffe
    80001030:	854a                	mv	a0,s2
    80001032:	349020ef          	jal	ra,80003b7a <user_vm_map>
    procs[i].mapped_info[STACK_SEGMENT].va = USER_STACK_TOP - PGSIZE;
    80001036:	6c1c                	ld	a5,24(s0)
    80001038:	7fffe737          	lui	a4,0x7fffe
    8000103c:	e398                	sd	a4,0(a5)
    procs[i].mapped_info[STACK_SEGMENT].npages = 1;
    8000103e:	6c1c                	ld	a5,24(s0)
    80001040:	4485                	li	s1,1
    80001042:	c784                	sw	s1,8(a5)
    procs[i].mapped_info[STACK_SEGMENT].seg_type = STACK_SEGMENT;
    80001044:	6c1c                	ld	a5,24(s0)
    80001046:	0007a623          	sw	zero,12(a5) # 100c <elf_fpread-0x7fffeff4>
    user_vm_map((pagetable_t)procs[i].pagetable, (uint64)procs[i].trapframe, PGSIZE,
    8000104a:	00843983          	ld	s3,8(s0)
    8000104e:	01043903          	ld	s2,16(s0)
                (uint64)procs[i].trapframe, prot_to_type(PROT_WRITE | PROT_READ, 0));
    80001052:	4581                	li	a1,0
    80001054:	450d                	li	a0,3
    80001056:	0cb020ef          	jal	ra,80003920 <prot_to_type>
    user_vm_map((pagetable_t)procs[i].pagetable, (uint64)procs[i].trapframe, PGSIZE,
    8000105a:	0005071b          	sext.w	a4,a0
    8000105e:	86ca                	mv	a3,s2
    80001060:	6605                	lui	a2,0x1
    80001062:	85ca                	mv	a1,s2
    80001064:	854e                	mv	a0,s3
    80001066:	315020ef          	jal	ra,80003b7a <user_vm_map>
    procs[i].mapped_info[CONTEXT_SEGMENT].va = (uint64)procs[i].trapframe;
    8000106a:	6818                	ld	a4,16(s0)
    8000106c:	6c1c                	ld	a5,24(s0)
    8000106e:	eb98                	sd	a4,16(a5)
    procs[i].mapped_info[CONTEXT_SEGMENT].npages = 1;
    80001070:	6c1c                	ld	a5,24(s0)
    80001072:	cf84                	sw	s1,24(a5)
    procs[i].mapped_info[CONTEXT_SEGMENT].seg_type = CONTEXT_SEGMENT;
    80001074:	6c1c                	ld	a5,24(s0)
    80001076:	cfc4                	sw	s1,28(a5)
    user_vm_map((pagetable_t)procs[i].pagetable, (uint64)trap_sec_start, PGSIZE,
    80001078:	00843983          	ld	s3,8(s0)
    8000107c:	00005917          	auipc	s2,0x5
    80001080:	f8490913          	addi	s2,s2,-124 # 80006000 <_trap_sec_start>
                (uint64)trap_sec_start, prot_to_type(PROT_READ | PROT_EXEC, 0));
    80001084:	4581                	li	a1,0
    80001086:	4515                	li	a0,5
    80001088:	099020ef          	jal	ra,80003920 <prot_to_type>
    user_vm_map((pagetable_t)procs[i].pagetable, (uint64)trap_sec_start, PGSIZE,
    8000108c:	0005071b          	sext.w	a4,a0
    80001090:	86ca                	mv	a3,s2
    80001092:	6605                	lui	a2,0x1
    80001094:	85ca                	mv	a1,s2
    80001096:	854e                	mv	a0,s3
    80001098:	2e3020ef          	jal	ra,80003b7a <user_vm_map>
    procs[i].mapped_info[SYSTEM_SEGMENT].va = (uint64)trap_sec_start;
    8000109c:	6c1c                	ld	a5,24(s0)
    8000109e:	0327b023          	sd	s2,32(a5)
    procs[i].mapped_info[SYSTEM_SEGMENT].npages = 1;
    800010a2:	6c1c                	ld	a5,24(s0)
    800010a4:	d784                	sw	s1,40(a5)
    procs[i].mapped_info[SYSTEM_SEGMENT].seg_type = SYSTEM_SEGMENT;
    800010a6:	6c1c                	ld	a5,24(s0)
    800010a8:	4709                	li	a4,2
    800010aa:	d7d8                	sw	a4,44(a5)
    sprint("in alloc_proc. user frame 0x%lx, user stack 0x%lx, user kstack 0x%lx \n",
    800010ac:	680c                	ld	a1,16(s0)
    800010ae:	6014                	ld	a3,0(s0)
    800010b0:	6590                	ld	a2,8(a1)
    800010b2:	00007517          	auipc	a0,0x7
    800010b6:	8fe50513          	addi	a0,a0,-1794 # 800079b0 <rfs_i_ops+0x920>
    800010ba:	427030ef          	jal	ra,80004ce0 <sprint>
    procs[i].user_heap.heap_top = USER_FREE_ADDRESS_START;
    800010be:	004007b7          	lui	a5,0x400
    800010c2:	f41c                	sd	a5,40(s0)
    procs[i].user_heap.heap_bottom = USER_FREE_ADDRESS_START;
    800010c4:	f81c                	sd	a5,48(s0)
    procs[i].user_heap.free_pages_count = 0;
    800010c6:	12042c23          	sw	zero,312(s0)
    procs[i].mapped_info[HEAP_SEGMENT].va = USER_FREE_ADDRESS_START;
    800010ca:	6c18                	ld	a4,24(s0)
    800010cc:	fb1c                	sd	a5,48(a4)
    procs[i].mapped_info[HEAP_SEGMENT].npages = 0; // no pages are mapped to heap yet.
    800010ce:	6c1c                	ld	a5,24(s0)
    800010d0:	0207ac23          	sw	zero,56(a5) # 400038 <elf_fpread-0x7fbfffc8>
    procs[i].mapped_info[HEAP_SEGMENT].seg_type = HEAP_SEGMENT;
    800010d4:	6c1c                	ld	a5,24(s0)
    800010d6:	470d                	li	a4,3
    800010d8:	dfd8                	sw	a4,60(a5)
    procs[i].total_mapped_region = 4;
    800010da:	4791                	li	a5,4
    800010dc:	d01c                	sw	a5,32(s0)
    procs[i].pfiles = init_proc_file_management();
    800010de:	ff4ff0ef          	jal	ra,800008d2 <init_proc_file_management>
    800010e2:	16a43423          	sd	a0,360(s0)
    sprint("in alloc_proc. build proc_file_management successfully.\n");
    800010e6:	00007517          	auipc	a0,0x7
    800010ea:	91250513          	addi	a0,a0,-1774 # 800079f8 <rfs_i_ops+0x968>
    800010ee:	3f3030ef          	jal	ra,80004ce0 <sprint>
    procs[i].wait_pid = 0; // 
    800010f2:	16043823          	sd	zero,368(s0)
    procs[i].parent = NULL; // 
    800010f6:	14043823          	sd	zero,336(s0)
}
    800010fa:	8522                	mv	a0,s0
    800010fc:	70a2                	ld	ra,40(sp)
    800010fe:	7402                	ld	s0,32(sp)
    80001100:	64e2                	ld	s1,24(sp)
    80001102:	6942                	ld	s2,16(sp)
    80001104:	69a2                	ld	s3,8(sp)
    80001106:	6145                	addi	sp,sp,48
    80001108:	8082                	ret
        panic("cannot find any free process structure.\n");
    8000110a:	00007517          	auipc	a0,0x7
    8000110e:	87650513          	addi	a0,a0,-1930 # 80007980 <rfs_i_ops+0x8f0>
    80001112:	473030ef          	jal	ra,80004d84 <do_panic>

0000000080001116 <free_process>:
    proc->status = ZOMBIE;
    80001116:	4791                	li	a5,4
    80001118:	14f52423          	sw	a5,328(a0)
}
    8000111c:	4501                	li	a0,0
    8000111e:	8082                	ret

0000000080001120 <do_fork>:
{
    80001120:	7155                	addi	sp,sp,-208
    80001122:	e586                	sd	ra,200(sp)
    80001124:	e1a2                	sd	s0,192(sp)
    80001126:	fd26                	sd	s1,184(sp)
    80001128:	f94a                	sd	s2,176(sp)
    8000112a:	f54e                	sd	s3,168(sp)
    8000112c:	f152                	sd	s4,160(sp)
    8000112e:	ed56                	sd	s5,152(sp)
    80001130:	e95a                	sd	s6,144(sp)
    80001132:	e55e                	sd	s7,136(sp)
    80001134:	84aa                	mv	s1,a0
    sprint("will fork a child from parent %d.\n", parent->pid);
    80001136:	14053583          	ld	a1,320(a0)
    8000113a:	00007517          	auipc	a0,0x7
    8000113e:	8fe50513          	addi	a0,a0,-1794 # 80007a38 <rfs_i_ops+0x9a8>
    80001142:	39f030ef          	jal	ra,80004ce0 <sprint>
    process *child = alloc_process(); // alloc_process
    80001146:	e47ff0ef          	jal	ra,80000f8c <alloc_process>
    8000114a:	842a                	mv	s0,a0
    for (int i = 0; i < parent->total_mapped_region; i++)
    8000114c:	4901                	li	s2,0
    8000114e:	a81d                	j	80001184 <do_fork+0x64>
            *child->trapframe = *parent->trapframe;
    80001150:	6894                	ld	a3,16(s1)
    80001152:	87b6                	mv	a5,a3
    80001154:	6818                	ld	a4,16(s0)
    80001156:	11868693          	addi	a3,a3,280
    8000115a:	0007b883          	ld	a7,0(a5)
    8000115e:	0087b803          	ld	a6,8(a5)
    80001162:	6b88                	ld	a0,16(a5)
    80001164:	6f8c                	ld	a1,24(a5)
    80001166:	7390                	ld	a2,32(a5)
    80001168:	01173023          	sd	a7,0(a4) # 7fffe000 <elf_fpread-0x2000>
    8000116c:	01073423          	sd	a6,8(a4)
    80001170:	eb08                	sd	a0,16(a4)
    80001172:	ef0c                	sd	a1,24(a4)
    80001174:	f310                	sd	a2,32(a4)
    80001176:	02878793          	addi	a5,a5,40
    8000117a:	02870713          	addi	a4,a4,40
    8000117e:	fcd79ee3          	bne	a5,a3,8000115a <do_fork+0x3a>
    for (int i = 0; i < parent->total_mapped_region; i++)
    80001182:	2905                	addiw	s2,s2,1
    80001184:	509c                	lw	a5,32(s1)
    80001186:	20f95863          	bge	s2,a5,80001396 <do_fork+0x276>
        switch (parent->mapped_info[i].seg_type)
    8000118a:	6c98                	ld	a4,24(s1)
    8000118c:	00491993          	slli	s3,s2,0x4
    80001190:	974e                	add	a4,a4,s3
    80001192:	475c                	lw	a5,12(a4)
    80001194:	4695                	li	a3,5
    80001196:	fef6e6e3          	bltu	a3,a5,80001182 <do_fork+0x62>
    8000119a:	078a                	slli	a5,a5,0x2
    8000119c:	00006697          	auipc	a3,0x6
    800011a0:	edc68693          	addi	a3,a3,-292 # 80007078 <hostfs_i_ops+0x78>
    800011a4:	97b6                	add	a5,a5,a3
    800011a6:	439c                	lw	a5,0(a5)
    800011a8:	97b6                	add	a5,a5,a3
    800011aa:	8782                	jr	a5
            memcpy((void *)lookup_pa(child->pagetable, child->mapped_info[STACK_SEGMENT].va),
    800011ac:	6c1c                	ld	a5,24(s0)
    800011ae:	638c                	ld	a1,0(a5)
    800011b0:	6408                	ld	a0,8(s0)
    800011b2:	0ad020ef          	jal	ra,80003a5e <lookup_pa>
    800011b6:	8a2a                	mv	s4,a0
                   (void *)lookup_pa(parent->pagetable, parent->mapped_info[i].va), PGSIZE);
    800011b8:	6c9c                	ld	a5,24(s1)
    800011ba:	97ce                	add	a5,a5,s3
    800011bc:	638c                	ld	a1,0(a5)
    800011be:	6488                	ld	a0,8(s1)
    800011c0:	09f020ef          	jal	ra,80003a5e <lookup_pa>
    800011c4:	85aa                	mv	a1,a0
            memcpy((void *)lookup_pa(child->pagetable, child->mapped_info[STACK_SEGMENT].va),
    800011c6:	6605                	lui	a2,0x1
    800011c8:	8552                	mv	a0,s4
    800011ca:	042030ef          	jal	ra,8000420c <memcpy>
            break;
    800011ce:	bf55                	j	80001182 <do_fork+0x62>
                memset(free_block_filter, 0, MAX_HEAP_PAGES);
    800011d0:	02000613          	li	a2,32
    800011d4:	4581                	li	a1,0
    800011d6:	850a                	mv	a0,sp
    800011d8:	06c030ef          	jal	ra,80004244 <memset>
                uint64 heap_bottom = parent->user_heap.heap_bottom;
    800011dc:	0304b983          	ld	s3,48(s1)
                for (int i = 0; i < parent->user_heap.free_pages_count; i++)
    800011e0:	4701                	li	a4,0
    800011e2:	a015                	j	80001206 <do_fork+0xe6>
                    int index = (parent->user_heap.free_pages_address[i] - heap_bottom) / PGSIZE;
    800011e4:	00670793          	addi	a5,a4,6
    800011e8:	078e                	slli	a5,a5,0x3
    800011ea:	97a6                	add	a5,a5,s1
    800011ec:	679c                	ld	a5,8(a5)
    800011ee:	413787b3          	sub	a5,a5,s3
    800011f2:	83b1                	srli	a5,a5,0xc
    800011f4:	2781                	sext.w	a5,a5
                    free_block_filter[index] = 1;
    800011f6:	078a                	slli	a5,a5,0x2
    800011f8:	08078793          	addi	a5,a5,128
    800011fc:	978a                	add	a5,a5,sp
    800011fe:	4685                	li	a3,1
    80001200:	f8d7a023          	sw	a3,-128(a5)
                for (int i = 0; i < parent->user_heap.free_pages_count; i++)
    80001204:	2705                	addiw	a4,a4,1
    80001206:	1384a683          	lw	a3,312(s1)
    8000120a:	0007079b          	sext.w	a5,a4
    8000120e:	fcd7ebe3          	bltu	a5,a3,800011e4 <do_fork+0xc4>
                for (uint64 heap_block = current->user_heap.heap_bottom;
    80001212:	0000f797          	auipc	a5,0xf
    80001216:	0267b783          	ld	a5,38(a5) # 80010238 <current>
    8000121a:	0307ba03          	ld	s4,48(a5)
    8000121e:	a019                	j	80001224 <do_fork+0x104>
                     heap_block < current->user_heap.heap_top; heap_block += PGSIZE)
    80001220:	6785                	lui	a5,0x1
    80001222:	9a3e                	add	s4,s4,a5
    80001224:	0000f797          	auipc	a5,0xf
    80001228:	0147b783          	ld	a5,20(a5) # 80010238 <current>
    8000122c:	779c                	ld	a5,40(a5)
    8000122e:	04fa7763          	bgeu	s4,a5,8000127c <do_fork+0x15c>
                    if (free_block_filter[(heap_block - heap_bottom) / PGSIZE]) // skip free blocks
    80001232:	413a07b3          	sub	a5,s4,s3
    80001236:	83b1                	srli	a5,a5,0xc
    80001238:	078a                	slli	a5,a5,0x2
    8000123a:	08078793          	addi	a5,a5,128
    8000123e:	978a                	add	a5,a5,sp
    80001240:	f807a783          	lw	a5,-128(a5)
    80001244:	fff1                	bnez	a5,80001220 <do_fork+0x100>
                    void *child_pa = alloc_page();
    80001246:	d5eff0ef          	jal	ra,800007a4 <alloc_page>
    8000124a:	8aaa                	mv	s5,a0
                    memcpy(child_pa, (void *)lookup_pa(parent->pagetable, heap_block), PGSIZE);
    8000124c:	85d2                	mv	a1,s4
    8000124e:	6488                	ld	a0,8(s1)
    80001250:	00f020ef          	jal	ra,80003a5e <lookup_pa>
    80001254:	85aa                	mv	a1,a0
    80001256:	6605                	lui	a2,0x1
    80001258:	8556                	mv	a0,s5
    8000125a:	7b3020ef          	jal	ra,8000420c <memcpy>
                    user_vm_map((pagetable_t)child->pagetable, heap_block, PGSIZE, (uint64)child_pa,
    8000125e:	00843b03          	ld	s6,8(s0)
                                prot_to_type(PROT_WRITE | PROT_READ, 1));
    80001262:	4585                	li	a1,1
    80001264:	450d                	li	a0,3
    80001266:	6ba020ef          	jal	ra,80003920 <prot_to_type>
                    user_vm_map((pagetable_t)child->pagetable, heap_block, PGSIZE, (uint64)child_pa,
    8000126a:	0005071b          	sext.w	a4,a0
    8000126e:	86d6                	mv	a3,s5
    80001270:	6605                	lui	a2,0x1
    80001272:	85d2                	mv	a1,s4
    80001274:	855a                	mv	a0,s6
    80001276:	105020ef          	jal	ra,80003b7a <user_vm_map>
    8000127a:	b75d                	j	80001220 <do_fork+0x100>
                child->mapped_info[HEAP_SEGMENT].npages = parent->mapped_info[HEAP_SEGMENT].npages;
    8000127c:	6c98                	ld	a4,24(s1)
    8000127e:	6c1c                	ld	a5,24(s0)
    80001280:	5f18                	lw	a4,56(a4)
    80001282:	df98                	sw	a4,56(a5)
                memcpy((void *)&child->user_heap, (void *)&parent->user_heap, sizeof(parent->user_heap));
    80001284:	11800613          	li	a2,280
    80001288:	02848593          	addi	a1,s1,40
    8000128c:	02840513          	addi	a0,s0,40
    80001290:	77d020ef          	jal	ra,8000420c <memcpy>
            break;
    80001294:	b5fd                	j	80001182 <do_fork+0x62>
            map_pages(child->pagetable, parent->mapped_info[i].va,
    80001296:	00843b03          	ld	s6,8(s0)
    8000129a:	00073a83          	ld	s5,0(a4)
                      parent->mapped_info[i].npages, lookup_pa(parent->pagetable, parent->mapped_info[i].va),
    8000129e:	00872b83          	lw	s7,8(a4)
            map_pages(child->pagetable, parent->mapped_info[i].va,
    800012a2:	85d6                	mv	a1,s5
    800012a4:	6488                	ld	a0,8(s1)
    800012a6:	7b8020ef          	jal	ra,80003a5e <lookup_pa>
    800012aa:	8a2a                	mv	s4,a0
                      prot_to_type(PROT_READ | PROT_EXEC, 1));
    800012ac:	4585                	li	a1,1
    800012ae:	4515                	li	a0,5
    800012b0:	670020ef          	jal	ra,80003920 <prot_to_type>
            map_pages(child->pagetable, parent->mapped_info[i].va,
    800012b4:	0005071b          	sext.w	a4,a0
    800012b8:	86d2                	mv	a3,s4
    800012ba:	020b9613          	slli	a2,s7,0x20
    800012be:	9201                	srli	a2,a2,0x20
    800012c0:	85d6                	mv	a1,s5
    800012c2:	855a                	mv	a0,s6
    800012c4:	722020ef          	jal	ra,800039e6 <map_pages>
            child->mapped_info[child->total_mapped_region].va = parent->mapped_info[i].va;
    800012c8:	6c98                	ld	a4,24(s1)
    800012ca:	974e                	add	a4,a4,s3
    800012cc:	6c1c                	ld	a5,24(s0)
    800012ce:	5014                	lw	a3,32(s0)
    800012d0:	0692                	slli	a3,a3,0x4
    800012d2:	97b6                	add	a5,a5,a3
    800012d4:	6318                	ld	a4,0(a4)
    800012d6:	e398                	sd	a4,0(a5)
                parent->mapped_info[i].npages;
    800012d8:	6c98                	ld	a4,24(s1)
    800012da:	974e                	add	a4,a4,s3
            child->mapped_info[child->total_mapped_region].npages =
    800012dc:	6c1c                	ld	a5,24(s0)
    800012de:	5014                	lw	a3,32(s0)
    800012e0:	0692                	slli	a3,a3,0x4
    800012e2:	97b6                	add	a5,a5,a3
                parent->mapped_info[i].npages;
    800012e4:	4718                	lw	a4,8(a4)
            child->mapped_info[child->total_mapped_region].npages =
    800012e6:	c798                	sw	a4,8(a5)
            child->mapped_info[child->total_mapped_region].seg_type = CODE_SEGMENT;
    800012e8:	6c1c                	ld	a5,24(s0)
    800012ea:	5018                	lw	a4,32(s0)
    800012ec:	0712                	slli	a4,a4,0x4
    800012ee:	97ba                	add	a5,a5,a4
    800012f0:	4711                	li	a4,4
    800012f2:	c7d8                	sw	a4,12(a5)
            child->total_mapped_region++; // TODO: don't understand this line
    800012f4:	501c                	lw	a5,32(s0)
    800012f6:	2785                	addiw	a5,a5,1
    800012f8:	d01c                	sw	a5,32(s0)
            break;
    800012fa:	b561                	j	80001182 <do_fork+0x62>
            child->mapped_info[child->total_mapped_region].seg_type = DATA_SEGMENT;
    800012fc:	6c1c                	ld	a5,24(s0)
    800012fe:	5018                	lw	a4,32(s0)
    80001300:	0712                	slli	a4,a4,0x4
    80001302:	97ba                	add	a5,a5,a4
    80001304:	4715                	li	a4,5
    80001306:	c7d8                	sw	a4,12(a5)
            child->mapped_info[child->total_mapped_region].va = parent->mapped_info[i].va;
    80001308:	6c98                	ld	a4,24(s1)
    8000130a:	974e                	add	a4,a4,s3
    8000130c:	6c1c                	ld	a5,24(s0)
    8000130e:	5014                	lw	a3,32(s0)
    80001310:	0692                	slli	a3,a3,0x4
    80001312:	97b6                	add	a5,a5,a3
    80001314:	6318                	ld	a4,0(a4)
    80001316:	e398                	sd	a4,0(a5)
            child->mapped_info[child->total_mapped_region].npages = parent->mapped_info[i].npages;
    80001318:	6c98                	ld	a4,24(s1)
    8000131a:	974e                	add	a4,a4,s3
    8000131c:	6c1c                	ld	a5,24(s0)
    8000131e:	5014                	lw	a3,32(s0)
    80001320:	0692                	slli	a3,a3,0x4
    80001322:	97b6                	add	a5,a5,a3
    80001324:	4718                	lw	a4,8(a4)
    80001326:	c798                	sw	a4,8(a5)
            for (int i = 0; i < child->mapped_info[child->total_mapped_region].npages; i++) {
    80001328:	4a81                	li	s5,0
    8000132a:	a889                	j	8000137c <do_fork+0x25c>
            uint64 child_pa = (uint64)alloc_page();
    8000132c:	c78ff0ef          	jal	ra,800007a4 <alloc_page>
    80001330:	8a2a                	mv	s4,a0
            memcpy((void*)child_pa, (void*)lookup_pa(parent->pagetable, child->mapped_info[child->total_mapped_region].va + i * PGSIZE), PGSIZE);
    80001332:	6c1c                	ld	a5,24(s0)
    80001334:	5018                	lw	a4,32(s0)
    80001336:	0712                	slli	a4,a4,0x4
    80001338:	97ba                	add	a5,a5,a4
    8000133a:	638c                	ld	a1,0(a5)
    8000133c:	00ca999b          	slliw	s3,s5,0xc
    80001340:	95ce                	add	a1,a1,s3
    80001342:	6488                	ld	a0,8(s1)
    80001344:	71a020ef          	jal	ra,80003a5e <lookup_pa>
    80001348:	85aa                	mv	a1,a0
    8000134a:	6605                	lui	a2,0x1
    8000134c:	8552                	mv	a0,s4
    8000134e:	6bf020ef          	jal	ra,8000420c <memcpy>
            map_pages(child->pagetable, child->mapped_info[child->total_mapped_region].va + i * PGSIZE, 1, child_pa, prot_to_type(PROT_WRITE | PROT_READ, 1));
    80001352:	00843b03          	ld	s6,8(s0)
    80001356:	6c1c                	ld	a5,24(s0)
    80001358:	5018                	lw	a4,32(s0)
    8000135a:	0712                	slli	a4,a4,0x4
    8000135c:	97ba                	add	a5,a5,a4
    8000135e:	639c                	ld	a5,0(a5)
    80001360:	99be                	add	s3,s3,a5
    80001362:	4585                	li	a1,1
    80001364:	450d                	li	a0,3
    80001366:	5ba020ef          	jal	ra,80003920 <prot_to_type>
    8000136a:	0005071b          	sext.w	a4,a0
    8000136e:	86d2                	mv	a3,s4
    80001370:	4605                	li	a2,1
    80001372:	85ce                	mv	a1,s3
    80001374:	855a                	mv	a0,s6
    80001376:	670020ef          	jal	ra,800039e6 <map_pages>
            for (int i = 0; i < child->mapped_info[child->total_mapped_region].npages; i++) {
    8000137a:	2a85                	addiw	s5,s5,1
    8000137c:	6c1c                	ld	a5,24(s0)
    8000137e:	5018                	lw	a4,32(s0)
    80001380:	00471693          	slli	a3,a4,0x4
    80001384:	97b6                	add	a5,a5,a3
    80001386:	4794                	lw	a3,8(a5)
    80001388:	000a879b          	sext.w	a5,s5
    8000138c:	fad7e0e3          	bltu	a5,a3,8000132c <do_fork+0x20c>
            child->total_mapped_region++; // ANNOTATE: 1
    80001390:	2705                	addiw	a4,a4,1
    80001392:	d018                	sw	a4,32(s0)
            break;        
    80001394:	b3fd                	j	80001182 <do_fork+0x62>
    child->pfiles->nfiles = parent->pfiles->nfiles;
    80001396:	1684b703          	ld	a4,360(s1)
    8000139a:	16843783          	ld	a5,360(s0)
    8000139e:	6685                	lui	a3,0x1
    800013a0:	9736                	add	a4,a4,a3
    800013a2:	c0872703          	lw	a4,-1016(a4)
    800013a6:	97b6                	add	a5,a5,a3
    800013a8:	c0e7a423          	sw	a4,-1016(a5)
    child->pfiles->cwd = parent->pfiles->cwd;
    800013ac:	1684b703          	ld	a4,360(s1)
    800013b0:	16843783          	ld	a5,360(s0)
    800013b4:	6318                	ld	a4,0(a4)
    800013b6:	e398                	sd	a4,0(a5)
    for (int i = 0; i < MAX_FILES; i++) {
    800013b8:	4701                	li	a4,0
    800013ba:	a029                	j	800013c4 <do_fork+0x2a4>
            child->pfiles->opened_files[i].f_dentry->d_ref++;
    800013bc:	5394                	lw	a3,32(a5)
    800013be:	2685                	addiw	a3,a3,1
    800013c0:	d394                	sw	a3,32(a5)
    for (int i = 0; i < MAX_FILES; i++) {
    800013c2:	2705                	addiw	a4,a4,1
    800013c4:	07f00793          	li	a5,127
    800013c8:	02e7ce63          	blt	a5,a4,80001404 <do_fork+0x2e4>
        child->pfiles->opened_files[i] = parent->pfiles->opened_files[i];
    800013cc:	1684b603          	ld	a2,360(s1)
    800013d0:	16843683          	ld	a3,360(s0)
    800013d4:	00171793          	slli	a5,a4,0x1
    800013d8:	00e785b3          	add	a1,a5,a4
    800013dc:	058e                	slli	a1,a1,0x3
    800013de:	96ae                	add	a3,a3,a1
    800013e0:	00e785b3          	add	a1,a5,a4
    800013e4:	058e                	slli	a1,a1,0x3
    800013e6:	962e                	add	a2,a2,a1
    800013e8:	660c                	ld	a1,8(a2)
    800013ea:	e68c                	sd	a1,8(a3)
    800013ec:	6a0c                	ld	a1,16(a2)
    800013ee:	ea8c                	sd	a1,16(a3)
    800013f0:	6e10                	ld	a2,24(a2)
    800013f2:	ee90                	sd	a2,24(a3)
        if (child->pfiles->opened_files[i].f_dentry != NULL)
    800013f4:	16843683          	ld	a3,360(s0)
    800013f8:	97ba                	add	a5,a5,a4
    800013fa:	078e                	slli	a5,a5,0x3
    800013fc:	97b6                	add	a5,a5,a3
    800013fe:	6f9c                	ld	a5,24(a5)
    80001400:	ffd5                	bnez	a5,800013bc <do_fork+0x29c>
    80001402:	b7c1                	j	800013c2 <do_fork+0x2a2>
    child->status = READY;
    80001404:	4785                	li	a5,1
    80001406:	14f42423          	sw	a5,328(s0)
    child->trapframe->regs.a0 = 0;
    8000140a:	681c                	ld	a5,16(s0)
    8000140c:	0407b423          	sd	zero,72(a5)
    child->parent = parent;
    80001410:	14943823          	sd	s1,336(s0)
    insert_to_ready_queue(child);
    80001414:	8522                	mv	a0,s0
    80001416:	1b6010ef          	jal	ra,800025cc <insert_to_ready_queue>
}
    8000141a:	14042503          	lw	a0,320(s0)
    8000141e:	60ae                	ld	ra,200(sp)
    80001420:	640e                	ld	s0,192(sp)
    80001422:	74ea                	ld	s1,184(sp)
    80001424:	794a                	ld	s2,176(sp)
    80001426:	79aa                	ld	s3,168(sp)
    80001428:	7a0a                	ld	s4,160(sp)
    8000142a:	6aea                	ld	s5,152(sp)
    8000142c:	6b4a                	ld	s6,144(sp)
    8000142e:	6baa                	ld	s7,136(sp)
    80001430:	6169                	addi	sp,sp,208
    80001432:	8082                	ret

0000000080001434 <exec_clean>:

void exec_clean(process* p) {
    80001434:	7179                	addi	sp,sp,-48
    80001436:	f406                	sd	ra,40(sp)
    80001438:	f022                	sd	s0,32(sp)
    8000143a:	ec26                	sd	s1,24(sp)
    8000143c:	e84a                	sd	s2,16(sp)
    8000143e:	e44e                	sd	s3,8(sp)
    80001440:	842a                	mv	s0,a0
    // 
    exec_clean_pagetable(p->pagetable);
    80001442:	6508                	ld	a0,8(a0)
    80001444:	993ff0ef          	jal	ra,80000dd6 <exec_clean_pagetable>
    
    // init proc[i]'s vm space
    p->trapframe = (trapframe *)alloc_page(); // trapframe, used to save context 
    80001448:	b5cff0ef          	jal	ra,800007a4 <alloc_page>
    8000144c:	e808                	sd	a0,16(s0)
    memset(p->trapframe, 0, sizeof(trapframe));
    8000144e:	11800613          	li	a2,280
    80001452:	4581                	li	a1,0
    80001454:	5f1020ef          	jal	ra,80004244 <memset>

    // page directory
    p->pagetable = (pagetable_t)alloc_page();
    80001458:	b4cff0ef          	jal	ra,800007a4 <alloc_page>
    8000145c:	e408                	sd	a0,8(s0)
    memset((void *)p->pagetable, 0, PGSIZE);
    8000145e:	6605                	lui	a2,0x1
    80001460:	4581                	li	a1,0
    80001462:	5e3020ef          	jal	ra,80004244 <memset>

    p->kstack = (uint64)alloc_page() + PGSIZE; // user kernel stack top
    80001466:	b3eff0ef          	jal	ra,800007a4 <alloc_page>
    8000146a:	6785                	lui	a5,0x1
    8000146c:	953e                	add	a0,a0,a5
    8000146e:	e008                	sd	a0,0(s0)
    uint64 user_stack = (uint64)alloc_page();        // phisical address of user stack bottom
    80001470:	b34ff0ef          	jal	ra,800007a4 <alloc_page>
    80001474:	84aa                	mv	s1,a0
    p->trapframe->regs.sp = USER_STACK_TOP;    // virtual address of user stack top
    80001476:	681c                	ld	a5,16(s0)
    80001478:	7ffff737          	lui	a4,0x7ffff
    8000147c:	e798                	sd	a4,8(a5)

    // allocates a page to record memory regions (segments)
    p->mapped_info = (mapped_region *)alloc_page();
    8000147e:	b26ff0ef          	jal	ra,800007a4 <alloc_page>
    80001482:	ec08                	sd	a0,24(s0)
    memset(p->mapped_info, 0, PGSIZE);
    80001484:	6605                	lui	a2,0x1
    80001486:	4581                	li	a1,0
    80001488:	5bd020ef          	jal	ra,80004244 <memset>

    // map user stack in userspace
    user_vm_map((pagetable_t)p->pagetable, USER_STACK_TOP - PGSIZE, PGSIZE,
    8000148c:	00843903          	ld	s2,8(s0)
                user_stack, prot_to_type(PROT_WRITE | PROT_READ, 1));
    80001490:	4585                	li	a1,1
    80001492:	450d                	li	a0,3
    80001494:	48c020ef          	jal	ra,80003920 <prot_to_type>
    user_vm_map((pagetable_t)p->pagetable, USER_STACK_TOP - PGSIZE, PGSIZE,
    80001498:	0005071b          	sext.w	a4,a0
    8000149c:	86a6                	mv	a3,s1
    8000149e:	6605                	lui	a2,0x1
    800014a0:	7fffe5b7          	lui	a1,0x7fffe
    800014a4:	854a                	mv	a0,s2
    800014a6:	6d4020ef          	jal	ra,80003b7a <user_vm_map>
    p->mapped_info[STACK_SEGMENT].va = USER_STACK_TOP - PGSIZE;
    800014aa:	6c1c                	ld	a5,24(s0)
    800014ac:	7fffe737          	lui	a4,0x7fffe
    800014b0:	e398                	sd	a4,0(a5)
    p->mapped_info[STACK_SEGMENT].npages = 1;
    800014b2:	6c1c                	ld	a5,24(s0)
    800014b4:	4485                	li	s1,1
    800014b6:	c784                	sw	s1,8(a5)
    p->mapped_info[STACK_SEGMENT].seg_type = STACK_SEGMENT;
    800014b8:	6c1c                	ld	a5,24(s0)
    800014ba:	0007a623          	sw	zero,12(a5) # 100c <elf_fpread-0x7fffeff4>

    // map trapframe in user space (direct mapping as in kernel space).
    user_vm_map((pagetable_t)p->pagetable, (uint64)p->trapframe, PGSIZE, // trapframe
    800014be:	00843983          	ld	s3,8(s0)
    800014c2:	01043903          	ld	s2,16(s0)
                (uint64)p->trapframe, prot_to_type(PROT_WRITE | PROT_READ, 0));
    800014c6:	4581                	li	a1,0
    800014c8:	450d                	li	a0,3
    800014ca:	456020ef          	jal	ra,80003920 <prot_to_type>
    user_vm_map((pagetable_t)p->pagetable, (uint64)p->trapframe, PGSIZE, // trapframe
    800014ce:	0005071b          	sext.w	a4,a0
    800014d2:	86ca                	mv	a3,s2
    800014d4:	6605                	lui	a2,0x1
    800014d6:	85ca                	mv	a1,s2
    800014d8:	854e                	mv	a0,s3
    800014da:	6a0020ef          	jal	ra,80003b7a <user_vm_map>
    p->mapped_info[CONTEXT_SEGMENT].va = (uint64)p->trapframe;
    800014de:	6818                	ld	a4,16(s0)
    800014e0:	6c1c                	ld	a5,24(s0)
    800014e2:	eb98                	sd	a4,16(a5)
    p->mapped_info[CONTEXT_SEGMENT].npages = 1;
    800014e4:	6c1c                	ld	a5,24(s0)
    800014e6:	cf84                	sw	s1,24(a5)
    p->mapped_info[CONTEXT_SEGMENT].seg_type = CONTEXT_SEGMENT;
    800014e8:	6c1c                	ld	a5,24(s0)
    800014ea:	cfc4                	sw	s1,28(a5)

    // map S-mode trap vector section in user space (direct mapping as in kernel space)
    // we assume that the size of usertrap.S is smaller than a page.
    user_vm_map((pagetable_t)p->pagetable, (uint64)trap_sec_start, PGSIZE,
    800014ec:	00843983          	ld	s3,8(s0)
    800014f0:	00005917          	auipc	s2,0x5
    800014f4:	b1090913          	addi	s2,s2,-1264 # 80006000 <_trap_sec_start>
                (uint64)trap_sec_start, prot_to_type(PROT_READ | PROT_EXEC, 0));
    800014f8:	4581                	li	a1,0
    800014fa:	4515                	li	a0,5
    800014fc:	424020ef          	jal	ra,80003920 <prot_to_type>
    user_vm_map((pagetable_t)p->pagetable, (uint64)trap_sec_start, PGSIZE,
    80001500:	0005071b          	sext.w	a4,a0
    80001504:	86ca                	mv	a3,s2
    80001506:	6605                	lui	a2,0x1
    80001508:	85ca                	mv	a1,s2
    8000150a:	854e                	mv	a0,s3
    8000150c:	66e020ef          	jal	ra,80003b7a <user_vm_map>
    p->mapped_info[SYSTEM_SEGMENT].va = (uint64)trap_sec_start;
    80001510:	6c1c                	ld	a5,24(s0)
    80001512:	0327b023          	sd	s2,32(a5)
    p->mapped_info[SYSTEM_SEGMENT].npages = 1;
    80001516:	6c1c                	ld	a5,24(s0)
    80001518:	d784                	sw	s1,40(a5)
    p->mapped_info[SYSTEM_SEGMENT].seg_type = SYSTEM_SEGMENT;
    8000151a:	6c1c                	ld	a5,24(s0)
    8000151c:	4709                	li	a4,2
    8000151e:	d7d8                	sw	a4,44(a5)

    // initialize the process's heap manager
    p->user_heap.heap_top = USER_FREE_ADDRESS_START;
    80001520:	004007b7          	lui	a5,0x400
    80001524:	f41c                	sd	a5,40(s0)
    p->user_heap.heap_bottom = USER_FREE_ADDRESS_START;
    80001526:	f81c                	sd	a5,48(s0)
    p->user_heap.free_pages_count = 0;
    80001528:	12042c23          	sw	zero,312(s0)

    // map user heap in userspace
    p->mapped_info[HEAP_SEGMENT].va = USER_FREE_ADDRESS_START;
    8000152c:	6c18                	ld	a4,24(s0)
    8000152e:	fb1c                	sd	a5,48(a4)
    p->mapped_info[HEAP_SEGMENT].npages = 0; // no pages are mapped to heap yet.
    80001530:	6c1c                	ld	a5,24(s0)
    80001532:	0207ac23          	sw	zero,56(a5) # 400038 <elf_fpread-0x7fbfffc8>
    p->mapped_info[HEAP_SEGMENT].seg_type = HEAP_SEGMENT;
    80001536:	6c1c                	ld	a5,24(s0)
    80001538:	470d                	li	a4,3
    8000153a:	dfd8                	sw	a4,60(a5)

    p->total_mapped_region = 4;
    8000153c:	4791                	li	a5,4
    8000153e:	d01c                	sw	a5,32(s0)
    // sprint("lgm:exec_clean: p->total_mapped_region = %d\n", p->total_mapped_region);
}
    80001540:	70a2                	ld	ra,40(sp)
    80001542:	7402                	ld	s0,32(sp)
    80001544:	64e2                	ld	s1,24(sp)
    80001546:	6942                	ld	s2,16(sp)
    80001548:	69a2                	ld	s3,8(sp)
    8000154a:	6145                	addi	sp,sp,48
    8000154c:	8082                	ret

000000008000154e <ramdisk_write>:
struct rfs_device *rfs_device_list[MAX_RAMDISK_COUNT];

//
// write the content stored in "buff" to the "blkno"^th block of disk.
//
int ramdisk_write(struct rfs_device *rfs_device, int blkno){
    8000154e:	1141                	addi	sp,sp,-16
    80001550:	e406                	sd	ra,8(sp)
  if ( blkno < 0 || blkno >= RAMDISK_BLOCK_COUNT )
    80001552:	0005871b          	sext.w	a4,a1
    80001556:	07f00793          	li	a5,127
    8000155a:	00e7ef63          	bltu	a5,a4,80001578 <ramdisk_write+0x2a>
    panic("ramdisk_write: write block No %d out of range!\n", blkno);
  void * dst = (void *)((uint64)rfs_device->d_address + blkno * RAMDISK_BLOCK_SIZE);
    8000155e:	6118                	ld	a4,0(a0)
    80001560:	00c5979b          	slliw	a5,a1,0xc
  memcpy(dst, rfs_device->iobuffer, RAMDISK_BLOCK_SIZE);
    80001564:	6605                	lui	a2,0x1
    80001566:	690c                	ld	a1,16(a0)
    80001568:	00f70533          	add	a0,a4,a5
    8000156c:	4a1020ef          	jal	ra,8000420c <memcpy>
  return 0;
}
    80001570:	4501                	li	a0,0
    80001572:	60a2                	ld	ra,8(sp)
    80001574:	0141                	addi	sp,sp,16
    80001576:	8082                	ret
    panic("ramdisk_write: write block No %d out of range!\n", blkno);
    80001578:	00006517          	auipc	a0,0x6
    8000157c:	4e850513          	addi	a0,a0,1256 # 80007a60 <rfs_i_ops+0x9d0>
    80001580:	005030ef          	jal	ra,80004d84 <do_panic>

0000000080001584 <ramdisk_read>:

//
// read the "blkno"^th block from the RAM disk and store its content into buffer.
//
int ramdisk_read(struct rfs_device *rfs_device, int blkno){
    80001584:	1141                	addi	sp,sp,-16
    80001586:	e406                	sd	ra,8(sp)
  if ( blkno < 0 || blkno >= RAMDISK_BLOCK_COUNT )
    80001588:	0005871b          	sext.w	a4,a1
    8000158c:	07f00793          	li	a5,127
    80001590:	00e7ee63          	bltu	a5,a4,800015ac <ramdisk_read+0x28>
    panic("ramdisk_read: read block No out of range!\n");
  void * src = (void *)((uint64)rfs_device->d_address + blkno * RAMDISK_BLOCK_SIZE);
    80001594:	611c                	ld	a5,0(a0)
    80001596:	00c5959b          	slliw	a1,a1,0xc
  memcpy(rfs_device->iobuffer, src, RAMDISK_BLOCK_SIZE);
    8000159a:	6605                	lui	a2,0x1
    8000159c:	95be                	add	a1,a1,a5
    8000159e:	6908                	ld	a0,16(a0)
    800015a0:	46d020ef          	jal	ra,8000420c <memcpy>
  return 0;
}
    800015a4:	4501                	li	a0,0
    800015a6:	60a2                	ld	ra,8(sp)
    800015a8:	0141                	addi	sp,sp,16
    800015aa:	8082                	ret
    panic("ramdisk_read: read block No out of range!\n");
    800015ac:	00006517          	auipc	a0,0x6
    800015b0:	4ec50513          	addi	a0,a0,1260 # 80007a98 <rfs_i_ops+0xa08>
    800015b4:	7d0030ef          	jal	ra,80004d84 <do_panic>

00000000800015b8 <init_rfs_device>:

//
// alloc RAMDISK_BLOCK_COUNT continuous pages (blocks) for the RAM Disk
// setup an vfs node, initialize RAM disk device, and attach the device with the vfs node.
//
struct device *init_rfs_device(const char *dev_name) {
    800015b8:	7179                	addi	sp,sp,-48
    800015ba:	f406                	sd	ra,40(sp)
    800015bc:	f022                	sd	s0,32(sp)
    800015be:	ec26                	sd	s1,24(sp)
    800015c0:	e84a                	sd	s2,16(sp)
    800015c2:	e44e                	sd	s3,8(sp)
    800015c4:	e052                	sd	s4,0(sp)
    800015c6:	892a                	mv	s2,a0
  // find rfs in registered fs list
  struct file_system_type *fs_type = NULL;
  for (int i = 0; i < MAX_SUPPORTED_FS; i++) {
    800015c8:	4781                	li	a5,0
    800015ca:	a011                	j	800015ce <init_rfs_device+0x16>
    800015cc:	2785                	addiw	a5,a5,1
    800015ce:	4725                	li	a4,9
    800015d0:	02f74163          	blt	a4,a5,800015f2 <init_rfs_device+0x3a>
    if (fs_list[i] != NULL && fs_list[i]->type_num == RFS_TYPE) {
    800015d4:	00379693          	slli	a3,a5,0x3
    800015d8:	0000c717          	auipc	a4,0xc
    800015dc:	e3870713          	addi	a4,a4,-456 # 8000d410 <fs_list>
    800015e0:	9736                	add	a4,a4,a3
    800015e2:	00073983          	ld	s3,0(a4)
    800015e6:	fe0983e3          	beqz	s3,800015cc <init_rfs_device+0x14>
    800015ea:	0009a703          	lw	a4,0(s3)
    800015ee:	ff79                	bnez	a4,800015cc <init_rfs_device+0x14>
    800015f0:	a011                	j	800015f4 <init_rfs_device+0x3c>
  struct file_system_type *fs_type = NULL;
    800015f2:	4981                	li	s3,0
      fs_type = fs_list[i];
      break; 
    }
  }
  if (!fs_type) {
    800015f4:	00098563          	beqz	s3,800015fe <init_rfs_device+0x46>

  // alloc blocks for the RAM Disk
  void *curr_addr = NULL;
  void *last_addr = NULL;
  void *ramdisk_addr = NULL;
  for ( int i = 0; i < RAMDISK_BLOCK_COUNT; ++ i ){
    800015f8:	4481                	li	s1,0
  void *curr_addr = NULL;
    800015fa:	4401                	li	s0,0
    800015fc:	a809                	j	8000160e <init_rfs_device+0x56>
    panic("No RFS file system found!\n");
    800015fe:	00006517          	auipc	a0,0x6
    80001602:	4ca50513          	addi	a0,a0,1226 # 80007ac8 <rfs_i_ops+0xa38>
    80001606:	77e030ef          	jal	ra,80004d84 <do_panic>
  for ( int i = 0; i < RAMDISK_BLOCK_COUNT; ++ i ){
    8000160a:	2485                	addiw	s1,s1,1
    last_addr = curr_addr;
    curr_addr = alloc_page();
    8000160c:	842a                	mv	s0,a0
  for ( int i = 0; i < RAMDISK_BLOCK_COUNT; ++ i ){
    8000160e:	07f00793          	li	a5,127
    80001612:	0097cf63          	blt	a5,s1,80001630 <init_rfs_device+0x78>
    curr_addr = alloc_page();
    80001616:	98eff0ef          	jal	ra,800007a4 <alloc_page>
    if ( last_addr != NULL && last_addr - curr_addr != PGSIZE ){
    8000161a:	d865                	beqz	s0,8000160a <init_rfs_device+0x52>
    8000161c:	8c09                	sub	s0,s0,a0
    8000161e:	6785                	lui	a5,0x1
    80001620:	fef405e3          	beq	s0,a5,8000160a <init_rfs_device+0x52>
      panic("RAM Disk0: address is discontinuous!\n");
    80001624:	00006517          	auipc	a0,0x6
    80001628:	4c450513          	addi	a0,a0,1220 # 80007ae8 <rfs_i_ops+0xa58>
    8000162c:	758030ef          	jal	ra,80004d84 <do_panic>
  ramdisk_addr = curr_addr;

  // find a free rfs device
  struct rfs_device **rfs_device = NULL;
  int device_id = 0;
  for (int i = 0; i < MAX_RAMDISK_COUNT; i++) {
    80001630:	4481                	li	s1,0
    80001632:	47a5                	li	a5,9
    80001634:	0297c363          	blt	a5,s1,8000165a <init_rfs_device+0xa2>
    if (rfs_device_list[i] == NULL) {
    80001638:	00349713          	slli	a4,s1,0x3
    8000163c:	0000c797          	auipc	a5,0xc
    80001640:	ce478793          	addi	a5,a5,-796 # 8000d320 <rfs_device_list>
    80001644:	97ba                	add	a5,a5,a4
    80001646:	639c                	ld	a5,0(a5)
    80001648:	c399                	beqz	a5,8000164e <init_rfs_device+0x96>
  for (int i = 0; i < MAX_RAMDISK_COUNT; i++) {
    8000164a:	2485                	addiw	s1,s1,1
    8000164c:	b7dd                	j	80001632 <init_rfs_device+0x7a>
      rfs_device = &rfs_device_list[i];
    8000164e:	0000ca17          	auipc	s4,0xc
    80001652:	cd2a0a13          	addi	s4,s4,-814 # 8000d320 <rfs_device_list>
    80001656:	9a3a                	add	s4,s4,a4
      device_id = i;
      break;
    80001658:	a019                	j	8000165e <init_rfs_device+0xa6>
  int device_id = 0;
    8000165a:	4481                	li	s1,0
  struct rfs_device **rfs_device = NULL;
    8000165c:	4a01                	li	s4,0
    }
  }
  if (!rfs_device) {
    8000165e:	060a0d63          	beqz	s4,800016d8 <init_rfs_device+0x120>
    panic("RAM Disk0: no free device!\n");
  }
  
  *rfs_device = (struct rfs_device *)alloc_page();
    80001662:	942ff0ef          	jal	ra,800007a4 <alloc_page>
    80001666:	00aa3023          	sd	a0,0(s4)
  (*rfs_device)->d_blocks = RAMDISK_BLOCK_COUNT;
    8000166a:	08000793          	li	a5,128
    8000166e:	c51c                	sw	a5,8(a0)
  (*rfs_device)->d_blocksize = RAMDISK_BLOCK_SIZE;
    80001670:	000a3783          	ld	a5,0(s4)
    80001674:	6705                	lui	a4,0x1
    80001676:	c7d8                	sw	a4,12(a5)
  (*rfs_device)->d_write = ramdisk_write;
    80001678:	000a3783          	ld	a5,0(s4)
    8000167c:	00000717          	auipc	a4,0x0
    80001680:	ed270713          	addi	a4,a4,-302 # 8000154e <ramdisk_write>
    80001684:	ef98                	sd	a4,24(a5)
  (*rfs_device)->d_read = ramdisk_read;
    80001686:	000a3783          	ld	a5,0(s4)
    8000168a:	00000717          	auipc	a4,0x0
    8000168e:	efa70713          	addi	a4,a4,-262 # 80001584 <ramdisk_read>
    80001692:	f398                	sd	a4,32(a5)
  (*rfs_device)->d_address = ramdisk_addr;
    80001694:	000a3783          	ld	a5,0(s4)
    80001698:	e380                	sd	s0,0(a5)
  (*rfs_device)->iobuffer = alloc_page();
    8000169a:	000a3a03          	ld	s4,0(s4)
    8000169e:	906ff0ef          	jal	ra,800007a4 <alloc_page>
    800016a2:	00aa3823          	sd	a0,16(s4)

  // allocate a vfs device
  struct device * device = (struct device *)alloc_page();
    800016a6:	8feff0ef          	jal	ra,800007a4 <alloc_page>
    800016aa:	8a2a                	mv	s4,a0
  // set the device name and index
  strcpy(device->dev_name, dev_name);
    800016ac:	85ca                	mv	a1,s2
    800016ae:	405020ef          	jal	ra,800042b2 <strcpy>
  device->dev_id = device_id;
    800016b2:	029a2023          	sw	s1,32(s4)
  device->fs_type = fs_type;
    800016b6:	033a3423          	sd	s3,40(s4)

  // add the device to the vfs device list
  for(int i = 0; i < MAX_VFS_DEV; i++) {
    800016ba:	4781                	li	a5,0
    800016bc:	4725                	li	a4,9
    800016be:	02f74b63          	blt	a4,a5,800016f4 <init_rfs_device+0x13c>
    if (vfs_dev_list[i] == NULL) {
    800016c2:	00379693          	slli	a3,a5,0x3
    800016c6:	0000c717          	auipc	a4,0xc
    800016ca:	caa70713          	addi	a4,a4,-854 # 8000d370 <vfs_dev_list>
    800016ce:	9736                	add	a4,a4,a3
    800016d0:	6318                	ld	a4,0(a4)
    800016d2:	cb09                	beqz	a4,800016e4 <init_rfs_device+0x12c>
  for(int i = 0; i < MAX_VFS_DEV; i++) {
    800016d4:	2785                	addiw	a5,a5,1
    800016d6:	b7dd                	j	800016bc <init_rfs_device+0x104>
    panic("RAM Disk0: no free device!\n");
    800016d8:	00006517          	auipc	a0,0x6
    800016dc:	43850513          	addi	a0,a0,1080 # 80007b10 <rfs_i_ops+0xa80>
    800016e0:	6a4030ef          	jal	ra,80004d84 <do_panic>
      vfs_dev_list[i] = device;
    800016e4:	0000c717          	auipc	a4,0xc
    800016e8:	c8c70713          	addi	a4,a4,-884 # 8000d370 <vfs_dev_list>
    800016ec:	00d707b3          	add	a5,a4,a3
    800016f0:	0147b023          	sd	s4,0(a5)
      break;
    }
  }

  sprint("%s: base address of %s is: %p\n",dev_name, dev_name, ramdisk_addr);
    800016f4:	86a2                	mv	a3,s0
    800016f6:	864a                	mv	a2,s2
    800016f8:	85ca                	mv	a1,s2
    800016fa:	00006517          	auipc	a0,0x6
    800016fe:	43650513          	addi	a0,a0,1078 # 80007b30 <rfs_i_ops+0xaa0>
    80001702:	5de030ef          	jal	ra,80004ce0 <sprint>
  return device;
    80001706:	8552                	mv	a0,s4
    80001708:	70a2                	ld	ra,40(sp)
    8000170a:	7402                	ld	s0,32(sp)
    8000170c:	64e2                	ld	s1,24(sp)
    8000170e:	6942                	ld	s2,16(sp)
    80001710:	69a2                	ld	s3,8(sp)
    80001712:	6a02                	ld	s4,0(sp)
    80001714:	6145                	addi	sp,sp,48
    80001716:	8082                	ret

0000000080001718 <rfs_lseek>:
// there are two types of seek (specify by whence): LSEEK_SET, SEEK_CUR
// LSEEK_SET: set the file pointer to the offset
// LSEEK_CUR: set the file pointer to the current offset plus the offset
// return 0 if success, otherwise return -1
//
int rfs_lseek(struct vinode *f_inode, ssize_t new_offset, int whence, int *offset) {
    80001718:	1141                	addi	sp,sp,-16
    8000171a:	e406                	sd	ra,8(sp)
  int file_size = f_inode->size;
    8000171c:	4518                	lw	a4,8(a0)

  switch (whence) {
    8000171e:	ce11                	beqz	a2,8000173a <rfs_lseek+0x22>
    80001720:	4785                	li	a5,1
    80001722:	02f60b63          	beq	a2,a5,80001758 <rfs_lseek+0x40>
        return -1;
      }
      *offset += new_offset;
      break;
    default:
      sprint("rfs_lseek: invalid whence!\n");
    80001726:	00006517          	auipc	a0,0x6
    8000172a:	44a50513          	addi	a0,a0,1098 # 80007b70 <rfs_i_ops+0xae0>
    8000172e:	5b2030ef          	jal	ra,80004ce0 <sprint>
      return -1;
    80001732:	557d                	li	a0,-1
  }
  
  return 0;
}
    80001734:	60a2                	ld	ra,8(sp)
    80001736:	0141                	addi	sp,sp,16
    80001738:	8082                	ret
      if (new_offset < 0 || new_offset > file_size) {
    8000173a:	0005c763          	bltz	a1,80001748 <rfs_lseek+0x30>
    8000173e:	00b74563          	blt	a4,a1,80001748 <rfs_lseek+0x30>
      *offset = new_offset;
    80001742:	c28c                	sw	a1,0(a3)
  return 0;
    80001744:	8532                	mv	a0,a2
      break;
    80001746:	b7fd                	j	80001734 <rfs_lseek+0x1c>
        sprint("rfs_lseek: invalid offset!\n");
    80001748:	00006517          	auipc	a0,0x6
    8000174c:	40850513          	addi	a0,a0,1032 # 80007b50 <rfs_i_ops+0xac0>
    80001750:	590030ef          	jal	ra,80004ce0 <sprint>
        return -1;
    80001754:	557d                	li	a0,-1
    80001756:	bff9                	j	80001734 <rfs_lseek+0x1c>
      if (*offset + new_offset < 0 || *offset + new_offset > file_size) {
    80001758:	429c                	lw	a5,0(a3)
    8000175a:	00b78633          	add	a2,a5,a1
    8000175e:	00064863          	bltz	a2,8000176e <rfs_lseek+0x56>
    80001762:	00c74663          	blt	a4,a2,8000176e <rfs_lseek+0x56>
      *offset += new_offset;
    80001766:	9fad                	addw	a5,a5,a1
    80001768:	c29c                	sw	a5,0(a3)
  return 0;
    8000176a:	4501                	li	a0,0
      break;
    8000176c:	b7e1                	j	80001734 <rfs_lseek+0x1c>
        sprint("rfs_lseek: invalid offset!\n");
    8000176e:	00006517          	auipc	a0,0x6
    80001772:	3e250513          	addi	a0,a0,994 # 80007b50 <rfs_i_ops+0xac0>
    80001776:	56a030ef          	jal	ra,80004ce0 <sprint>
        return -1;
    8000177a:	557d                	li	a0,-1
    8000177c:	bf65                	j	80001734 <rfs_lseek+0x1c>

000000008000177e <rfs_readdir>:
// the position of the entry to be read. if offset is 0, the first entry is read,
// if offset is 1, the second entry is read, and so on.
// return: 0 on success, -1 when there are no more entry (end of the list).
//
int rfs_readdir(struct vinode *dir_vinode, struct dir *dir, int *offset) {
  int total_direntrys = dir_vinode->size / sizeof(struct rfs_direntry);
    8000177e:	4518                	lw	a4,8(a0)
    80001780:	8715                	srai	a4,a4,0x5
  int one_block_direntrys = RFS_BLKSIZE / sizeof(struct rfs_direntry);

  int direntry_index = *offset;
    80001782:	421c                	lw	a5,0(a2)
  if (direntry_index >= total_direntrys) {
    80001784:	04e7d163          	bge	a5,a4,800017c6 <rfs_readdir+0x48>
int rfs_readdir(struct vinode *dir_vinode, struct dir *dir, int *offset) {
    80001788:	1101                	addi	sp,sp,-32
    8000178a:	ec06                	sd	ra,24(sp)
    8000178c:	e822                	sd	s0,16(sp)
    8000178e:	e426                	sd	s1,8(sp)
    80001790:	e04a                	sd	s2,0(sp)
    80001792:	84ae                	mv	s1,a1
    80001794:	8432                	mv	s0,a2
    // no more direntry
    return -1;
  }

  // reads a directory entry from the directory cache stored in vfs inode.
  struct rfs_dir_cache *dir_cache =
    80001796:	6138                	ld	a4,64(a0)
      (struct rfs_dir_cache *)dir_vinode->i_fs_info;
  struct rfs_direntry *p_direntry = dir_cache->dir_base_addr + direntry_index;
    80001798:	00873903          	ld	s2,8(a4)
    8000179c:	0796                	slli	a5,a5,0x5
    8000179e:	993e                	add	s2,s2,a5
  // in the remaining processing, we need to return our discovery.
  // the method of returning is to popular proper members of "dir", more specifically,
  // dir->name and dir->inum.
  // note: DO NOT DELETE CODE BELOW PANIC.
  // panic("You need to implement the code for reading a directory entry of rfs in lab4_2.\n" );
  memcpy(dir->name, p_direntry->name, RFS_MAX_FILE_NAME_LEN);
    800017a0:	4671                	li	a2,28
    800017a2:	00490593          	addi	a1,s2,4
    800017a6:	8526                	mv	a0,s1
    800017a8:	265020ef          	jal	ra,8000420c <memcpy>
  dir->inum = p_direntry->inum;
    800017ac:	00092783          	lw	a5,0(s2)
    800017b0:	d09c                	sw	a5,32(s1)
  // DO NOT DELETE CODE BELOW.
  (*offset)++;
    800017b2:	401c                	lw	a5,0(s0)
    800017b4:	2785                	addiw	a5,a5,1
    800017b6:	c01c                	sw	a5,0(s0)
  return 0;
    800017b8:	4501                	li	a0,0
}
    800017ba:	60e2                	ld	ra,24(sp)
    800017bc:	6442                	ld	s0,16(sp)
    800017be:	64a2                	ld	s1,8(sp)
    800017c0:	6902                	ld	s2,0(sp)
    800017c2:	6105                	addi	sp,sp,32
    800017c4:	8082                	ret
    return -1;
    800017c6:	557d                	li	a0,-1
}
    800017c8:	8082                	ret

00000000800017ca <rfs_hook_closedir>:
int rfs_hook_closedir(struct vinode *dir_vinode, struct dentry *dentry) {
    800017ca:	1101                	addi	sp,sp,-32
    800017cc:	ec06                	sd	ra,24(sp)
    800017ce:	e822                	sd	s0,16(sp)
    800017d0:	e426                	sd	s1,8(sp)
  struct rfs_dir_cache *dir_cache =
    800017d2:	6124                	ld	s1,64(a0)
  for (int i = 0; i < dir_cache->block_count; ++i) {
    800017d4:	4401                	li	s0,0
    800017d6:	a801                	j	800017e6 <rfs_hook_closedir+0x1c>
    free_page((char *)dir_cache->dir_base_addr + i * RFS_BLKSIZE);
    800017d8:	6488                	ld	a0,8(s1)
    800017da:	00c4179b          	slliw	a5,s0,0xc
    800017de:	953e                	add	a0,a0,a5
    800017e0:	f4ffe0ef          	jal	ra,8000072e <free_page>
  for (int i = 0; i < dir_cache->block_count; ++i) {
    800017e4:	2405                	addiw	s0,s0,1
    800017e6:	409c                	lw	a5,0(s1)
    800017e8:	fef448e3          	blt	s0,a5,800017d8 <rfs_hook_closedir+0xe>
}
    800017ec:	4501                	li	a0,0
    800017ee:	60e2                	ld	ra,24(sp)
    800017f0:	6442                	ld	s0,16(sp)
    800017f2:	64a2                	ld	s1,8(sp)
    800017f4:	6105                	addi	sp,sp,32
    800017f6:	8082                	ret

00000000800017f8 <register_rfs>:
int register_rfs() {
    800017f8:	1141                	addi	sp,sp,-16
    800017fa:	e406                	sd	ra,8(sp)
  struct file_system_type *fs_type = (struct file_system_type *)alloc_page();
    800017fc:	fa9fe0ef          	jal	ra,800007a4 <alloc_page>
  fs_type->type_num = RFS_TYPE;
    80001800:	00052023          	sw	zero,0(a0)
  fs_type->get_superblock = rfs_get_superblock;
    80001804:	00001797          	auipc	a5,0x1
    80001808:	d0478793          	addi	a5,a5,-764 # 80002508 <rfs_get_superblock>
    8000180c:	e51c                	sd	a5,8(a0)
  for (int i = 0; i < MAX_SUPPORTED_FS; i++) {
    8000180e:	4781                	li	a5,0
    80001810:	4725                	li	a4,9
    80001812:	02f74663          	blt	a4,a5,8000183e <register_rfs+0x46>
    if (fs_list[i] == NULL) {
    80001816:	00379693          	slli	a3,a5,0x3
    8000181a:	0000c717          	auipc	a4,0xc
    8000181e:	bf670713          	addi	a4,a4,-1034 # 8000d410 <fs_list>
    80001822:	9736                	add	a4,a4,a3
    80001824:	6318                	ld	a4,0(a4)
    80001826:	c319                	beqz	a4,8000182c <register_rfs+0x34>
  for (int i = 0; i < MAX_SUPPORTED_FS; i++) {
    80001828:	2785                	addiw	a5,a5,1
    8000182a:	b7dd                	j	80001810 <register_rfs+0x18>
      fs_list[i] = fs_type;
    8000182c:	0000c717          	auipc	a4,0xc
    80001830:	be470713          	addi	a4,a4,-1052 # 8000d410 <fs_list>
    80001834:	00d707b3          	add	a5,a4,a3
    80001838:	e388                	sd	a0,0(a5)
      return 0;
    8000183a:	4501                	li	a0,0
    8000183c:	a011                	j	80001840 <register_rfs+0x48>
  return -1;
    8000183e:	557d                	li	a0,-1
}
    80001840:	60a2                	ld	ra,8(sp)
    80001842:	0141                	addi	sp,sp,16
    80001844:	8082                	ret

0000000080001846 <rfs_r1block>:
int rfs_r1block(struct rfs_device *rfs_dev, int n_block) {
    80001846:	1141                	addi	sp,sp,-16
    80001848:	e406                	sd	ra,8(sp)
  return dop_read(rfs_dev, n_block);
    8000184a:	711c                	ld	a5,32(a0)
    8000184c:	9782                	jalr	a5
}
    8000184e:	60a2                	ld	ra,8(sp)
    80001850:	0141                	addi	sp,sp,16
    80001852:	8082                	ret

0000000080001854 <rfs_read>:
                 int *offset) {
    80001854:	7159                	addi	sp,sp,-112
    80001856:	f486                	sd	ra,104(sp)
    80001858:	f0a2                	sd	s0,96(sp)
    8000185a:	eca6                	sd	s1,88(sp)
    8000185c:	e8ca                	sd	s2,80(sp)
    8000185e:	e4ce                	sd	s3,72(sp)
    80001860:	e0d2                	sd	s4,64(sp)
    80001862:	fc56                	sd	s5,56(sp)
    80001864:	f85a                	sd	s6,48(sp)
    80001866:	f45e                	sd	s7,40(sp)
    80001868:	f062                	sd	s8,32(sp)
    8000186a:	ec66                	sd	s9,24(sp)
    8000186c:	e86a                	sd	s10,16(sp)
    8000186e:	e46e                	sd	s11,8(sp)
    80001870:	1880                	addi	s0,sp,112
  if (f_inode->size < *offset)
    80001872:	451c                	lw	a5,8(a0)
    80001874:	4284                	lw	s1,0(a3)
    80001876:	0e97c663          	blt	a5,s1,80001962 <rfs_read+0x10e>
    8000187a:	8aaa                	mv	s5,a0
    8000187c:	8d2e                	mv	s10,a1
    8000187e:	8b32                	mv	s6,a2
    80001880:	8cb6                	mv	s9,a3
  if (f_inode->size < (*offset + len)) len = f_inode->size - *offset;
    80001882:	00c48733          	add	a4,s1,a2
    80001886:	00e7d463          	bge	a5,a4,8000188e <rfs_read+0x3a>
    8000188a:	40978b3b          	subw	s6,a5,s1
  char buffer[len + 1];
    8000188e:	010b0793          	addi	a5,s6,16
    80001892:	9bc1                	andi	a5,a5,-16
    80001894:	40f10133          	sub	sp,sp,a5
    80001898:	8c0a                	mv	s8,sp
  int align = *offset % RFS_BLKSIZE;
    8000189a:	41f4d79b          	sraiw	a5,s1,0x1f
    8000189e:	0147d79b          	srliw	a5,a5,0x14
    800018a2:	9cbd                	addw	s1,s1,a5
    800018a4:	6685                	lui	a3,0x1
    800018a6:	16fd                	addi	a3,a3,-1
    800018a8:	00d4f9b3          	and	s3,s1,a3
    800018ac:	40f989bb          	subw	s3,s3,a5
    800018b0:	00098d9b          	sext.w	s11,s3
  int block_offset = *offset / RFS_BLKSIZE;
    800018b4:	40c4d49b          	sraiw	s1,s1,0xc
    800018b8:	0004879b          	sext.w	a5,s1
  int readtimes = (align + len) / RFS_BLKSIZE;
    800018bc:	016d8bb3          	add	s7,s11,s6
    800018c0:	43fbd713          	srai	a4,s7,0x3f
    800018c4:	00d77933          	and	s2,a4,a3
    800018c8:	995e                	add	s2,s2,s7
    800018ca:	40c95913          	srai	s2,s2,0xc
    800018ce:	2901                	sext.w	s2,s2
  int remain = (align + len) % RFS_BLKSIZE;
    800018d0:	9351                	srli	a4,a4,0x34
    800018d2:	9bba                	add	s7,s7,a4
    800018d4:	00dbfbb3          	and	s7,s7,a3
    800018d8:	40eb8bbb          	subw	s7,s7,a4
  struct rfs_device *rdev = rfs_device_list[f_inode->sb->s_dev->dev_id];
    800018dc:	048ab703          	ld	a4,72(s5)
    800018e0:	6f18                	ld	a4,24(a4)
    800018e2:	5314                	lw	a3,32(a4)
    800018e4:	068e                	slli	a3,a3,0x3
    800018e6:	0000c717          	auipc	a4,0xc
    800018ea:	a3a70713          	addi	a4,a4,-1478 # 8000d320 <rfs_device_list>
    800018ee:	9736                	add	a4,a4,a3
    800018f0:	00073a03          	ld	s4,0(a4)
  rfs_r1block(rdev, f_inode->addrs[block_offset]);
    800018f4:	0791                	addi	a5,a5,4
    800018f6:	078a                	slli	a5,a5,0x2
    800018f8:	97d6                	add	a5,a5,s5
    800018fa:	478c                	lw	a1,8(a5)
    800018fc:	8552                	mv	a0,s4
    800018fe:	f49ff0ef          	jal	ra,80001846 <rfs_r1block>
  int first_block_len = (readtimes == 0 ? len : RFS_BLKSIZE - align);
    80001902:	06090663          	beqz	s2,8000196e <rfs_read+0x11a>
    80001906:	6785                	lui	a5,0x1
    80001908:	413789bb          	subw	s3,a5,s3
  memcpy(buffer + buf_offset, rdev->iobuffer + align, first_block_len);
    8000190c:	010a3583          	ld	a1,16(s4)
    80001910:	864e                	mv	a2,s3
    80001912:	95ee                	add	a1,a1,s11
    80001914:	8562                	mv	a0,s8
    80001916:	0f7020ef          	jal	ra,8000420c <memcpy>
  block_offset++;
    8000191a:	2485                	addiw	s1,s1,1
  readtimes--;
    8000191c:	397d                	addiw	s2,s2,-1
  if (readtimes >= 0) {
    8000191e:	06095f63          	bgez	s2,8000199c <rfs_read+0x148>
  buffer[len] = '\0';
    80001922:	016c07b3          	add	a5,s8,s6
    80001926:	00078023          	sb	zero,0(a5) # 1000 <elf_fpread-0x7ffff000>
  strcpy(r_buf, buffer);
    8000192a:	85e2                	mv	a1,s8
    8000192c:	856a                	mv	a0,s10
    8000192e:	185020ef          	jal	ra,800042b2 <strcpy>
  *offset += len;
    80001932:	000ca783          	lw	a5,0(s9)
    80001936:	016787bb          	addw	a5,a5,s6
    8000193a:	00fca023          	sw	a5,0(s9)
}
    8000193e:	855a                	mv	a0,s6
    80001940:	f9040113          	addi	sp,s0,-112
    80001944:	70a6                	ld	ra,104(sp)
    80001946:	7406                	ld	s0,96(sp)
    80001948:	64e6                	ld	s1,88(sp)
    8000194a:	6946                	ld	s2,80(sp)
    8000194c:	69a6                	ld	s3,72(sp)
    8000194e:	6a06                	ld	s4,64(sp)
    80001950:	7ae2                	ld	s5,56(sp)
    80001952:	7b42                	ld	s6,48(sp)
    80001954:	7ba2                	ld	s7,40(sp)
    80001956:	7c02                	ld	s8,32(sp)
    80001958:	6ce2                	ld	s9,24(sp)
    8000195a:	6d42                	ld	s10,16(sp)
    8000195c:	6da2                	ld	s11,8(sp)
    8000195e:	6165                	addi	sp,sp,112
    80001960:	8082                	ret
    panic("rfs_read:offset should less than file size!");
    80001962:	00006517          	auipc	a0,0x6
    80001966:	22e50513          	addi	a0,a0,558 # 80007b90 <rfs_i_ops+0xb00>
    8000196a:	41a030ef          	jal	ra,80004d84 <do_panic>
  int first_block_len = (readtimes == 0 ? len : RFS_BLKSIZE - align);
    8000196e:	000b099b          	sext.w	s3,s6
    80001972:	bf69                	j	8000190c <rfs_read+0xb8>
      rfs_r1block(rdev, f_inode->addrs[block_offset]);
    80001974:	00448793          	addi	a5,s1,4
    80001978:	078a                	slli	a5,a5,0x2
    8000197a:	97d6                	add	a5,a5,s5
    8000197c:	478c                	lw	a1,8(a5)
    8000197e:	8552                	mv	a0,s4
    80001980:	ec7ff0ef          	jal	ra,80001846 <rfs_r1block>
      memcpy(buffer + buf_offset, rdev->iobuffer, RFS_BLKSIZE);
    80001984:	6605                	lui	a2,0x1
    80001986:	010a3583          	ld	a1,16(s4)
    8000198a:	013c0533          	add	a0,s8,s3
    8000198e:	07f020ef          	jal	ra,8000420c <memcpy>
      buf_offset += RFS_BLKSIZE;
    80001992:	6785                	lui	a5,0x1
    80001994:	013789bb          	addw	s3,a5,s3
      block_offset++;
    80001998:	2485                	addiw	s1,s1,1
      readtimes--;
    8000199a:	397d                	addiw	s2,s2,-1
    while (readtimes != 0) {
    8000199c:	fc091ce3          	bnez	s2,80001974 <rfs_read+0x120>
    if (remain > 0) {
    800019a0:	f97051e3          	blez	s7,80001922 <rfs_read+0xce>
      rfs_r1block(rdev, f_inode->addrs[block_offset]);
    800019a4:	0491                	addi	s1,s1,4
    800019a6:	048a                	slli	s1,s1,0x2
    800019a8:	9aa6                	add	s5,s5,s1
    800019aa:	008aa583          	lw	a1,8(s5)
    800019ae:	8552                	mv	a0,s4
    800019b0:	e97ff0ef          	jal	ra,80001846 <rfs_r1block>
      memcpy(buffer + buf_offset, rdev->iobuffer, remain);
    800019b4:	865e                	mv	a2,s7
    800019b6:	010a3583          	ld	a1,16(s4)
    800019ba:	013c0533          	add	a0,s8,s3
    800019be:	04f020ef          	jal	ra,8000420c <memcpy>
    800019c2:	b785                	j	80001922 <rfs_read+0xce>

00000000800019c4 <rfs_hook_opendir>:
int rfs_hook_opendir(struct vinode *dir_vinode, struct dentry *dentry) {
    800019c4:	7179                	addi	sp,sp,-48
    800019c6:	f406                	sd	ra,40(sp)
    800019c8:	f022                	sd	s0,32(sp)
    800019ca:	ec26                	sd	s1,24(sp)
    800019cc:	e84a                	sd	s2,16(sp)
    800019ce:	e44e                	sd	s3,8(sp)
    800019d0:	e052                	sd	s4,0(sp)
    800019d2:	8a2a                	mv	s4,a0
  struct rfs_device *rdev = rfs_device_list[dir_vinode->sb->s_dev->dev_id];
    800019d4:	653c                	ld	a5,72(a0)
    800019d6:	6f9c                	ld	a5,24(a5)
    800019d8:	5398                	lw	a4,32(a5)
    800019da:	070e                	slli	a4,a4,0x3
    800019dc:	0000c797          	auipc	a5,0xc
    800019e0:	94478793          	addi	a5,a5,-1724 # 8000d320 <rfs_device_list>
    800019e4:	97ba                	add	a5,a5,a4
    800019e6:	0007b983          	ld	s3,0(a5)
  for (int i = dir_vinode->blocks - 1; i >= 0; i--) {
    800019ea:	01452903          	lw	s2,20(a0)
    800019ee:	397d                	addiw	s2,s2,-1
  void *pdire = NULL;
    800019f0:	4481                	li	s1,0
  for (int i = dir_vinode->blocks - 1; i >= 0; i--) {
    800019f2:	a00d                	j	80001a14 <rfs_hook_opendir+0x50>
    rfs_r1block(rdev, dir_vinode->addrs[i]);
    800019f4:	00490793          	addi	a5,s2,4
    800019f8:	078a                	slli	a5,a5,0x2
    800019fa:	97d2                	add	a5,a5,s4
    800019fc:	478c                	lw	a1,8(a5)
    800019fe:	854e                	mv	a0,s3
    80001a00:	e47ff0ef          	jal	ra,80001846 <rfs_r1block>
    memcpy(pdire, rdev->iobuffer, RFS_BLKSIZE);
    80001a04:	6605                	lui	a2,0x1
    80001a06:	0109b583          	ld	a1,16(s3)
    80001a0a:	8522                	mv	a0,s0
    80001a0c:	001020ef          	jal	ra,8000420c <memcpy>
  for (int i = dir_vinode->blocks - 1; i >= 0; i--) {
    80001a10:	397d                	addiw	s2,s2,-1
    pdire = alloc_page();
    80001a12:	84a2                	mv	s1,s0
  for (int i = dir_vinode->blocks - 1; i >= 0; i--) {
    80001a14:	02094063          	bltz	s2,80001a34 <rfs_hook_opendir+0x70>
    pdire = alloc_page();
    80001a18:	d8dfe0ef          	jal	ra,800007a4 <alloc_page>
    80001a1c:	842a                	mv	s0,a0
    if (previous != NULL && previous - pdire != RFS_BLKSIZE)
    80001a1e:	d8f9                	beqz	s1,800019f4 <rfs_hook_opendir+0x30>
    80001a20:	8c89                	sub	s1,s1,a0
    80001a22:	6785                	lui	a5,0x1
    80001a24:	fcf488e3          	beq	s1,a5,800019f4 <rfs_hook_opendir+0x30>
      panic("rfs_hook_opendir: memory discontinuity");
    80001a28:	00006517          	auipc	a0,0x6
    80001a2c:	19850513          	addi	a0,a0,408 # 80007bc0 <rfs_i_ops+0xb30>
    80001a30:	354030ef          	jal	ra,80004d84 <do_panic>
  struct rfs_dir_cache *dir_cache = (struct rfs_dir_cache *)alloc_page();
    80001a34:	d71fe0ef          	jal	ra,800007a4 <alloc_page>
  dir_cache->block_count = dir_vinode->blocks;
    80001a38:	014a2783          	lw	a5,20(s4)
    80001a3c:	c11c                	sw	a5,0(a0)
  dir_cache->dir_base_addr = (struct rfs_direntry *)pdire;
    80001a3e:	e504                	sd	s1,8(a0)
  dir_vinode->i_fs_info = dir_cache;
    80001a40:	04aa3023          	sd	a0,64(s4)
}
    80001a44:	4501                	li	a0,0
    80001a46:	70a2                	ld	ra,40(sp)
    80001a48:	7402                	ld	s0,32(sp)
    80001a4a:	64e2                	ld	s1,24(sp)
    80001a4c:	6942                	ld	s2,16(sp)
    80001a4e:	69a2                	ld	s3,8(sp)
    80001a50:	6a02                	ld	s4,0(sp)
    80001a52:	6145                	addi	sp,sp,48
    80001a54:	8082                	ret

0000000080001a56 <rfs_w1block>:
int rfs_w1block(struct rfs_device *rfs_dev, int n_block) {
    80001a56:	1141                	addi	sp,sp,-16
    80001a58:	e406                	sd	ra,8(sp)
  return dop_write(rfs_dev, n_block);
    80001a5a:	6d1c                	ld	a5,24(a0)
    80001a5c:	9782                	jalr	a5
}
    80001a5e:	60a2                	ld	ra,8(sp)
    80001a60:	0141                	addi	sp,sp,16
    80001a62:	8082                	ret

0000000080001a64 <rfs_read_dinode>:
struct rfs_dinode *rfs_read_dinode(struct rfs_device *rdev, int n_inode) {
    80001a64:	1101                	addi	sp,sp,-32
    80001a66:	ec06                	sd	ra,24(sp)
    80001a68:	e822                	sd	s0,16(sp)
    80001a6a:	e426                	sd	s1,8(sp)
    80001a6c:	e04a                	sd	s2,0(sp)
    80001a6e:	84aa                	mv	s1,a0
  int n_block = n_inode / (RFS_BLKSIZE / RFS_INODESIZE) + RFS_BLK_OFFSET_INODE;
    80001a70:	41f5d71b          	sraiw	a4,a1,0x1f
    80001a74:	01b7571b          	srliw	a4,a4,0x1b
    80001a78:	00b707bb          	addw	a5,a4,a1
    80001a7c:	4057d59b          	sraiw	a1,a5,0x5
  int offset = n_inode % (RFS_BLKSIZE / RFS_INODESIZE);
    80001a80:	8bfd                	andi	a5,a5,31
    80001a82:	40e7843b          	subw	s0,a5,a4
  if (dop_read(rdev, n_block) != 0) return NULL;
    80001a86:	711c                	ld	a5,32(a0)
    80001a88:	2585                	addiw	a1,a1,1
    80001a8a:	9782                	jalr	a5
    80001a8c:	e11d                	bnez	a0,80001ab2 <rfs_read_dinode+0x4e>
  struct rfs_dinode *dinode = (struct rfs_dinode *)alloc_page();
    80001a8e:	d17fe0ef          	jal	ra,800007a4 <alloc_page>
    80001a92:	892a                	mv	s2,a0
  memcpy(dinode, (char *)rdev->iobuffer + offset * RFS_INODESIZE,
    80001a94:	688c                	ld	a1,16(s1)
    80001a96:	0074141b          	slliw	s0,s0,0x7
    80001a9a:	03800613          	li	a2,56
    80001a9e:	95a2                	add	a1,a1,s0
    80001aa0:	76c020ef          	jal	ra,8000420c <memcpy>
}
    80001aa4:	854a                	mv	a0,s2
    80001aa6:	60e2                	ld	ra,24(sp)
    80001aa8:	6442                	ld	s0,16(sp)
    80001aaa:	64a2                	ld	s1,8(sp)
    80001aac:	6902                	ld	s2,0(sp)
    80001aae:	6105                	addi	sp,sp,32
    80001ab0:	8082                	ret
  if (dop_read(rdev, n_block) != 0) return NULL;
    80001ab2:	4901                	li	s2,0
    80001ab4:	bfc5                	j	80001aa4 <rfs_read_dinode+0x40>

0000000080001ab6 <rfs_disk_stat>:
int rfs_disk_stat(struct vinode *vinode, struct istat *istat) {
    80001ab6:	1101                	addi	sp,sp,-32
    80001ab8:	ec06                	sd	ra,24(sp)
    80001aba:	e822                	sd	s0,16(sp)
    80001abc:	e426                	sd	s1,8(sp)
    80001abe:	84aa                	mv	s1,a0
    80001ac0:	842e                	mv	s0,a1
  struct rfs_device *rdev = rfs_device_list[vinode->sb->s_dev->dev_id];
    80001ac2:	653c                	ld	a5,72(a0)
    80001ac4:	6f9c                	ld	a5,24(a5)
    80001ac6:	5398                	lw	a4,32(a5)
    80001ac8:	070e                	slli	a4,a4,0x3
    80001aca:	0000c797          	auipc	a5,0xc
    80001ace:	85678793          	addi	a5,a5,-1962 # 8000d320 <rfs_device_list>
    80001ad2:	97ba                	add	a5,a5,a4
  struct rfs_dinode *dinode = rfs_read_dinode(rdev, vinode->inum);
    80001ad4:	410c                	lw	a1,0(a0)
    80001ad6:	6388                	ld	a0,0(a5)
    80001ad8:	f8dff0ef          	jal	ra,80001a64 <rfs_read_dinode>
  if (dinode == NULL) {
    80001adc:	c50d                	beqz	a0,80001b06 <rfs_disk_stat+0x50>
  istat->st_inum = 1;
    80001ade:	4785                	li	a5,1
    80001ae0:	c01c                	sw	a5,0(s0)
  istat->st_inum = vinode->inum;  // get inode number from vinode
    80001ae2:	409c                	lw	a5,0(s1)
    80001ae4:	c01c                	sw	a5,0(s0)
  istat->st_size = dinode->size;
    80001ae6:	411c                	lw	a5,0(a0)
    80001ae8:	c05c                	sw	a5,4(s0)
  istat->st_type = dinode->type;
    80001aea:	415c                	lw	a5,4(a0)
    80001aec:	c41c                	sw	a5,8(s0)
  istat->st_nlinks = dinode->nlinks;
    80001aee:	451c                	lw	a5,8(a0)
    80001af0:	c45c                	sw	a5,12(s0)
  istat->st_blocks = dinode->blocks;
    80001af2:	455c                	lw	a5,12(a0)
    80001af4:	c81c                	sw	a5,16(s0)
  free_page(dinode);
    80001af6:	c39fe0ef          	jal	ra,8000072e <free_page>
  return 0;
    80001afa:	4501                	li	a0,0
}
    80001afc:	60e2                	ld	ra,24(sp)
    80001afe:	6442                	ld	s0,16(sp)
    80001b00:	64a2                	ld	s1,8(sp)
    80001b02:	6105                	addi	sp,sp,32
    80001b04:	8082                	ret
    sprint("rfs_disk_stat: read dinode failed!\n");
    80001b06:	00006517          	auipc	a0,0x6
    80001b0a:	0e250513          	addi	a0,a0,226 # 80007be8 <rfs_i_ops+0xb58>
    80001b0e:	1d2030ef          	jal	ra,80004ce0 <sprint>
    return -1;
    80001b12:	557d                	li	a0,-1
    80001b14:	b7e5                	j	80001afc <rfs_disk_stat+0x46>

0000000080001b16 <rfs_write_dinode>:
                     int n_inode) {
    80001b16:	7179                	addi	sp,sp,-48
    80001b18:	f406                	sd	ra,40(sp)
    80001b1a:	f022                	sd	s0,32(sp)
    80001b1c:	ec26                	sd	s1,24(sp)
    80001b1e:	e84a                	sd	s2,16(sp)
    80001b20:	e44e                	sd	s3,8(sp)
    80001b22:	84aa                	mv	s1,a0
    80001b24:	89ae                	mv	s3,a1
  int n_block = n_inode / (RFS_BLKSIZE / RFS_INODESIZE) + RFS_BLK_OFFSET_INODE;
    80001b26:	41f6579b          	sraiw	a5,a2,0x1f
    80001b2a:	01b7d79b          	srliw	a5,a5,0x1b
    80001b2e:	9e3d                	addw	a2,a2,a5
    80001b30:	4056591b          	sraiw	s2,a2,0x5
    80001b34:	2905                	addiw	s2,s2,1
  int offset = n_inode % (RFS_BLKSIZE / RFS_INODESIZE);
    80001b36:	8a7d                	andi	a2,a2,31
    80001b38:	40f6043b          	subw	s0,a2,a5
  dop_read(rdev, n_block);
    80001b3c:	711c                	ld	a5,32(a0)
    80001b3e:	85ca                	mv	a1,s2
    80001b40:	9782                	jalr	a5
  memcpy(rdev->iobuffer + offset * RFS_INODESIZE, dinode,
    80001b42:	6888                	ld	a0,16(s1)
    80001b44:	0074141b          	slliw	s0,s0,0x7
    80001b48:	03800613          	li	a2,56
    80001b4c:	85ce                	mv	a1,s3
    80001b4e:	9522                	add	a0,a0,s0
    80001b50:	6bc020ef          	jal	ra,8000420c <memcpy>
  int ret = dop_write(rdev, n_block);
    80001b54:	6c9c                	ld	a5,24(s1)
    80001b56:	85ca                	mv	a1,s2
    80001b58:	8526                	mv	a0,s1
    80001b5a:	9782                	jalr	a5
}
    80001b5c:	70a2                	ld	ra,40(sp)
    80001b5e:	7402                	ld	s0,32(sp)
    80001b60:	64e2                	ld	s1,24(sp)
    80001b62:	6942                	ld	s2,16(sp)
    80001b64:	69a2                	ld	s3,8(sp)
    80001b66:	6145                	addi	sp,sp,48
    80001b68:	8082                	ret

0000000080001b6a <rfs_format_dev>:
int rfs_format_dev(struct device *dev) {
    80001b6a:	711d                	addi	sp,sp,-96
    80001b6c:	ec86                	sd	ra,88(sp)
    80001b6e:	e8a2                	sd	s0,80(sp)
    80001b70:	e4a6                	sd	s1,72(sp)
    80001b72:	e0ca                	sd	s2,64(sp)
    80001b74:	892a                	mv	s2,a0
  struct rfs_device *rdev = rfs_device_list[dev->dev_id];
    80001b76:	5118                	lw	a4,32(a0)
    80001b78:	070e                	slli	a4,a4,0x3
    80001b7a:	0000b797          	auipc	a5,0xb
    80001b7e:	7a678793          	addi	a5,a5,1958 # 8000d320 <rfs_device_list>
    80001b82:	97ba                	add	a5,a5,a4
    80001b84:	6384                	ld	s1,0(a5)
  struct super_block *super = (struct super_block *)rdev->iobuffer;
    80001b86:	689c                	ld	a5,16(s1)
  super->magic = RFS_MAGIC;
    80001b88:	6731                	lui	a4,0xc
    80001b8a:	eaf70713          	addi	a4,a4,-337 # beaf <elf_fpread-0x7fff4151>
    80001b8e:	c398                	sw	a4,0(a5)
  super->size =
    80001b90:	07000713          	li	a4,112
    80001b94:	c3d8                	sw	a4,4(a5)
  super->nblocks = RFS_MAX_INODE_BLKNUM * RFS_DIRECT_BLKNUM;
    80001b96:	06400713          	li	a4,100
    80001b9a:	c798                	sw	a4,8(a5)
  super->ninodes = RFS_BLKSIZE / RFS_INODESIZE * RFS_MAX_INODE_BLKNUM;
    80001b9c:	14000713          	li	a4,320
    80001ba0:	c7d8                	sw	a4,12(a5)
  if (rfs_w1block(rdev, RFS_BLK_OFFSET_SUPER) != 0)  // write to device
    80001ba2:	4581                	li	a1,0
    80001ba4:	8526                	mv	a0,s1
    80001ba6:	eb1ff0ef          	jal	ra,80001a56 <rfs_w1block>
    80001baa:	e509                	bnez	a0,80001bb4 <rfs_format_dev+0x4a>
    80001bac:	842a                	mv	s0,a0
  struct rfs_dinode *p_dinode = (struct rfs_dinode *)rdev->iobuffer;
    80001bae:	689c                	ld	a5,16(s1)
  for (int i = 0; i < RFS_BLKSIZE / RFS_INODESIZE; ++i) {
    80001bb0:	872a                	mv	a4,a0
    80001bb2:	a015                	j	80001bd6 <rfs_format_dev+0x6c>
    panic("RFS: failed to write superblock!\n");
    80001bb4:	00006517          	auipc	a0,0x6
    80001bb8:	05c50513          	addi	a0,a0,92 # 80007c10 <rfs_i_ops+0xb80>
    80001bbc:	1c8030ef          	jal	ra,80004d84 <do_panic>
    p_dinode->size = 0;
    80001bc0:	0007a023          	sw	zero,0(a5)
    p_dinode->type = R_FREE;
    80001bc4:	4689                	li	a3,2
    80001bc6:	c3d4                	sw	a3,4(a5)
    p_dinode->nlinks = 0;
    80001bc8:	0007a423          	sw	zero,8(a5)
    p_dinode->blocks = 0;
    80001bcc:	0007a623          	sw	zero,12(a5)
    p_dinode = (struct rfs_dinode *)((char *)p_dinode + RFS_INODESIZE);
    80001bd0:	08078793          	addi	a5,a5,128
  for (int i = 0; i < RFS_BLKSIZE / RFS_INODESIZE; ++i) {
    80001bd4:	2705                	addiw	a4,a4,1
    80001bd6:	46fd                	li	a3,31
    80001bd8:	fee6d4e3          	bge	a3,a4,80001bc0 <rfs_format_dev+0x56>
  for (int inode_block = 0; inode_block < RFS_MAX_INODE_BLKNUM; ++inode_block) {
    80001bdc:	47a5                	li	a5,9
    80001bde:	0087ce63          	blt	a5,s0,80001bfa <rfs_format_dev+0x90>
    if (rfs_w1block(rdev, RFS_BLK_OFFSET_INODE + inode_block) != 0)
    80001be2:	2405                	addiw	s0,s0,1
    80001be4:	85a2                	mv	a1,s0
    80001be6:	8526                	mv	a0,s1
    80001be8:	e6fff0ef          	jal	ra,80001a56 <rfs_w1block>
    80001bec:	d965                	beqz	a0,80001bdc <rfs_format_dev+0x72>
      panic("RFS: failed to initialize empty inodes!\n");
    80001bee:	00006517          	auipc	a0,0x6
    80001bf2:	04a50513          	addi	a0,a0,74 # 80007c38 <rfs_i_ops+0xba8>
    80001bf6:	18e030ef          	jal	ra,80004d84 <do_panic>
  root_dinode.size = 0;
    80001bfa:	c402                	sw	zero,8(sp)
  root_dinode.type = R_DIR;
    80001bfc:	4785                	li	a5,1
    80001bfe:	c63e                	sw	a5,12(sp)
  root_dinode.nlinks = 1;
    80001c00:	c83e                	sw	a5,16(sp)
  root_dinode.blocks = 1;
    80001c02:	ca3e                	sw	a5,20(sp)
  root_dinode.addrs[0] = RFS_BLK_OFFSET_FREE;
    80001c04:	47b1                	li	a5,12
    80001c06:	cc3e                	sw	a5,24(sp)
  if (rfs_write_dinode(rdev, &root_dinode, 0) != 0) {
    80001c08:	4601                	li	a2,0
    80001c0a:	002c                	addi	a1,sp,8
    80001c0c:	8526                	mv	a0,s1
    80001c0e:	f09ff0ef          	jal	ra,80001b16 <rfs_write_dinode>
    80001c12:	ed0d                	bnez	a0,80001c4c <rfs_format_dev+0xe2>
  int *freemap = (int *)rdev->iobuffer;
    80001c14:	6880                	ld	s0,16(s1)
  memset(freemap, 0, RFS_BLKSIZE);
    80001c16:	6605                	lui	a2,0x1
    80001c18:	4581                	li	a1,0
    80001c1a:	8522                	mv	a0,s0
    80001c1c:	628020ef          	jal	ra,80004244 <memset>
  freemap[0] = 1;  // the first data block is used for root directory
    80001c20:	4785                	li	a5,1
    80001c22:	c01c                	sw	a5,0(s0)
  if (rfs_w1block(rdev, RFS_BLK_OFFSET_BITMAP) != 0) {  // write to device
    80001c24:	45ad                	li	a1,11
    80001c26:	8526                	mv	a0,s1
    80001c28:	e2fff0ef          	jal	ra,80001a56 <rfs_w1block>
    80001c2c:	842a                	mv	s0,a0
    80001c2e:	e51d                	bnez	a0,80001c5c <rfs_format_dev+0xf2>
  sprint("RFS: format %s done!\n", dev->dev_name);
    80001c30:	85ca                	mv	a1,s2
    80001c32:	00006517          	auipc	a0,0x6
    80001c36:	07e50513          	addi	a0,a0,126 # 80007cb0 <rfs_i_ops+0xc20>
    80001c3a:	0a6030ef          	jal	ra,80004ce0 <sprint>
}
    80001c3e:	8522                	mv	a0,s0
    80001c40:	60e6                	ld	ra,88(sp)
    80001c42:	6446                	ld	s0,80(sp)
    80001c44:	64a6                	ld	s1,72(sp)
    80001c46:	6906                	ld	s2,64(sp)
    80001c48:	6125                	addi	sp,sp,96
    80001c4a:	8082                	ret
    sprint("RFS: failed to write root inode!\n");
    80001c4c:	00006517          	auipc	a0,0x6
    80001c50:	01c50513          	addi	a0,a0,28 # 80007c68 <rfs_i_ops+0xbd8>
    80001c54:	08c030ef          	jal	ra,80004ce0 <sprint>
    return -1;
    80001c58:	547d                	li	s0,-1
    80001c5a:	b7d5                	j	80001c3e <rfs_format_dev+0xd4>
    sprint("RFS: failed to write bitmap!\n");
    80001c5c:	00006517          	auipc	a0,0x6
    80001c60:	03450513          	addi	a0,a0,52 # 80007c90 <rfs_i_ops+0xc00>
    80001c64:	07c030ef          	jal	ra,80004ce0 <sprint>
    return -1;
    80001c68:	547d                	li	s0,-1
    80001c6a:	bfd1                	j	80001c3e <rfs_format_dev+0xd4>

0000000080001c6c <rfs_write_back_vinode>:
int rfs_write_back_vinode(struct vinode *vinode) {
    80001c6c:	715d                	addi	sp,sp,-80
    80001c6e:	e486                	sd	ra,72(sp)
  dinode.size = vinode->size;
    80001c70:	451c                	lw	a5,8(a0)
    80001c72:	c43e                	sw	a5,8(sp)
  dinode.nlinks = vinode->nlinks;
    80001c74:	491c                	lw	a5,16(a0)
    80001c76:	c83e                	sw	a5,16(sp)
  dinode.blocks = vinode->blocks;
    80001c78:	495c                	lw	a5,20(a0)
    80001c7a:	ca3e                	sw	a5,20(sp)
  dinode.type = vinode->type;
    80001c7c:	455c                	lw	a5,12(a0)
    80001c7e:	c63e                	sw	a5,12(sp)
  for (int i = 0; i < RFS_DIRECT_BLKNUM; ++i) {
    80001c80:	4701                	li	a4,0
    80001c82:	a829                	j	80001c9c <rfs_write_back_vinode+0x30>
    dinode.addrs[i] = vinode->addrs[i];
    80001c84:	00470793          	addi	a5,a4,4
    80001c88:	078a                	slli	a5,a5,0x2
    80001c8a:	00f506b3          	add	a3,a0,a5
    80001c8e:	4694                	lw	a3,8(a3)
    80001c90:	04078793          	addi	a5,a5,64
    80001c94:	978a                	add	a5,a5,sp
    80001c96:	fcd7a423          	sw	a3,-56(a5)
  for (int i = 0; i < RFS_DIRECT_BLKNUM; ++i) {
    80001c9a:	2705                	addiw	a4,a4,1
    80001c9c:	47a5                	li	a5,9
    80001c9e:	fee7d3e3          	bge	a5,a4,80001c84 <rfs_write_back_vinode+0x18>
  struct rfs_device *rdev = rfs_device_list[vinode->sb->s_dev->dev_id];
    80001ca2:	653c                	ld	a5,72(a0)
    80001ca4:	6f9c                	ld	a5,24(a5)
    80001ca6:	5398                	lw	a4,32(a5)
    80001ca8:	070e                	slli	a4,a4,0x3
    80001caa:	0000b797          	auipc	a5,0xb
    80001cae:	67678793          	addi	a5,a5,1654 # 8000d320 <rfs_device_list>
    80001cb2:	97ba                	add	a5,a5,a4
  if (rfs_write_dinode(rdev, &dinode, vinode->inum) != 0) {
    80001cb4:	4110                	lw	a2,0(a0)
    80001cb6:	002c                	addi	a1,sp,8
    80001cb8:	6388                	ld	a0,0(a5)
    80001cba:	e5dff0ef          	jal	ra,80001b16 <rfs_write_dinode>
    80001cbe:	e501                	bnez	a0,80001cc6 <rfs_write_back_vinode+0x5a>
}
    80001cc0:	60a6                	ld	ra,72(sp)
    80001cc2:	6161                	addi	sp,sp,80
    80001cc4:	8082                	ret
    sprint("rfs_free_write_back_inode: failed to write back disk inode!\n");
    80001cc6:	00006517          	auipc	a0,0x6
    80001cca:	00250513          	addi	a0,a0,2 # 80007cc8 <rfs_i_ops+0xc38>
    80001cce:	012030ef          	jal	ra,80004ce0 <sprint>
    return -1;
    80001cd2:	557d                	li	a0,-1
    80001cd4:	b7f5                	j	80001cc0 <rfs_write_back_vinode+0x54>

0000000080001cd6 <rfs_alloc_block>:
  int *freemap = (int *)sb->s_fs_info;
    80001cd6:	7110                	ld	a2,32(a0)
  for (int block = 0; block < sb->nblocks; ++block) {
    80001cd8:	4781                	li	a5,0
    80001cda:	a011                	j	80001cde <rfs_alloc_block+0x8>
    80001cdc:	2785                	addiw	a5,a5,1
    80001cde:	4518                	lw	a4,8(a0)
    80001ce0:	00e7dc63          	bge	a5,a4,80001cf8 <rfs_alloc_block+0x22>
    if (freemap[block] == 0) {  // find a free block
    80001ce4:	00279713          	slli	a4,a5,0x2
    80001ce8:	9732                	add	a4,a4,a2
    80001cea:	4314                	lw	a3,0(a4)
    80001cec:	fae5                	bnez	a3,80001cdc <rfs_alloc_block+0x6>
      freemap[block] = 1;
    80001cee:	4685                	li	a3,1
    80001cf0:	c314                	sw	a3,0(a4)
      free_block = RFS_BLK_OFFSET_FREE + block;
    80001cf2:	00c7851b          	addiw	a0,a5,12
      break;
    80001cf6:	a011                	j	80001cfa <rfs_alloc_block+0x24>
  int free_block = -1;
    80001cf8:	557d                	li	a0,-1
  if (free_block == -1) panic("rfs_alloc_block: no more free block!\n");
    80001cfa:	57fd                	li	a5,-1
    80001cfc:	00f50363          	beq	a0,a5,80001d02 <rfs_alloc_block+0x2c>
}
    80001d00:	8082                	ret
int rfs_alloc_block(struct super_block *sb) {
    80001d02:	1141                	addi	sp,sp,-16
    80001d04:	e406                	sd	ra,8(sp)
  if (free_block == -1) panic("rfs_alloc_block: no more free block!\n");
    80001d06:	00006517          	auipc	a0,0x6
    80001d0a:	00250513          	addi	a0,a0,2 # 80007d08 <rfs_i_ops+0xc78>
    80001d0e:	076030ef          	jal	ra,80004d84 <do_panic>

0000000080001d12 <rfs_write>:
                  int *offset) {
    80001d12:	711d                	addi	sp,sp,-96
    80001d14:	ec86                	sd	ra,88(sp)
    80001d16:	e8a2                	sd	s0,80(sp)
    80001d18:	e4a6                	sd	s1,72(sp)
    80001d1a:	e0ca                	sd	s2,64(sp)
    80001d1c:	fc4e                	sd	s3,56(sp)
    80001d1e:	f852                	sd	s4,48(sp)
    80001d20:	f456                	sd	s5,40(sp)
    80001d22:	f05a                	sd	s6,32(sp)
    80001d24:	ec5e                	sd	s7,24(sp)
    80001d26:	e862                	sd	s8,16(sp)
    80001d28:	e466                	sd	s9,8(sp)
    80001d2a:	e06a                	sd	s10,0(sp)
  if (f_inode->size < *offset) {
    80001d2c:	4518                	lw	a4,8(a0)
    80001d2e:	429c                	lw	a5,0(a3)
    80001d30:	0af74663          	blt	a4,a5,80001ddc <rfs_write+0xca>
    80001d34:	892a                	mv	s2,a0
    80001d36:	8c2e                	mv	s8,a1
    80001d38:	8a32                	mv	s4,a2
    80001d3a:	8ab6                	mv	s5,a3
  int align = *offset % RFS_BLKSIZE;
    80001d3c:	41f7d69b          	sraiw	a3,a5,0x1f
    80001d40:	0146d69b          	srliw	a3,a3,0x14
    80001d44:	00f68d3b          	addw	s10,a3,a5
    80001d48:	6705                	lui	a4,0x1
    80001d4a:	177d                	addi	a4,a4,-1
    80001d4c:	00ed7b33          	and	s6,s10,a4
    80001d50:	40db0b3b          	subw	s6,s6,a3
    80001d54:	000b0c9b          	sext.w	s9,s6
  int writetimes = (len + align) / RFS_BLKSIZE;
    80001d58:	00cc8bb3          	add	s7,s9,a2
    80001d5c:	43fbd693          	srai	a3,s7,0x3f
    80001d60:	00e6f4b3          	and	s1,a3,a4
    80001d64:	94de                	add	s1,s1,s7
    80001d66:	84b1                	srai	s1,s1,0xc
    80001d68:	2481                	sext.w	s1,s1
  int remain = (len + align) % RFS_BLKSIZE;
    80001d6a:	92d1                	srli	a3,a3,0x34
    80001d6c:	9bb6                	add	s7,s7,a3
    80001d6e:	00ebfbb3          	and	s7,s7,a4
    80001d72:	40db8bbb          	subw	s7,s7,a3
  int block_offset = *offset / RFS_BLKSIZE;
    80001d76:	40cd5d1b          	sraiw	s10,s10,0xc
    80001d7a:	000d041b          	sext.w	s0,s10
  struct rfs_device *rdev = rfs_device_list[f_inode->sb->s_dev->dev_id];
    80001d7e:	6534                	ld	a3,72(a0)
    80001d80:	6e94                	ld	a3,24(a3)
    80001d82:	5290                	lw	a2,32(a3)
    80001d84:	060e                	slli	a2,a2,0x3
    80001d86:	0000b697          	auipc	a3,0xb
    80001d8a:	59a68693          	addi	a3,a3,1434 # 8000d320 <rfs_device_list>
    80001d8e:	96b2                	add	a3,a3,a2
    80001d90:	0006b983          	ld	s3,0(a3)
  if (align != 0) {
    80001d94:	8ff9                	and	a5,a5,a4
    80001d96:	eba9                	bnez	a5,80001de8 <rfs_write+0xd6>
  int buf_offset = 0;
    80001d98:	4b01                	li	s6,0
  if (writetimes >= 0) {
    80001d9a:	0a04dd63          	bgez	s1,80001e54 <rfs_write+0x142>
      (f_inode->size < *offset + len ? *offset + len : f_inode->size);
    80001d9e:	000aa783          	lw	a5,0(s5)
    80001da2:	97d2                	add	a5,a5,s4
    80001da4:	00892703          	lw	a4,8(s2)
    80001da8:	00f75363          	bge	a4,a5,80001dae <rfs_write+0x9c>
    80001dac:	873e                	mv	a4,a5
  f_inode->size =
    80001dae:	00e92423          	sw	a4,8(s2)
  *offset += len;
    80001db2:	000aa783          	lw	a5,0(s5)
    80001db6:	014787bb          	addw	a5,a5,s4
    80001dba:	00faa023          	sw	a5,0(s5)
}
    80001dbe:	8552                	mv	a0,s4
    80001dc0:	60e6                	ld	ra,88(sp)
    80001dc2:	6446                	ld	s0,80(sp)
    80001dc4:	64a6                	ld	s1,72(sp)
    80001dc6:	6906                	ld	s2,64(sp)
    80001dc8:	79e2                	ld	s3,56(sp)
    80001dca:	7a42                	ld	s4,48(sp)
    80001dcc:	7aa2                	ld	s5,40(sp)
    80001dce:	7b02                	ld	s6,32(sp)
    80001dd0:	6be2                	ld	s7,24(sp)
    80001dd2:	6c42                	ld	s8,16(sp)
    80001dd4:	6ca2                	ld	s9,8(sp)
    80001dd6:	6d02                	ld	s10,0(sp)
    80001dd8:	6125                	addi	sp,sp,96
    80001dda:	8082                	ret
    panic("rfs_write:offset should less than file size!");
    80001ddc:	00006517          	auipc	a0,0x6
    80001de0:	f5450513          	addi	a0,a0,-172 # 80007d30 <rfs_i_ops+0xca0>
    80001de4:	7a1020ef          	jal	ra,80004d84 <do_panic>
    rfs_r1block(rdev, f_inode->addrs[block_offset]);
    80001de8:	00440793          	addi	a5,s0,4
    80001dec:	078a                	slli	a5,a5,0x2
    80001dee:	97aa                	add	a5,a5,a0
    80001df0:	478c                	lw	a1,8(a5)
    80001df2:	854e                	mv	a0,s3
    80001df4:	a53ff0ef          	jal	ra,80001846 <rfs_r1block>
    int first_block_len = (writetimes == 0 ? len : RFS_BLKSIZE - align);
    80001df8:	c49d                	beqz	s1,80001e26 <rfs_write+0x114>
    80001dfa:	6785                	lui	a5,0x1
    80001dfc:	41678b3b          	subw	s6,a5,s6
    memcpy(rdev->iobuffer + align, w_buf, first_block_len);
    80001e00:	0109b503          	ld	a0,16(s3)
    80001e04:	865a                	mv	a2,s6
    80001e06:	85e2                	mv	a1,s8
    80001e08:	9566                	add	a0,a0,s9
    80001e0a:	402020ef          	jal	ra,8000420c <memcpy>
    rfs_w1block(rdev, f_inode->addrs[block_offset]);
    80001e0e:	00440793          	addi	a5,s0,4
    80001e12:	078a                	slli	a5,a5,0x2
    80001e14:	97ca                	add	a5,a5,s2
    80001e16:	478c                	lw	a1,8(a5)
    80001e18:	854e                	mv	a0,s3
    80001e1a:	c3dff0ef          	jal	ra,80001a56 <rfs_w1block>
    block_offset++;
    80001e1e:	001d041b          	addiw	s0,s10,1
    writetimes--;
    80001e22:	34fd                	addiw	s1,s1,-1
    80001e24:	bf9d                	j	80001d9a <rfs_write+0x88>
    int first_block_len = (writetimes == 0 ? len : RFS_BLKSIZE - align);
    80001e26:	000a0b1b          	sext.w	s6,s4
    80001e2a:	bfd9                	j	80001e00 <rfs_write+0xee>
      memcpy(rdev->iobuffer, w_buf + buf_offset, RFS_BLKSIZE);
    80001e2c:	6605                	lui	a2,0x1
    80001e2e:	016c05b3          	add	a1,s8,s6
    80001e32:	0109b503          	ld	a0,16(s3)
    80001e36:	3d6020ef          	jal	ra,8000420c <memcpy>
      rfs_w1block(rdev, f_inode->addrs[block_offset]);
    80001e3a:	00440793          	addi	a5,s0,4
    80001e3e:	078a                	slli	a5,a5,0x2
    80001e40:	97ca                	add	a5,a5,s2
    80001e42:	478c                	lw	a1,8(a5)
    80001e44:	854e                	mv	a0,s3
    80001e46:	c11ff0ef          	jal	ra,80001a56 <rfs_w1block>
      buf_offset += RFS_BLKSIZE;
    80001e4a:	6785                	lui	a5,0x1
    80001e4c:	01678b3b          	addw	s6,a5,s6
      block_offset++;
    80001e50:	2405                	addiw	s0,s0,1
      writetimes--;
    80001e52:	34fd                	addiw	s1,s1,-1
    while (writetimes != 0) {
    80001e54:	c485                	beqz	s1,80001e7c <rfs_write+0x16a>
      if (block_offset == f_inode->blocks) {  // need to create new block
    80001e56:	01492783          	lw	a5,20(s2)
    80001e5a:	fc8799e3          	bne	a5,s0,80001e2c <rfs_write+0x11a>
        f_inode->addrs[block_offset] = rfs_alloc_block(f_inode->sb);
    80001e5e:	04893503          	ld	a0,72(s2)
    80001e62:	e75ff0ef          	jal	ra,80001cd6 <rfs_alloc_block>
    80001e66:	00440793          	addi	a5,s0,4
    80001e6a:	078a                	slli	a5,a5,0x2
    80001e6c:	97ca                	add	a5,a5,s2
    80001e6e:	c788                	sw	a0,8(a5)
        f_inode->blocks++;
    80001e70:	01492783          	lw	a5,20(s2)
    80001e74:	2785                	addiw	a5,a5,1
    80001e76:	00f92a23          	sw	a5,20(s2)
    80001e7a:	bf4d                	j	80001e2c <rfs_write+0x11a>
    if (remain > 0) {
    80001e7c:	f37051e3          	blez	s7,80001d9e <rfs_write+0x8c>
      if (block_offset == f_inode->blocks) {
    80001e80:	01492783          	lw	a5,20(s2)
    80001e84:	02878163          	beq	a5,s0,80001ea6 <rfs_write+0x194>
      memcpy(rdev->iobuffer, w_buf + buf_offset, remain);
    80001e88:	865e                	mv	a2,s7
    80001e8a:	016c05b3          	add	a1,s8,s6
    80001e8e:	0109b503          	ld	a0,16(s3)
    80001e92:	37a020ef          	jal	ra,8000420c <memcpy>
      rfs_w1block(rdev, f_inode->addrs[block_offset]);
    80001e96:	0411                	addi	s0,s0,4
    80001e98:	040a                	slli	s0,s0,0x2
    80001e9a:	944a                	add	s0,s0,s2
    80001e9c:	440c                	lw	a1,8(s0)
    80001e9e:	854e                	mv	a0,s3
    80001ea0:	bb7ff0ef          	jal	ra,80001a56 <rfs_w1block>
    80001ea4:	bded                	j	80001d9e <rfs_write+0x8c>
        f_inode->addrs[block_offset] = rfs_alloc_block(f_inode->sb);
    80001ea6:	04893503          	ld	a0,72(s2)
    80001eaa:	e2dff0ef          	jal	ra,80001cd6 <rfs_alloc_block>
    80001eae:	00440793          	addi	a5,s0,4
    80001eb2:	078a                	slli	a5,a5,0x2
    80001eb4:	97ca                	add	a5,a5,s2
    80001eb6:	c788                	sw	a0,8(a5)
        ++f_inode->blocks;
    80001eb8:	01492783          	lw	a5,20(s2)
    80001ebc:	2785                	addiw	a5,a5,1
    80001ebe:	00f92a23          	sw	a5,20(s2)
    80001ec2:	b7d9                	j	80001e88 <rfs_write+0x176>

0000000080001ec4 <rfs_free_block>:
  int *freemap = (int *)sb->s_fs_info;
    80001ec4:	711c                	ld	a5,32(a0)
  freemap[block_num - RFS_BLK_OFFSET_FREE] = 0;
    80001ec6:	058a                	slli	a1,a1,0x2
    80001ec8:	fd058593          	addi	a1,a1,-48 # 7fffdfd0 <elf_fpread-0x2030>
    80001ecc:	97ae                	add	a5,a5,a1
    80001ece:	0007a023          	sw	zero,0(a5) # 1000 <elf_fpread-0x7ffff000>
}
    80001ed2:	4501                	li	a0,0
    80001ed4:	8082                	ret

0000000080001ed6 <rfs_unlink>:
int rfs_unlink(struct vinode *parent, struct dentry *sub_dentry, struct vinode *unlink_vinode) {
    80001ed6:	715d                	addi	sp,sp,-80
    80001ed8:	e486                	sd	ra,72(sp)
    80001eda:	e0a2                	sd	s0,64(sp)
    80001edc:	fc26                	sd	s1,56(sp)
    80001ede:	f84a                	sd	s2,48(sp)
    80001ee0:	f44e                	sd	s3,40(sp)
    80001ee2:	f052                	sd	s4,32(sp)
    80001ee4:	ec56                	sd	s5,24(sp)
    80001ee6:	e85a                	sd	s6,16(sp)
    80001ee8:	e45e                	sd	s7,8(sp)
    80001eea:	892a                	mv	s2,a0
    80001eec:	8a2e                	mv	s4,a1
    80001eee:	8ab2                	mv	s5,a2
  struct rfs_device *rdev = rfs_device_list[parent->sb->s_dev->dev_id];
    80001ef0:	653c                	ld	a5,72(a0)
    80001ef2:	6f9c                	ld	a5,24(a5)
    80001ef4:	5398                	lw	a4,32(a5)
    80001ef6:	070e                	slli	a4,a4,0x3
    80001ef8:	0000b797          	auipc	a5,0xb
    80001efc:	42878793          	addi	a5,a5,1064 # 8000d320 <rfs_device_list>
    80001f00:	97ba                	add	a5,a5,a4
    80001f02:	6380                	ld	s0,0(a5)
  int total_direntrys = parent->size / sizeof(struct rfs_direntry);
    80001f04:	00852983          	lw	s3,8(a0)
    80001f08:	4059d993          	srai	s3,s3,0x5
  for (delete_index = 0; delete_index < total_direntrys; ++delete_index) {
    80001f0c:	4481                	li	s1,0
  struct rfs_direntry *p_direntry = NULL;
    80001f0e:	4b01                	li	s6,0
  for (delete_index = 0; delete_index < total_direntrys; ++delete_index) {
    80001f10:	a811                	j	80001f24 <rfs_unlink+0x4e>
    if (strcmp(p_direntry->name, sub_dentry->name) == 0) {  // found
    80001f12:	85d2                	mv	a1,s4
    80001f14:	004b0513          	addi	a0,s6,4
    80001f18:	382020ef          	jal	ra,8000429a <strcmp>
    80001f1c:	c915                	beqz	a0,80001f50 <rfs_unlink+0x7a>
    ++p_direntry;
    80001f1e:	020b0b13          	addi	s6,s6,32
  for (delete_index = 0; delete_index < total_direntrys; ++delete_index) {
    80001f22:	2485                	addiw	s1,s1,1
    80001f24:	0334d663          	bge	s1,s3,80001f50 <rfs_unlink+0x7a>
    if (delete_index % one_block_direntrys == 0) {
    80001f28:	07f4f793          	andi	a5,s1,127
    80001f2c:	f3fd                	bnez	a5,80001f12 <rfs_unlink+0x3c>
      rfs_r1block(rdev, parent->addrs[delete_index / one_block_direntrys]);
    80001f2e:	41f4d79b          	sraiw	a5,s1,0x1f
    80001f32:	0197d79b          	srliw	a5,a5,0x19
    80001f36:	9fa5                	addw	a5,a5,s1
    80001f38:	4077d79b          	sraiw	a5,a5,0x7
    80001f3c:	0791                	addi	a5,a5,4
    80001f3e:	078a                	slli	a5,a5,0x2
    80001f40:	97ca                	add	a5,a5,s2
    80001f42:	478c                	lw	a1,8(a5)
    80001f44:	8522                	mv	a0,s0
    80001f46:	901ff0ef          	jal	ra,80001846 <rfs_r1block>
      p_direntry = (struct rfs_direntry *)rdev->iobuffer;
    80001f4a:	01043b03          	ld	s6,16(s0)
    80001f4e:	b7d1                	j	80001f12 <rfs_unlink+0x3c>
  int inum = p_direntry->inum;
    80001f50:	000b2b83          	lw	s7,0(s6)
  if (delete_index == total_direntrys) {
    80001f54:	09348963          	beq	s1,s3,80001fe6 <rfs_unlink+0x110>
  struct rfs_dinode *unlink_dinode = rfs_read_dinode(rdev, inum);
    80001f58:	85de                	mv	a1,s7
    80001f5a:	8522                	mv	a0,s0
    80001f5c:	b09ff0ef          	jal	ra,80001a64 <rfs_read_dinode>
    80001f60:	8b2a                	mv	s6,a0
  assert(unlink_vinode->nlinks == unlink_dinode->nlinks);
    80001f62:	010aa783          	lw	a5,16(s5)
    80001f66:	4518                	lw	a4,8(a0)
    80001f68:	08e79863          	bne	a5,a4,80001ff8 <rfs_unlink+0x122>
  unlink_vinode->nlinks--;
    80001f6c:	37fd                	addiw	a5,a5,-1
    80001f6e:	00078a1b          	sext.w	s4,a5
    80001f72:	00faa823          	sw	a5,16(s5)
  unlink_dinode->nlinks = unlink_vinode->nlinks;
    80001f76:	c51c                	sw	a5,8(a0)
  if (unlink_dinode->nlinks == 0) {
    80001f78:	0a0a0e63          	beqz	s4,80002034 <rfs_unlink+0x15e>
  rfs_write_dinode(rdev, unlink_dinode, inum);
    80001f7c:	865e                	mv	a2,s7
    80001f7e:	85da                	mv	a1,s6
    80001f80:	8522                	mv	a0,s0
    80001f82:	b95ff0ef          	jal	ra,80001b16 <rfs_write_dinode>
  free_page(unlink_dinode);
    80001f86:	855a                	mv	a0,s6
    80001f88:	fa6fe0ef          	jal	ra,8000072e <free_page>
  int delete_block_index = delete_index / one_block_direntrys;
    80001f8c:	41f4da9b          	sraiw	s5,s1,0x1f
    80001f90:	019ada9b          	srliw	s5,s5,0x19
    80001f94:	009a84bb          	addw	s1,s5,s1
    80001f98:	4074da1b          	sraiw	s4,s1,0x7
    80001f9c:	000a079b          	sext.w	a5,s4
  rfs_r1block(rdev, parent->addrs[delete_block_index]);
    80001fa0:	0791                	addi	a5,a5,4
    80001fa2:	078a                	slli	a5,a5,0x2
    80001fa4:	97ca                	add	a5,a5,s2
    80001fa6:	478c                	lw	a1,8(a5)
    80001fa8:	8522                	mv	a0,s0
    80001faa:	89dff0ef          	jal	ra,80001846 <rfs_r1block>
  int offset = delete_index % one_block_direntrys;
    80001fae:	07f4f493          	andi	s1,s1,127
    80001fb2:	415484bb          	subw	s1,s1,s5
    80001fb6:	0004879b          	sext.w	a5,s1
  memmove(rdev->iobuffer + offset * sizeof(struct rfs_direntry),
    80001fba:	6808                	ld	a0,16(s0)
    80001fbc:	0796                	slli	a5,a5,0x5
          rdev->iobuffer + (offset + 1) * sizeof(struct rfs_direntry),
    80001fbe:	0014859b          	addiw	a1,s1,1
    80001fc2:	0596                	slli	a1,a1,0x5
          (one_block_direntrys - offset - 1) * sizeof(struct rfs_direntry));
    80001fc4:	07f00613          	li	a2,127
    80001fc8:	9e05                	subw	a2,a2,s1
  memmove(rdev->iobuffer + offset * sizeof(struct rfs_direntry),
    80001fca:	0616                	slli	a2,a2,0x5
    80001fcc:	95aa                	add	a1,a1,a0
    80001fce:	953e                	add	a0,a0,a5
    80001fd0:	40a020ef          	jal	ra,800043da <memmove>
  struct rfs_direntry *previous_block = (struct rfs_direntry *)alloc_page();
    80001fd4:	fd0fe0ef          	jal	ra,800007a4 <alloc_page>
    80001fd8:	8aaa                	mv	s5,a0
  memcpy(previous_block, rdev->iobuffer, RFS_BLKSIZE);
    80001fda:	6605                	lui	a2,0x1
    80001fdc:	680c                	ld	a1,16(s0)
    80001fde:	22e020ef          	jal	ra,8000420c <memcpy>
  for (int i = delete_block_index + 1; i < parent->blocks; i++) {
    80001fe2:	2a05                	addiw	s4,s4,1
    80001fe4:	a0c9                	j	800020a6 <rfs_unlink+0x1d0>
    sprint("unlink: file %s not found.\n", sub_dentry->name);
    80001fe6:	85d2                	mv	a1,s4
    80001fe8:	00006517          	auipc	a0,0x6
    80001fec:	d7850513          	addi	a0,a0,-648 # 80007d60 <rfs_i_ops+0xcd0>
    80001ff0:	4f1020ef          	jal	ra,80004ce0 <sprint>
    return -1;
    80001ff4:	557d                	li	a0,-1
    80001ff6:	a209                	j	800020f8 <rfs_unlink+0x222>
  assert(unlink_vinode->nlinks == unlink_dinode->nlinks);
    80001ff8:	00006697          	auipc	a3,0x6
    80001ffc:	d8868693          	addi	a3,a3,-632 # 80007d80 <rfs_i_ops+0xcf0>
    80002000:	27f00613          	li	a2,639
    80002004:	00006597          	auipc	a1,0x6
    80002008:	dac58593          	addi	a1,a1,-596 # 80007db0 <rfs_i_ops+0xd20>
    8000200c:	00006517          	auipc	a0,0x6
    80002010:	95450513          	addi	a0,a0,-1708 # 80007960 <rfs_i_ops+0x8d0>
    80002014:	4cd020ef          	jal	ra,80004ce0 <sprint>
    80002018:	6541                	lui	a0,0x10
    8000201a:	157d                	addi	a0,a0,-1
    8000201c:	4e5020ef          	jal	ra,80004d00 <poweroff>
      rfs_free_block(parent->sb, unlink_dinode->addrs[i]);
    80002020:	004a0793          	addi	a5,s4,4
    80002024:	078a                	slli	a5,a5,0x2
    80002026:	97da                	add	a5,a5,s6
    80002028:	438c                	lw	a1,0(a5)
    8000202a:	04893503          	ld	a0,72(s2)
    8000202e:	e97ff0ef          	jal	ra,80001ec4 <rfs_free_block>
    for (int i = 0; i < unlink_dinode->blocks; ++i) {
    80002032:	2a05                	addiw	s4,s4,1
    80002034:	00cb2783          	lw	a5,12(s6)
    80002038:	fefa44e3          	blt	s4,a5,80002020 <rfs_unlink+0x14a>
    unlink_dinode->type = R_FREE;
    8000203c:	4789                	li	a5,2
    8000203e:	00fb2223          	sw	a5,4(s6)
    80002042:	bf2d                	j	80001f7c <rfs_unlink+0xa6>
    rfs_r1block(rdev, parent->addrs[i]);
    80002044:	004a0793          	addi	a5,s4,4
    80002048:	078a                	slli	a5,a5,0x2
    8000204a:	97ca                	add	a5,a5,s2
    8000204c:	478c                	lw	a1,8(a5)
    8000204e:	8522                	mv	a0,s0
    80002050:	ff6ff0ef          	jal	ra,80001846 <rfs_r1block>
    struct rfs_direntry *this_block = (struct rfs_direntry *)alloc_page();
    80002054:	f50fe0ef          	jal	ra,800007a4 <alloc_page>
    80002058:	84aa                	mv	s1,a0
    memcpy(this_block, rdev->iobuffer, RFS_BLKSIZE);
    8000205a:	6605                	lui	a2,0x1
    8000205c:	680c                	ld	a1,16(s0)
    8000205e:	1ae020ef          	jal	ra,8000420c <memcpy>
    memcpy(previous_block + one_block_direntrys - 1, rdev->iobuffer,
    80002062:	6b05                	lui	s6,0x1
    80002064:	1b01                	addi	s6,s6,-32
    80002066:	02000613          	li	a2,32
    8000206a:	680c                	ld	a1,16(s0)
    8000206c:	016a8533          	add	a0,s5,s6
    80002070:	19c020ef          	jal	ra,8000420c <memcpy>
    memmove(this_block, this_block + 1,
    80002074:	865a                	mv	a2,s6
    80002076:	02048593          	addi	a1,s1,32
    8000207a:	8526                	mv	a0,s1
    8000207c:	35e020ef          	jal	ra,800043da <memmove>
    memcpy(rdev->iobuffer, previous_block, RFS_BLKSIZE);
    80002080:	6605                	lui	a2,0x1
    80002082:	85d6                	mv	a1,s5
    80002084:	6808                	ld	a0,16(s0)
    80002086:	186020ef          	jal	ra,8000420c <memcpy>
    rfs_w1block(rdev, parent->addrs[i - 1]);
    8000208a:	fffa079b          	addiw	a5,s4,-1
    8000208e:	0791                	addi	a5,a5,4
    80002090:	078a                	slli	a5,a5,0x2
    80002092:	97ca                	add	a5,a5,s2
    80002094:	478c                	lw	a1,8(a5)
    80002096:	8522                	mv	a0,s0
    80002098:	9bfff0ef          	jal	ra,80001a56 <rfs_w1block>
    free_page(previous_block);
    8000209c:	8556                	mv	a0,s5
    8000209e:	e90fe0ef          	jal	ra,8000072e <free_page>
  for (int i = delete_block_index + 1; i < parent->blocks; i++) {
    800020a2:	2a05                	addiw	s4,s4,1
    previous_block = this_block;
    800020a4:	8aa6                	mv	s5,s1
  for (int i = delete_block_index + 1; i < parent->blocks; i++) {
    800020a6:	01492783          	lw	a5,20(s2)
    800020aa:	f8fa4de3          	blt	s4,a5,80002044 <rfs_unlink+0x16e>
  memcpy(rdev->iobuffer, previous_block, RFS_BLKSIZE);
    800020ae:	6605                	lui	a2,0x1
    800020b0:	85d6                	mv	a1,s5
    800020b2:	6808                	ld	a0,16(s0)
    800020b4:	158020ef          	jal	ra,8000420c <memcpy>
  rfs_w1block(rdev, parent->addrs[parent->blocks - 1]);
    800020b8:	01492783          	lw	a5,20(s2)
    800020bc:	37fd                	addiw	a5,a5,-1
    800020be:	0791                	addi	a5,a5,4
    800020c0:	078a                	slli	a5,a5,0x2
    800020c2:	97ca                	add	a5,a5,s2
    800020c4:	478c                	lw	a1,8(a5)
    800020c6:	8522                	mv	a0,s0
    800020c8:	98fff0ef          	jal	ra,80001a56 <rfs_w1block>
  free_page(previous_block);
    800020cc:	8556                	mv	a0,s5
    800020ce:	e60fe0ef          	jal	ra,8000072e <free_page>
  total_direntrys--;
    800020d2:	39fd                	addiw	s3,s3,-1
  if (total_direntrys % one_block_direntrys == 0 && parent->blocks > 1) {
    800020d4:	07f9f993          	andi	s3,s3,127
    800020d8:	00099763          	bnez	s3,800020e6 <rfs_unlink+0x210>
    800020dc:	01492783          	lw	a5,20(s2)
    800020e0:	4705                	li	a4,1
    800020e2:	02f74663          	blt	a4,a5,8000210e <rfs_unlink+0x238>
  parent->size -= sizeof(struct rfs_direntry);
    800020e6:	00892783          	lw	a5,8(s2)
    800020ea:	3781                	addiw	a5,a5,-32
    800020ec:	00f92423          	sw	a5,8(s2)
  if (rfs_write_back_vinode(parent) != 0) {
    800020f0:	854a                	mv	a0,s2
    800020f2:	b7bff0ef          	jal	ra,80001c6c <rfs_write_back_vinode>
    800020f6:	e91d                	bnez	a0,8000212c <rfs_unlink+0x256>
}
    800020f8:	60a6                	ld	ra,72(sp)
    800020fa:	6406                	ld	s0,64(sp)
    800020fc:	74e2                	ld	s1,56(sp)
    800020fe:	7942                	ld	s2,48(sp)
    80002100:	79a2                	ld	s3,40(sp)
    80002102:	7a02                	ld	s4,32(sp)
    80002104:	6ae2                	ld	s5,24(sp)
    80002106:	6b42                	ld	s6,16(sp)
    80002108:	6ba2                	ld	s7,8(sp)
    8000210a:	6161                	addi	sp,sp,80
    8000210c:	8082                	ret
    rfs_free_block(parent->sb, parent->addrs[parent->blocks - 1]);
    8000210e:	37fd                	addiw	a5,a5,-1
    80002110:	0791                	addi	a5,a5,4
    80002112:	078a                	slli	a5,a5,0x2
    80002114:	97ca                	add	a5,a5,s2
    80002116:	478c                	lw	a1,8(a5)
    80002118:	04893503          	ld	a0,72(s2)
    8000211c:	da9ff0ef          	jal	ra,80001ec4 <rfs_free_block>
    parent->blocks--;
    80002120:	01492783          	lw	a5,20(s2)
    80002124:	37fd                	addiw	a5,a5,-1
    80002126:	00f92a23          	sw	a5,20(s2)
    8000212a:	bf75                	j	800020e6 <rfs_unlink+0x210>
    sprint("rfs_unlink: rfs_write_back_vinode failed");
    8000212c:	00006517          	auipc	a0,0x6
    80002130:	c9450513          	addi	a0,a0,-876 # 80007dc0 <rfs_i_ops+0xd30>
    80002134:	3ad020ef          	jal	ra,80004ce0 <sprint>
    return -1;
    80002138:	557d                	li	a0,-1
    8000213a:	bf7d                	j	800020f8 <rfs_unlink+0x222>

000000008000213c <rfs_add_direntry>:
int rfs_add_direntry(struct vinode *dir, const char *name, int inum) {
    8000213c:	7179                	addi	sp,sp,-48
    8000213e:	f406                	sd	ra,40(sp)
    80002140:	f022                	sd	s0,32(sp)
    80002142:	ec26                	sd	s1,24(sp)
    80002144:	e84a                	sd	s2,16(sp)
    80002146:	e44e                	sd	s3,8(sp)
    80002148:	e052                	sd	s4,0(sp)
  if (dir->type != DIR_I) {
    8000214a:	4558                	lw	a4,12(a0)
    8000214c:	4785                	li	a5,1
    8000214e:	08f71a63          	bne	a4,a5,800021e2 <rfs_add_direntry+0xa6>
    80002152:	842a                	mv	s0,a0
    80002154:	84ae                	mv	s1,a1
    80002156:	8932                	mv	s2,a2
  struct rfs_device *rdev = rfs_device_list[dir->sb->s_dev->dev_id];
    80002158:	653c                	ld	a5,72(a0)
    8000215a:	6f9c                	ld	a5,24(a5)
    8000215c:	5398                	lw	a4,32(a5)
    8000215e:	070e                	slli	a4,a4,0x3
    80002160:	0000b797          	auipc	a5,0xb
    80002164:	1c078793          	addi	a5,a5,448 # 8000d320 <rfs_device_list>
    80002168:	97ba                	add	a5,a5,a4
    8000216a:	0007b983          	ld	s3,0(a5)
  int n_block = dir->addrs[dir->size / RFS_BLKSIZE];
    8000216e:	4518                	lw	a4,8(a0)
    80002170:	41f7579b          	sraiw	a5,a4,0x1f
    80002174:	0147d79b          	srliw	a5,a5,0x14
    80002178:	9fb9                	addw	a5,a5,a4
    8000217a:	40c7d79b          	sraiw	a5,a5,0xc
    8000217e:	0791                	addi	a5,a5,4
    80002180:	078a                	slli	a5,a5,0x2
    80002182:	97aa                	add	a5,a5,a0
    80002184:	0087aa03          	lw	s4,8(a5)
  if (rfs_r1block(rdev, n_block) != 0) {
    80002188:	85d2                	mv	a1,s4
    8000218a:	854e                	mv	a0,s3
    8000218c:	ebaff0ef          	jal	ra,80001846 <rfs_r1block>
    80002190:	e12d                	bnez	a0,800021f2 <rfs_add_direntry+0xb6>
  char *addr = (char *)rdev->iobuffer + dir->size % RFS_BLKSIZE;
    80002192:	0109b503          	ld	a0,16(s3)
    80002196:	441c                	lw	a5,8(s0)
    80002198:	41f7d71b          	sraiw	a4,a5,0x1f
    8000219c:	0147571b          	srliw	a4,a4,0x14
    800021a0:	9fb9                	addw	a5,a5,a4
    800021a2:	6685                	lui	a3,0x1
    800021a4:	16fd                	addi	a3,a3,-1
    800021a6:	8ff5                	and	a5,a5,a3
    800021a8:	9f99                	subw	a5,a5,a4
    800021aa:	953e                	add	a0,a0,a5
  p_direntry->inum = inum;
    800021ac:	01252023          	sw	s2,0(a0)
  strcpy(p_direntry->name, name);
    800021b0:	85a6                	mv	a1,s1
    800021b2:	0511                	addi	a0,a0,4
    800021b4:	0fe020ef          	jal	ra,800042b2 <strcpy>
  if (rfs_w1block(rdev, n_block) != 0) {
    800021b8:	85d2                	mv	a1,s4
    800021ba:	854e                	mv	a0,s3
    800021bc:	89bff0ef          	jal	ra,80001a56 <rfs_w1block>
    800021c0:	e131                	bnez	a0,80002204 <rfs_add_direntry+0xc8>
  dir->size += sizeof(struct rfs_direntry);
    800021c2:	441c                	lw	a5,8(s0)
    800021c4:	0207879b          	addiw	a5,a5,32
    800021c8:	c41c                	sw	a5,8(s0)
  if (rfs_write_back_vinode(dir) != 0) {
    800021ca:	8522                	mv	a0,s0
    800021cc:	aa1ff0ef          	jal	ra,80001c6c <rfs_write_back_vinode>
    800021d0:	e139                	bnez	a0,80002216 <rfs_add_direntry+0xda>
}
    800021d2:	70a2                	ld	ra,40(sp)
    800021d4:	7402                	ld	s0,32(sp)
    800021d6:	64e2                	ld	s1,24(sp)
    800021d8:	6942                	ld	s2,16(sp)
    800021da:	69a2                	ld	s3,8(sp)
    800021dc:	6a02                	ld	s4,0(sp)
    800021de:	6145                	addi	sp,sp,48
    800021e0:	8082                	ret
    sprint("rfs_add_direntry: not a directory!\n");
    800021e2:	00006517          	auipc	a0,0x6
    800021e6:	c0e50513          	addi	a0,a0,-1010 # 80007df0 <rfs_i_ops+0xd60>
    800021ea:	2f7020ef          	jal	ra,80004ce0 <sprint>
    return -1;
    800021ee:	557d                	li	a0,-1
    800021f0:	b7cd                	j	800021d2 <rfs_add_direntry+0x96>
    sprint("rfs_add_direntry: failed to read block %d!\n", n_block);
    800021f2:	85d2                	mv	a1,s4
    800021f4:	00006517          	auipc	a0,0x6
    800021f8:	c2450513          	addi	a0,a0,-988 # 80007e18 <rfs_i_ops+0xd88>
    800021fc:	2e5020ef          	jal	ra,80004ce0 <sprint>
    return -1;
    80002200:	557d                	li	a0,-1
    80002202:	bfc1                	j	800021d2 <rfs_add_direntry+0x96>
    sprint("rfs_add_direntry: failed to write block %d!\n", n_block);
    80002204:	85d2                	mv	a1,s4
    80002206:	00006517          	auipc	a0,0x6
    8000220a:	c4250513          	addi	a0,a0,-958 # 80007e48 <rfs_i_ops+0xdb8>
    8000220e:	2d3020ef          	jal	ra,80004ce0 <sprint>
    return -1;
    80002212:	557d                	li	a0,-1
    80002214:	bf7d                	j	800021d2 <rfs_add_direntry+0x96>
    sprint("rfs_add_direntry: failed to write back parent dir inode!\n");
    80002216:	00006517          	auipc	a0,0x6
    8000221a:	c6250513          	addi	a0,a0,-926 # 80007e78 <rfs_i_ops+0xde8>
    8000221e:	2c3020ef          	jal	ra,80004ce0 <sprint>
    return -1;
    80002222:	557d                	li	a0,-1
    80002224:	b77d                	j	800021d2 <rfs_add_direntry+0x96>

0000000080002226 <rfs_link>:
int rfs_link(struct vinode *parent, struct dentry *sub_dentry, struct vinode *link_node) {
    80002226:	1141                	addi	sp,sp,-16
    80002228:	e406                	sd	ra,8(sp)
    8000222a:	e022                	sd	s0,0(sp)
    8000222c:	8432                	mv	s0,a2
  link_node->nlinks++;
    8000222e:	4a1c                	lw	a5,16(a2)
    80002230:	2785                	addiw	a5,a5,1
    80002232:	ca1c                	sw	a5,16(a2)
  rfs_add_direntry(parent, sub_dentry->name, link_node->inum);
    80002234:	4210                	lw	a2,0(a2)
    80002236:	f07ff0ef          	jal	ra,8000213c <rfs_add_direntry>
  return rfs_write_back_vinode(link_node);
    8000223a:	8522                	mv	a0,s0
    8000223c:	a31ff0ef          	jal	ra,80001c6c <rfs_write_back_vinode>
}
    80002240:	60a2                	ld	ra,8(sp)
    80002242:	6402                	ld	s0,0(sp)
    80002244:	0141                	addi	sp,sp,16
    80002246:	8082                	ret

0000000080002248 <rfs_alloc_vinode>:
struct vinode *rfs_alloc_vinode(struct super_block *sb) {
    80002248:	1141                	addi	sp,sp,-16
    8000224a:	e406                	sd	ra,8(sp)
  struct vinode *vinode = default_alloc_vinode(sb);
    8000224c:	6aa010ef          	jal	ra,800038f6 <default_alloc_vinode>
  vinode->i_ops = &rfs_i_ops;
    80002250:	00005797          	auipc	a5,0x5
    80002254:	e4078793          	addi	a5,a5,-448 # 80007090 <rfs_i_ops>
    80002258:	e93c                	sd	a5,80(a0)
}
    8000225a:	60a2                	ld	ra,8(sp)
    8000225c:	0141                	addi	sp,sp,16
    8000225e:	8082                	ret

0000000080002260 <rfs_update_vinode>:
int rfs_update_vinode(struct vinode *vinode) {
    80002260:	1141                	addi	sp,sp,-16
    80002262:	e406                	sd	ra,8(sp)
    80002264:	e022                	sd	s0,0(sp)
    80002266:	842a                	mv	s0,a0
  struct rfs_device *rdev = rfs_device_list[vinode->sb->s_dev->dev_id];
    80002268:	653c                	ld	a5,72(a0)
    8000226a:	6f9c                	ld	a5,24(a5)
    8000226c:	5398                	lw	a4,32(a5)
    8000226e:	070e                	slli	a4,a4,0x3
    80002270:	0000b797          	auipc	a5,0xb
    80002274:	0b078793          	addi	a5,a5,176 # 8000d320 <rfs_device_list>
    80002278:	97ba                	add	a5,a5,a4
  struct rfs_dinode *dinode = rfs_read_dinode(rdev, vinode->inum);
    8000227a:	410c                	lw	a1,0(a0)
    8000227c:	6388                	ld	a0,0(a5)
    8000227e:	fe6ff0ef          	jal	ra,80001a64 <rfs_read_dinode>
  if (dinode == NULL) {
    80002282:	c919                	beqz	a0,80002298 <rfs_update_vinode+0x38>
  vinode->size = dinode->size;
    80002284:	411c                	lw	a5,0(a0)
    80002286:	c41c                	sw	a5,8(s0)
  vinode->nlinks = dinode->nlinks;
    80002288:	451c                	lw	a5,8(a0)
    8000228a:	c81c                	sw	a5,16(s0)
  vinode->blocks = dinode->blocks;
    8000228c:	455c                	lw	a5,12(a0)
    8000228e:	c85c                	sw	a5,20(s0)
  vinode->type = dinode->type;
    80002290:	415c                	lw	a5,4(a0)
    80002292:	c45c                	sw	a5,12(s0)
  for (int i = 0; i < RFS_DIRECT_BLKNUM; ++i) {
    80002294:	4701                	li	a4,0
    80002296:	a015                	j	800022ba <rfs_update_vinode+0x5a>
    sprint("rfs_update_vinode: failed to read disk inode!\n");
    80002298:	00006517          	auipc	a0,0x6
    8000229c:	c2050513          	addi	a0,a0,-992 # 80007eb8 <rfs_i_ops+0xe28>
    800022a0:	241020ef          	jal	ra,80004ce0 <sprint>
    return -1;
    800022a4:	557d                	li	a0,-1
    800022a6:	a005                	j	800022c6 <rfs_update_vinode+0x66>
    vinode->addrs[i] = dinode->addrs[i];
    800022a8:	00470793          	addi	a5,a4,4 # 1004 <elf_fpread-0x7fffeffc>
    800022ac:	078a                	slli	a5,a5,0x2
    800022ae:	00f506b3          	add	a3,a0,a5
    800022b2:	4294                	lw	a3,0(a3)
    800022b4:	97a2                	add	a5,a5,s0
    800022b6:	c794                	sw	a3,8(a5)
  for (int i = 0; i < RFS_DIRECT_BLKNUM; ++i) {
    800022b8:	2705                	addiw	a4,a4,1
    800022ba:	47a5                	li	a5,9
    800022bc:	fee7d6e3          	bge	a5,a4,800022a8 <rfs_update_vinode+0x48>
  free_page(dinode);
    800022c0:	c6efe0ef          	jal	ra,8000072e <free_page>
  return 0;
    800022c4:	4501                	li	a0,0
}
    800022c6:	60a2                	ld	ra,8(sp)
    800022c8:	6402                	ld	s0,0(sp)
    800022ca:	0141                	addi	sp,sp,16
    800022cc:	8082                	ret

00000000800022ce <rfs_lookup>:
struct vinode *rfs_lookup(struct vinode *parent, struct dentry *sub_dentry) {
    800022ce:	7139                	addi	sp,sp,-64
    800022d0:	fc06                	sd	ra,56(sp)
    800022d2:	f822                	sd	s0,48(sp)
    800022d4:	f426                	sd	s1,40(sp)
    800022d6:	f04a                	sd	s2,32(sp)
    800022d8:	ec4e                	sd	s3,24(sp)
    800022da:	e852                	sd	s4,16(sp)
    800022dc:	e456                	sd	s5,8(sp)
    800022de:	89aa                	mv	s3,a0
    800022e0:	892e                	mv	s2,a1
  int total_direntrys = parent->size / sizeof(struct rfs_direntry);
    800022e2:	4504                	lw	s1,8(a0)
    800022e4:	8495                	srai	s1,s1,0x5
  struct rfs_device *rdev = rfs_device_list[parent->sb->s_dev->dev_id];
    800022e6:	653c                	ld	a5,72(a0)
    800022e8:	6f9c                	ld	a5,24(a5)
    800022ea:	5398                	lw	a4,32(a5)
    800022ec:	070e                	slli	a4,a4,0x3
    800022ee:	0000b797          	auipc	a5,0xb
    800022f2:	03278793          	addi	a5,a5,50 # 8000d320 <rfs_device_list>
    800022f6:	97ba                	add	a5,a5,a4
    800022f8:	0007ba03          	ld	s4,0(a5)
  for (int i = 0; i < total_direntrys; ++i) {
    800022fc:	4401                	li	s0,0
  struct rfs_direntry *p_direntry = NULL;
    800022fe:	4a81                	li	s5,0
  for (int i = 0; i < total_direntrys; ++i) {
    80002300:	a811                	j	80002314 <rfs_lookup+0x46>
    if (strcmp(p_direntry->name, sub_dentry->name) == 0) {  // found
    80002302:	85ca                	mv	a1,s2
    80002304:	004a8513          	addi	a0,s5,4
    80002308:	793010ef          	jal	ra,8000429a <strcmp>
    8000230c:	c915                	beqz	a0,80002340 <rfs_lookup+0x72>
    ++p_direntry;
    8000230e:	020a8a93          	addi	s5,s5,32
  for (int i = 0; i < total_direntrys; ++i) {
    80002312:	2405                	addiw	s0,s0,1
    80002314:	04945763          	bge	s0,s1,80002362 <rfs_lookup+0x94>
    if (i % one_block_direntrys == 0) {  // read in the disk block at boundary
    80002318:	07f47793          	andi	a5,s0,127
    8000231c:	f3fd                	bnez	a5,80002302 <rfs_lookup+0x34>
      rfs_r1block(rdev, parent->addrs[i / one_block_direntrys]);
    8000231e:	41f4579b          	sraiw	a5,s0,0x1f
    80002322:	0197d79b          	srliw	a5,a5,0x19
    80002326:	9fa1                	addw	a5,a5,s0
    80002328:	4077d79b          	sraiw	a5,a5,0x7
    8000232c:	0791                	addi	a5,a5,4
    8000232e:	078a                	slli	a5,a5,0x2
    80002330:	97ce                	add	a5,a5,s3
    80002332:	478c                	lw	a1,8(a5)
    80002334:	8552                	mv	a0,s4
    80002336:	d10ff0ef          	jal	ra,80001846 <rfs_r1block>
      p_direntry = (struct rfs_direntry *)rdev->iobuffer;
    8000233a:	010a3a83          	ld	s5,16(s4)
    8000233e:	b7d1                	j	80002302 <rfs_lookup+0x34>
      child_vinode = rfs_alloc_vinode(parent->sb);
    80002340:	0489b503          	ld	a0,72(s3)
    80002344:	f05ff0ef          	jal	ra,80002248 <rfs_alloc_vinode>
    80002348:	842a                	mv	s0,a0
      child_vinode->inum = p_direntry->inum;
    8000234a:	000aa783          	lw	a5,0(s5)
    8000234e:	c11c                	sw	a5,0(a0)
      if (rfs_update_vinode(child_vinode) != 0)
    80002350:	f11ff0ef          	jal	ra,80002260 <rfs_update_vinode>
    80002354:	c901                	beqz	a0,80002364 <rfs_lookup+0x96>
        panic("rfs_lookup: read inode failed!");
    80002356:	00006517          	auipc	a0,0x6
    8000235a:	b9250513          	addi	a0,a0,-1134 # 80007ee8 <rfs_i_ops+0xe58>
    8000235e:	227020ef          	jal	ra,80004d84 <do_panic>
  struct vinode *child_vinode = NULL;
    80002362:	4401                	li	s0,0
}
    80002364:	8522                	mv	a0,s0
    80002366:	70e2                	ld	ra,56(sp)
    80002368:	7442                	ld	s0,48(sp)
    8000236a:	74a2                	ld	s1,40(sp)
    8000236c:	7902                	ld	s2,32(sp)
    8000236e:	69e2                	ld	s3,24(sp)
    80002370:	6a42                	ld	s4,16(sp)
    80002372:	6aa2                	ld	s5,8(sp)
    80002374:	6121                	addi	sp,sp,64
    80002376:	8082                	ret

0000000080002378 <rfs_create>:
struct vinode *rfs_create(struct vinode *parent, struct dentry *sub_dentry) {
    80002378:	7179                	addi	sp,sp,-48
    8000237a:	f406                	sd	ra,40(sp)
    8000237c:	f022                	sd	s0,32(sp)
    8000237e:	ec26                	sd	s1,24(sp)
    80002380:	e84a                	sd	s2,16(sp)
    80002382:	e44e                	sd	s3,8(sp)
    80002384:	e052                	sd	s4,0(sp)
    80002386:	89aa                	mv	s3,a0
    80002388:	8a2e                	mv	s4,a1
  struct rfs_device *rdev = rfs_device_list[parent->sb->s_dev->dev_id];
    8000238a:	653c                	ld	a5,72(a0)
    8000238c:	6f9c                	ld	a5,24(a5)
    8000238e:	5398                	lw	a4,32(a5)
    80002390:	070e                	slli	a4,a4,0x3
    80002392:	0000b797          	auipc	a5,0xb
    80002396:	f8e78793          	addi	a5,a5,-114 # 8000d320 <rfs_device_list>
    8000239a:	97ba                	add	a5,a5,a4
    8000239c:	0007b903          	ld	s2,0(a5)
  for (int i = 0; i < (RFS_BLKSIZE / RFS_INODESIZE * RFS_MAX_INODE_BLKNUM);
    800023a0:	4481                	li	s1,0
  struct rfs_dinode *free_dinode = NULL;
    800023a2:	4401                	li	s0,0
  for (int i = 0; i < (RFS_BLKSIZE / RFS_INODESIZE * RFS_MAX_INODE_BLKNUM);
    800023a4:	13f00793          	li	a5,319
    800023a8:	0097cf63          	blt	a5,s1,800023c6 <rfs_create+0x4e>
    free_dinode = rfs_read_dinode(rdev, i);
    800023ac:	85a6                	mv	a1,s1
    800023ae:	854a                	mv	a0,s2
    800023b0:	eb4ff0ef          	jal	ra,80001a64 <rfs_read_dinode>
    800023b4:	842a                	mv	s0,a0
    if (free_dinode->type == R_FREE) {  // found
    800023b6:	4158                	lw	a4,4(a0)
    800023b8:	4789                	li	a5,2
    800023ba:	00f70763          	beq	a4,a5,800023c8 <rfs_create+0x50>
    free_page(free_dinode);
    800023be:	b70fe0ef          	jal	ra,8000072e <free_page>
       ++i) {
    800023c2:	2485                	addiw	s1,s1,1
    800023c4:	b7c5                	j	800023a4 <rfs_create+0x2c>
  int free_inum = 0;
    800023c6:	4481                	li	s1,0
  if (free_dinode == NULL)
    800023c8:	cc39                	beqz	s0,80002426 <rfs_create+0xae>
  free_dinode->size = 0;
    800023ca:	00042023          	sw	zero,0(s0)
  free_dinode->type = R_FILE;
    800023ce:	00042223          	sw	zero,4(s0)
  free_dinode->nlinks = 1;
    800023d2:	4785                	li	a5,1
    800023d4:	c41c                	sw	a5,8(s0)
  free_dinode->blocks = 0;
    800023d6:	00042623          	sw	zero,12(s0)
  free_dinode->addrs[0] = rfs_alloc_block(parent->sb);
    800023da:	0489b503          	ld	a0,72(s3)
    800023de:	8f9ff0ef          	jal	ra,80001cd6 <rfs_alloc_block>
    800023e2:	c808                	sw	a0,16(s0)
  rfs_write_dinode(rdev, free_dinode, free_inum);
    800023e4:	8626                	mv	a2,s1
    800023e6:	85a2                	mv	a1,s0
    800023e8:	854a                	mv	a0,s2
    800023ea:	f2cff0ef          	jal	ra,80001b16 <rfs_write_dinode>
  free_page(free_dinode);
    800023ee:	8522                	mv	a0,s0
    800023f0:	b3efe0ef          	jal	ra,8000072e <free_page>
  struct vinode *new_vinode = rfs_alloc_vinode(parent->sb);
    800023f4:	0489b503          	ld	a0,72(s3)
    800023f8:	e51ff0ef          	jal	ra,80002248 <rfs_alloc_vinode>
    800023fc:	842a                	mv	s0,a0
  new_vinode->inum = free_inum;
    800023fe:	c104                	sw	s1,0(a0)
  rfs_update_vinode(new_vinode);
    80002400:	e61ff0ef          	jal	ra,80002260 <rfs_update_vinode>
  int result = rfs_add_direntry(parent, sub_dentry->name, free_inum);
    80002404:	8626                	mv	a2,s1
    80002406:	85d2                	mv	a1,s4
    80002408:	854e                	mv	a0,s3
    8000240a:	d33ff0ef          	jal	ra,8000213c <rfs_add_direntry>
  if (result == -1) {
    8000240e:	57fd                	li	a5,-1
    80002410:	02f50163          	beq	a0,a5,80002432 <rfs_create+0xba>
}
    80002414:	8522                	mv	a0,s0
    80002416:	70a2                	ld	ra,40(sp)
    80002418:	7402                	ld	s0,32(sp)
    8000241a:	64e2                	ld	s1,24(sp)
    8000241c:	6942                	ld	s2,16(sp)
    8000241e:	69a2                	ld	s3,8(sp)
    80002420:	6a02                	ld	s4,0(sp)
    80002422:	6145                	addi	sp,sp,48
    80002424:	8082                	ret
    panic("rfs_create: no more free disk inode, we cannot create file.\n" );
    80002426:	00006517          	auipc	a0,0x6
    8000242a:	ae250513          	addi	a0,a0,-1310 # 80007f08 <rfs_i_ops+0xe78>
    8000242e:	157020ef          	jal	ra,80004d84 <do_panic>
    sprint("rfs_create: rfs_add_direntry failed");
    80002432:	00006517          	auipc	a0,0x6
    80002436:	b1650513          	addi	a0,a0,-1258 # 80007f48 <rfs_i_ops+0xeb8>
    8000243a:	0a7020ef          	jal	ra,80004ce0 <sprint>
    return NULL;
    8000243e:	4401                	li	s0,0
    80002440:	bfd1                	j	80002414 <rfs_create+0x9c>

0000000080002442 <rfs_mkdir>:

//
// make a new direntry named "sub_dentry->name" under the directory "parent",
// return the vfs inode of subdir being created.
//
struct vinode *rfs_mkdir(struct vinode *parent, struct dentry *sub_dentry) {
    80002442:	7179                	addi	sp,sp,-48
    80002444:	f406                	sd	ra,40(sp)
    80002446:	f022                	sd	s0,32(sp)
    80002448:	ec26                	sd	s1,24(sp)
    8000244a:	e84a                	sd	s2,16(sp)
    8000244c:	e44e                	sd	s3,8(sp)
    8000244e:	e052                	sd	s4,0(sp)
    80002450:	89aa                	mv	s3,a0
    80002452:	8a2e                	mv	s4,a1
  struct rfs_device *rdev = rfs_device_list[parent->sb->s_dev->dev_id];
    80002454:	653c                	ld	a5,72(a0)
    80002456:	6f9c                	ld	a5,24(a5)
    80002458:	5398                	lw	a4,32(a5)
    8000245a:	070e                	slli	a4,a4,0x3
    8000245c:	0000b797          	auipc	a5,0xb
    80002460:	ec478793          	addi	a5,a5,-316 # 8000d320 <rfs_device_list>
    80002464:	97ba                	add	a5,a5,a4
    80002466:	0007b903          	ld	s2,0(a5)

  // ** find a free disk inode to store the file that is going to be created
  struct rfs_dinode *free_dinode = NULL;
  int free_inum = 0;
  for (int i = 0; i < (RFS_BLKSIZE / RFS_INODESIZE * RFS_MAX_INODE_BLKNUM); i++) {
    8000246a:	4481                	li	s1,0
  struct rfs_dinode *free_dinode = NULL;
    8000246c:	4401                	li	s0,0
  for (int i = 0; i < (RFS_BLKSIZE / RFS_INODESIZE * RFS_MAX_INODE_BLKNUM); i++) {
    8000246e:	13f00793          	li	a5,319
    80002472:	0097cf63          	blt	a5,s1,80002490 <rfs_mkdir+0x4e>
    free_dinode = rfs_read_dinode(rdev, i);
    80002476:	85a6                	mv	a1,s1
    80002478:	854a                	mv	a0,s2
    8000247a:	deaff0ef          	jal	ra,80001a64 <rfs_read_dinode>
    8000247e:	842a                	mv	s0,a0
    if (free_dinode->type == R_FREE) {  // found
    80002480:	4158                	lw	a4,4(a0)
    80002482:	4789                	li	a5,2
    80002484:	00f70763          	beq	a4,a5,80002492 <rfs_mkdir+0x50>
      free_inum = i;
      break;
    }
    free_page(free_dinode);
    80002488:	aa6fe0ef          	jal	ra,8000072e <free_page>
  for (int i = 0; i < (RFS_BLKSIZE / RFS_INODESIZE * RFS_MAX_INODE_BLKNUM); i++) {
    8000248c:	2485                	addiw	s1,s1,1
    8000248e:	b7c5                	j	8000246e <rfs_mkdir+0x2c>
  int free_inum = 0;
    80002490:	4481                	li	s1,0
  }

  if (free_dinode == NULL)
    80002492:	cc29                	beqz	s0,800024ec <rfs_mkdir+0xaa>
    panic( "rfs_mkdir: no more free disk inode, we cannot create directory.\n" );

  // initialize the states of the file being created
  free_dinode->size = 0;
    80002494:	00042023          	sw	zero,0(s0)
  free_dinode->type = R_DIR;
    80002498:	4785                	li	a5,1
    8000249a:	c05c                	sw	a5,4(s0)
  free_dinode->nlinks = 1;
    8000249c:	c41c                	sw	a5,8(s0)
  free_dinode->blocks = 1;
    8000249e:	c45c                	sw	a5,12(s0)
  // allocate a free block for the file
  free_dinode->addrs[0] = rfs_alloc_block(parent->sb);
    800024a0:	0489b503          	ld	a0,72(s3)
    800024a4:	833ff0ef          	jal	ra,80001cd6 <rfs_alloc_block>
    800024a8:	c808                	sw	a0,16(s0)

  // **  write the disk inode of file being created to disk
  rfs_write_dinode(rdev, free_dinode, free_inum);
    800024aa:	8626                	mv	a2,s1
    800024ac:	85a2                	mv	a1,s0
    800024ae:	854a                	mv	a0,s2
    800024b0:	e66ff0ef          	jal	ra,80001b16 <rfs_write_dinode>
  free_page(free_dinode);
    800024b4:	8522                	mv	a0,s0
    800024b6:	a78fe0ef          	jal	ra,8000072e <free_page>

  // ** add a direntry to the directory
  int result = rfs_add_direntry(parent, sub_dentry->name, free_inum);
    800024ba:	8626                	mv	a2,s1
    800024bc:	85d2                	mv	a1,s4
    800024be:	854e                	mv	a0,s3
    800024c0:	c7dff0ef          	jal	ra,8000213c <rfs_add_direntry>
  if (result == -1) {
    800024c4:	57fd                	li	a5,-1
    800024c6:	02f50963          	beq	a0,a5,800024f8 <rfs_mkdir+0xb6>
    sprint("rfs_mkdir: rfs_add_direntry failed");
    return NULL;
  }

  // ** allocate a new vinode
  struct vinode *sub_vinode = rfs_alloc_vinode(parent->sb);
    800024ca:	0489b503          	ld	a0,72(s3)
    800024ce:	d7bff0ef          	jal	ra,80002248 <rfs_alloc_vinode>
    800024d2:	842a                	mv	s0,a0
  sub_vinode->inum = free_inum;
    800024d4:	c104                	sw	s1,0(a0)
  rfs_update_vinode(sub_vinode);
    800024d6:	d8bff0ef          	jal	ra,80002260 <rfs_update_vinode>

  return sub_vinode;
}
    800024da:	8522                	mv	a0,s0
    800024dc:	70a2                	ld	ra,40(sp)
    800024de:	7402                	ld	s0,32(sp)
    800024e0:	64e2                	ld	s1,24(sp)
    800024e2:	6942                	ld	s2,16(sp)
    800024e4:	69a2                	ld	s3,8(sp)
    800024e6:	6a02                	ld	s4,0(sp)
    800024e8:	6145                	addi	sp,sp,48
    800024ea:	8082                	ret
    panic( "rfs_mkdir: no more free disk inode, we cannot create directory.\n" );
    800024ec:	00006517          	auipc	a0,0x6
    800024f0:	a8450513          	addi	a0,a0,-1404 # 80007f70 <rfs_i_ops+0xee0>
    800024f4:	091020ef          	jal	ra,80004d84 <do_panic>
    sprint("rfs_mkdir: rfs_add_direntry failed");
    800024f8:	00006517          	auipc	a0,0x6
    800024fc:	ac050513          	addi	a0,a0,-1344 # 80007fb8 <rfs_i_ops+0xf28>
    80002500:	7e0020ef          	jal	ra,80004ce0 <sprint>
    return NULL;
    80002504:	4401                	li	s0,0
    80002506:	bfd1                	j	800024da <rfs_mkdir+0x98>

0000000080002508 <rfs_get_superblock>:

/**** vfs-rfs file system type interface functions ****/
struct super_block *rfs_get_superblock(struct device *dev) {
    80002508:	7179                	addi	sp,sp,-48
    8000250a:	f406                	sd	ra,40(sp)
    8000250c:	f022                	sd	s0,32(sp)
    8000250e:	ec26                	sd	s1,24(sp)
    80002510:	e84a                	sd	s2,16(sp)
    80002512:	84aa                	mv	s1,a0
  struct rfs_device *rdev = rfs_device_list[dev->dev_id];
    80002514:	5118                	lw	a4,32(a0)
    80002516:	070e                	slli	a4,a4,0x3
    80002518:	0000b797          	auipc	a5,0xb
    8000251c:	e0878793          	addi	a5,a5,-504 # 8000d320 <rfs_device_list>
    80002520:	97ba                	add	a5,a5,a4
    80002522:	0007b903          	ld	s2,0(a5)

  // read super block from ramdisk
  if (rfs_r1block(rdev, RFS_BLK_OFFSET_SUPER) != 0)
    80002526:	4581                	li	a1,0
    80002528:	854a                	mv	a0,s2
    8000252a:	b1cff0ef          	jal	ra,80001846 <rfs_r1block>
    8000252e:	ed2d                	bnez	a0,800025a8 <rfs_get_superblock+0xa0>
    panic("RFS: failed to read superblock!\n");

  struct rfs_superblock d_sb;
  memcpy(&d_sb, rdev->iobuffer, sizeof(struct rfs_superblock));
    80002530:	4641                	li	a2,16
    80002532:	01093583          	ld	a1,16(s2)
    80002536:	850a                	mv	a0,sp
    80002538:	4d5010ef          	jal	ra,8000420c <memcpy>

  // set the data for the vfs super block
  struct super_block *sb = alloc_page();
    8000253c:	a68fe0ef          	jal	ra,800007a4 <alloc_page>
    80002540:	842a                	mv	s0,a0
  sb->magic = d_sb.magic;
    80002542:	4702                	lw	a4,0(sp)
    80002544:	c118                	sw	a4,0(a0)
  sb->size = d_sb.size;
    80002546:	4792                	lw	a5,4(sp)
    80002548:	c15c                	sw	a5,4(a0)
  sb->nblocks = d_sb.nblocks;
    8000254a:	47a2                	lw	a5,8(sp)
    8000254c:	c51c                	sw	a5,8(a0)
  sb->ninodes = d_sb.ninodes;
    8000254e:	47b2                	lw	a5,12(sp)
    80002550:	c55c                	sw	a5,12(a0)
  sb->s_dev = dev;
    80002552:	ed04                	sd	s1,24(a0)

  if( sb->magic != RFS_MAGIC ) 
    80002554:	67b1                	lui	a5,0xc
    80002556:	eaf78793          	addi	a5,a5,-337 # beaf <elf_fpread-0x7fff4151>
    8000255a:	04f71d63          	bne	a4,a5,800025b4 <rfs_get_superblock+0xac>
    panic("rfs_get_superblock: wrong ramdisk device!\n");

  // build root dentry and root inode
  struct vinode *root_inode = rfs_alloc_vinode(sb);
    8000255e:	cebff0ef          	jal	ra,80002248 <rfs_alloc_vinode>
    80002562:	84aa                	mv	s1,a0
  root_inode->inum = 0;
    80002564:	00052023          	sw	zero,0(a0)
  rfs_update_vinode(root_inode);
    80002568:	cf9ff0ef          	jal	ra,80002260 <rfs_update_vinode>

  struct dentry *root_dentry = alloc_vfs_dentry("/", root_inode, NULL);
    8000256c:	4601                	li	a2,0
    8000256e:	85a6                	mv	a1,s1
    80002570:	00005517          	auipc	a0,0x5
    80002574:	f3850513          	addi	a0,a0,-200 # 800074a8 <rfs_i_ops+0x418>
    80002578:	3c9000ef          	jal	ra,80003140 <alloc_vfs_dentry>
  sb->s_root = root_dentry;
    8000257c:	e808                	sd	a0,16(s0)

  // save the bitmap in the s_fs_info field
  if (rfs_r1block(rdev, RFS_BLK_OFFSET_BITMAP) != 0)
    8000257e:	45ad                	li	a1,11
    80002580:	854a                	mv	a0,s2
    80002582:	ac4ff0ef          	jal	ra,80001846 <rfs_r1block>
    80002586:	ed0d                	bnez	a0,800025c0 <rfs_get_superblock+0xb8>
    panic("RFS: failed to read bitmap!\n");
  void *bitmap = alloc_page();
    80002588:	a1cfe0ef          	jal	ra,800007a4 <alloc_page>
    8000258c:	84aa                	mv	s1,a0
  memcpy(bitmap, rdev->iobuffer, RFS_BLKSIZE);
    8000258e:	6605                	lui	a2,0x1
    80002590:	01093583          	ld	a1,16(s2)
    80002594:	479010ef          	jal	ra,8000420c <memcpy>
  sb->s_fs_info = bitmap;
    80002598:	f004                	sd	s1,32(s0)

  return sb;
}
    8000259a:	8522                	mv	a0,s0
    8000259c:	70a2                	ld	ra,40(sp)
    8000259e:	7402                	ld	s0,32(sp)
    800025a0:	64e2                	ld	s1,24(sp)
    800025a2:	6942                	ld	s2,16(sp)
    800025a4:	6145                	addi	sp,sp,48
    800025a6:	8082                	ret
    panic("RFS: failed to read superblock!\n");
    800025a8:	00006517          	auipc	a0,0x6
    800025ac:	a3850513          	addi	a0,a0,-1480 # 80007fe0 <rfs_i_ops+0xf50>
    800025b0:	7d4020ef          	jal	ra,80004d84 <do_panic>
    panic("rfs_get_superblock: wrong ramdisk device!\n");
    800025b4:	00006517          	auipc	a0,0x6
    800025b8:	a5450513          	addi	a0,a0,-1452 # 80008008 <rfs_i_ops+0xf78>
    800025bc:	7c8020ef          	jal	ra,80004d84 <do_panic>
    panic("RFS: failed to read bitmap!\n");
    800025c0:	00006517          	auipc	a0,0x6
    800025c4:	a7850513          	addi	a0,a0,-1416 # 80008038 <rfs_i_ops+0xfa8>
    800025c8:	7bc020ef          	jal	ra,80004d84 <do_panic>

00000000800025cc <insert_to_ready_queue>:
process* ready_queue_head = NULL;

//
// insert a process, proc, into the END of ready queue.
//
void insert_to_ready_queue( process* proc ) {
    800025cc:	1141                	addi	sp,sp,-16
    800025ce:	e406                	sd	ra,8(sp)
    800025d0:	e022                	sd	s0,0(sp)
    800025d2:	842a                	mv	s0,a0
  sprint( "going to insert process %d to ready queue.\n", proc->pid );
    800025d4:	14053583          	ld	a1,320(a0)
    800025d8:	00006517          	auipc	a0,0x6
    800025dc:	a8050513          	addi	a0,a0,-1408 # 80008058 <rfs_i_ops+0xfc8>
    800025e0:	700020ef          	jal	ra,80004ce0 <sprint>
  // if the queue is empty in the beginning
  if( ready_queue_head == NULL ){
    800025e4:	0000e797          	auipc	a5,0xe
    800025e8:	c5c7b783          	ld	a5,-932(a5) # 80010240 <ready_queue_head>
    800025ec:	cb99                	beqz	a5,80002602 <insert_to_ready_queue+0x36>
  }

  // ready queue is not empty
  process *p;
  // browse the ready queue to see if proc is already in-queue
  for( p=ready_queue_head; p->queue_next!=NULL; p=p->queue_next )
    800025ee:	873e                	mv	a4,a5
    800025f0:	1587b783          	ld	a5,344(a5)
    800025f4:	c38d                	beqz	a5,80002616 <insert_to_ready_queue+0x4a>
    if( p == proc ) return;  //already in queue
    800025f6:	fe871ce3          	bne	a4,s0,800025ee <insert_to_ready_queue+0x22>
  p->queue_next = proc;
  proc->status = READY;
  proc->queue_next = NULL;

  return;
}
    800025fa:	60a2                	ld	ra,8(sp)
    800025fc:	6402                	ld	s0,0(sp)
    800025fe:	0141                	addi	sp,sp,16
    80002600:	8082                	ret
    proc->status = READY;
    80002602:	4785                	li	a5,1
    80002604:	14f42423          	sw	a5,328(s0)
    proc->queue_next = NULL;
    80002608:	14043c23          	sd	zero,344(s0)
    ready_queue_head = proc;
    8000260c:	0000e797          	auipc	a5,0xe
    80002610:	c287ba23          	sd	s0,-972(a5) # 80010240 <ready_queue_head>
    return;
    80002614:	b7dd                	j	800025fa <insert_to_ready_queue+0x2e>
  if( p==proc ) return;
    80002616:	fe8702e3          	beq	a4,s0,800025fa <insert_to_ready_queue+0x2e>
  p->queue_next = proc;
    8000261a:	14873c23          	sd	s0,344(a4)
  proc->status = READY;
    8000261e:	4785                	li	a5,1
    80002620:	14f42423          	sw	a5,328(s0)
  proc->queue_next = NULL;
    80002624:	14043c23          	sd	zero,344(s0)
  return;
    80002628:	bfc9                	j	800025fa <insert_to_ready_queue+0x2e>

000000008000262a <schedule>:
// note: schedule() does not take care of previous current process. If the current
// process is still runnable, you should place it into the ready queue (by calling
// ready_queue_insert), and then call schedule().
//
extern process procs[NPROC];
void schedule() {
    8000262a:	1141                	addi	sp,sp,-16
    8000262c:	e406                	sd	ra,8(sp)
    8000262e:	e022                	sd	s0,0(sp)
  if ( !ready_queue_head ){
    80002630:	0000e797          	auipc	a5,0xe
    80002634:	c107b783          	ld	a5,-1008(a5) # 80010240 <ready_queue_head>
    80002638:	c3c9                	beqz	a5,800026ba <schedule+0x90>
    }else{
      panic( "Not handled: we should let system wait for unfinished processes.\n" );
    }
  }

  current = ready_queue_head;
    8000263a:	0000e717          	auipc	a4,0xe
    8000263e:	bef73f23          	sd	a5,-1026(a4) # 80010238 <current>
  assert( current->status == READY );
    80002642:	1487a683          	lw	a3,328(a5)
    80002646:	4705                	li	a4,1
    80002648:	08e69c63          	bne	a3,a4,800026e0 <schedule+0xb6>
  ready_queue_head = ready_queue_head->queue_next;
    8000264c:	1587b703          	ld	a4,344(a5)
    80002650:	0000e697          	auipc	a3,0xe
    80002654:	bee6b823          	sd	a4,-1040(a3) # 80010240 <ready_queue_head>

  current->status = RUNNING;
    80002658:	4709                	li	a4,2
    8000265a:	14e7a423          	sw	a4,328(a5)
  sprint( "going to schedule process %d to run.\n", current->pid );
    8000265e:	1407b583          	ld	a1,320(a5)
    80002662:	00006517          	auipc	a0,0x6
    80002666:	b1650513          	addi	a0,a0,-1258 # 80008178 <rfs_i_ops+0x10e8>
    8000266a:	676020ef          	jal	ra,80004ce0 <sprint>
  switch_to( current );
    8000266e:	0000e517          	auipc	a0,0xe
    80002672:	bca53503          	ld	a0,-1078(a0) # 80010238 <current>
    80002676:	843fe0ef          	jal	ra,80000eb8 <switch_to>
}
    8000267a:	60a2                	ld	ra,8(sp)
    8000267c:	6402                	ld	s0,0(sp)
    8000267e:	0141                	addi	sp,sp,16
    80002680:	8082                	ret
    for( int i=0; i<NPROC; i++ )
    80002682:	2405                	addiw	s0,s0,1
    80002684:	47fd                	li	a5,31
    80002686:	0287cd63          	blt	a5,s0,800026c0 <schedule+0x96>
      if( (procs[i].status != FREE) && (procs[i].status != ZOMBIE) ){
    8000268a:	17800713          	li	a4,376
    8000268e:	02e40733          	mul	a4,s0,a4
    80002692:	00008797          	auipc	a5,0x8
    80002696:	d8e78793          	addi	a5,a5,-626 # 8000a420 <procs>
    8000269a:	97ba                	add	a5,a5,a4
    8000269c:	1487a603          	lw	a2,328(a5)
    800026a0:	d26d                	beqz	a2,80002682 <schedule+0x58>
    800026a2:	4791                	li	a5,4
    800026a4:	fcf60fe3          	beq	a2,a5,80002682 <schedule+0x58>
        sprint( "ready queue empty, but process %d is not in free/zombie state:%d\n", 
    800026a8:	85a2                	mv	a1,s0
    800026aa:	00006517          	auipc	a0,0x6
    800026ae:	9de50513          	addi	a0,a0,-1570 # 80008088 <rfs_i_ops+0xff8>
    800026b2:	62e020ef          	jal	ra,80004ce0 <sprint>
        should_shutdown = 0;
    800026b6:	4681                	li	a3,0
    800026b8:	b7e9                	j	80002682 <schedule+0x58>
    for( int i=0; i<NPROC; i++ )
    800026ba:	4401                	li	s0,0
    int should_shutdown = 1;
    800026bc:	4685                	li	a3,1
    800026be:	b7d9                	j	80002684 <schedule+0x5a>
    if( should_shutdown ){
    800026c0:	ca91                	beqz	a3,800026d4 <schedule+0xaa>
      sprint( "no more ready processes, system shutdown now.\n" );
    800026c2:	00006517          	auipc	a0,0x6
    800026c6:	a0e50513          	addi	a0,a0,-1522 # 800080d0 <rfs_i_ops+0x1040>
    800026ca:	616020ef          	jal	ra,80004ce0 <sprint>
      shutdown( 0 );
    800026ce:	4501                	li	a0,0
    800026d0:	686020ef          	jal	ra,80004d56 <shutdown>
      panic( "Not handled: we should let system wait for unfinished processes.\n" );
    800026d4:	00006517          	auipc	a0,0x6
    800026d8:	a2c50513          	addi	a0,a0,-1492 # 80008100 <rfs_i_ops+0x1070>
    800026dc:	6a8020ef          	jal	ra,80004d84 <do_panic>
  assert( current->status == READY );
    800026e0:	00006697          	auipc	a3,0x6
    800026e4:	a6868693          	addi	a3,a3,-1432 # 80008148 <rfs_i_ops+0x10b8>
    800026e8:	04300613          	li	a2,67
    800026ec:	00006597          	auipc	a1,0x6
    800026f0:	a7c58593          	addi	a1,a1,-1412 # 80008168 <rfs_i_ops+0x10d8>
    800026f4:	00005517          	auipc	a0,0x5
    800026f8:	26c50513          	addi	a0,a0,620 # 80007960 <rfs_i_ops+0x8d0>
    800026fc:	5e4020ef          	jal	ra,80004ce0 <sprint>
    80002700:	6541                	lui	a0,0x10
    80002702:	157d                	addi	a0,a0,-1
    80002704:	5fc020ef          	jal	ra,80004d00 <poweroff>

0000000080002708 <handle_syscall>:
#include "spike_interface/spike_utils.h"

//
// handling the syscalls. will call do_syscall() defined in kernel/syscall.c
//
static void handle_syscall(trapframe *tf) {
    80002708:	1141                	addi	sp,sp,-16
    8000270a:	e406                	sd	ra,8(sp)
    8000270c:	e022                	sd	s0,0(sp)
    8000270e:	842a                	mv	s0,a0
  // tf->epc points to the address that our computer will jump to after the trap handling.
  // for a syscall, we should return to the NEXT instruction after its handling.
  // in RV64G, each instruction occupies exactly 32 bits (i.e., 4 Bytes)
  tf->epc += 4;
    80002710:	10853783          	ld	a5,264(a0) # 10108 <elf_fpread-0x7ffefef8>
    80002714:	0791                	addi	a5,a5,4
    80002716:	10f53423          	sd	a5,264(a0)
  // IMPORTANT: return value should be returned to user app, or else, you will encounter
  // problems in later experiments!
  // panic( "call do_syscall to accomplish the syscall and lab1_1 here.\n" );
  // do_syscall(tf->regs.a0, tf->regs.a1, tf->regs.a2, tf->regs.a3, tf->regs.a4, tf->regs.a5, tf->regs.a6, tf->regs.a7);
  // note:a0
  tf->regs.a0 = do_syscall(tf->regs.a0, tf->regs.a1, tf->regs.a2, tf->regs.a3, tf->regs.a4, tf->regs.a5, tf->regs.a6, tf->regs.a7);
    8000271a:	08053883          	ld	a7,128(a0)
    8000271e:	07853803          	ld	a6,120(a0)
    80002722:	793c                	ld	a5,112(a0)
    80002724:	7538                	ld	a4,104(a0)
    80002726:	7134                	ld	a3,96(a0)
    80002728:	6d30                	ld	a2,88(a0)
    8000272a:	692c                	ld	a1,80(a0)
    8000272c:	6528                	ld	a0,72(a0)
    8000272e:	656000ef          	jal	ra,80002d84 <do_syscall>
    80002732:	e428                	sd	a0,72(s0)
  
}
    80002734:	60a2                	ld	ra,8(sp)
    80002736:	6402                	ld	s0,0(sp)
    80002738:	0141                	addi	sp,sp,16
    8000273a:	8082                	ret

000000008000273c <handle_mtimer_trap>:
// global variable that store the recorded "ticks". added @lab1_3
static uint64 g_ticks = 0;
//
// added @lab1_3
//
void handle_mtimer_trap() {
    8000273c:	1141                	addi	sp,sp,-16
    8000273e:	e406                	sd	ra,8(sp)
    80002740:	e022                	sd	s0,0(sp)
  sprint("Ticks %d\n", g_ticks);
    80002742:	0000e417          	auipc	s0,0xe
    80002746:	b0640413          	addi	s0,s0,-1274 # 80010248 <g_ticks>
    8000274a:	600c                	ld	a1,0(s0)
    8000274c:	00006517          	auipc	a0,0x6
    80002750:	a5450513          	addi	a0,a0,-1452 # 800081a0 <rfs_i_ops+0x1110>
    80002754:	58c020ef          	jal	ra,80004ce0 <sprint>
  // TODO (lab1_3): increase g_ticks to record this "tick", and then clear the "SIP"
  // field in sip register.
  // hint: use write_csr to disable the SIP_SSIP bit in sip.
  // panic( "lab1_3: increase g_ticks by one, and clear SIP field in sip register.\n" );
  g_ticks ++;
    80002758:	601c                	ld	a5,0(s0)
    8000275a:	0785                	addi	a5,a5,1
    8000275c:	e01c                	sd	a5,0(s0)
  write_csr(sip, 0);
    8000275e:	14405073          	csrwi	sip,0
}
    80002762:	60a2                	ld	ra,8(sp)
    80002764:	6402                	ld	s0,0(sp)
    80002766:	0141                	addi	sp,sp,16
    80002768:	8082                	ret

000000008000276a <handle_user_page_fault>:
//
// the page fault handler. added @lab2_3. parameters:
// sepc: the pc when fault happens;
// stval: the virtual address that causes pagefault when being accessed.
//
void handle_user_page_fault(uint64 mcause, uint64 sepc, uint64 stval) {
    8000276a:	1101                	addi	sp,sp,-32
    8000276c:	ec06                	sd	ra,24(sp)
    8000276e:	e822                	sd	s0,16(sp)
    80002770:	e426                	sd	s1,8(sp)
    80002772:	e04a                	sd	s2,0(sp)
    80002774:	84aa                	mv	s1,a0
    80002776:	8432                	mv	s0,a2
  sprint("handle_page_fault: %lx\n", stval);
    80002778:	85b2                	mv	a1,a2
    8000277a:	00006517          	auipc	a0,0x6
    8000277e:	a3650513          	addi	a0,a0,-1482 # 800081b0 <rfs_i_ops+0x1120>
    80002782:	55e020ef          	jal	ra,80004ce0 <sprint>
  switch (mcause) {
    80002786:	47bd                	li	a5,15
    80002788:	00f48e63          	beq	s1,a5,800027a4 <handle_user_page_fault+0x3a>
        pte_t* pte = page_walk(current->pagetable, stval, 1);
        *pte = PA2PTE(pa) | PTE_V | prot_to_type(PROT_WRITE | PROT_READ, 1);
      }
      break;
    default:
      sprint("unknown page fault.\n");
    8000278c:	00006517          	auipc	a0,0x6
    80002790:	a3c50513          	addi	a0,a0,-1476 # 800081c8 <rfs_i_ops+0x1138>
    80002794:	54c020ef          	jal	ra,80004ce0 <sprint>
      break;
  }
}
    80002798:	60e2                	ld	ra,24(sp)
    8000279a:	6442                	ld	s0,16(sp)
    8000279c:	64a2                	ld	s1,8(sp)
    8000279e:	6902                	ld	s2,0(sp)
    800027a0:	6105                	addi	sp,sp,32
    800027a2:	8082                	ret
        void* pa = alloc_page();
    800027a4:	800fe0ef          	jal	ra,800007a4 <alloc_page>
    800027a8:	84aa                	mv	s1,a0
        pte_t* pte = page_walk(current->pagetable, stval, 1);
    800027aa:	4605                	li	a2,1
    800027ac:	85a2                	mv	a1,s0
    800027ae:	0000e797          	auipc	a5,0xe
    800027b2:	a8a7b783          	ld	a5,-1398(a5) # 80010238 <current>
    800027b6:	6788                	ld	a0,8(a5)
    800027b8:	196010ef          	jal	ra,8000394e <page_walk>
    800027bc:	892a                	mv	s2,a0
        *pte = PA2PTE(pa) | PTE_V | prot_to_type(PROT_WRITE | PROT_READ, 1);
    800027be:	00c4d413          	srli	s0,s1,0xc
    800027c2:	042a                	slli	s0,s0,0xa
    800027c4:	4585                	li	a1,1
    800027c6:	450d                	li	a0,3
    800027c8:	158010ef          	jal	ra,80003920 <prot_to_type>
    800027cc:	8c49                	or	s0,s0,a0
    800027ce:	00146413          	ori	s0,s0,1
    800027d2:	00893023          	sd	s0,0(s2)
      break;
    800027d6:	b7c9                	j	80002798 <handle_user_page_fault+0x2e>

00000000800027d8 <rrsched>:
  // TODO (lab3_3): implements round-robin scheduling.
  // hint: increase the tick_count member of current process by one, if it is bigger than
  // TIME_SLICE_LEN (means it has consumed its time slice), change its status into READY,
  // place it in the rear of ready queue, and finally schedule next process to run.
  // panic( "You need to further implement the timer handling in lab3_3.\n" );
  current->tick_count++;
    800027d8:	0000e517          	auipc	a0,0xe
    800027dc:	a6053503          	ld	a0,-1440(a0) # 80010238 <current>
    800027e0:	16052783          	lw	a5,352(a0)
    800027e4:	2785                	addiw	a5,a5,1
    800027e6:	0007871b          	sext.w	a4,a5
    800027ea:	16f52023          	sw	a5,352(a0)
  if (current->tick_count >= TIME_SLICE_LEN) {
    800027ee:	4785                	li	a5,1
    800027f0:	00e7c363          	blt	a5,a4,800027f6 <rrsched+0x1e>
    800027f4:	8082                	ret
void rrsched() {
    800027f6:	1141                	addi	sp,sp,-16
    800027f8:	e406                	sd	ra,8(sp)
    current->tick_count = 0;
    800027fa:	16052023          	sw	zero,352(a0)
    insert_to_ready_queue(current);
    800027fe:	dcfff0ef          	jal	ra,800025cc <insert_to_ready_queue>
    schedule();
    80002802:	e29ff0ef          	jal	ra,8000262a <schedule>
  }
}
    80002806:	60a2                	ld	ra,8(sp)
    80002808:	0141                	addi	sp,sp,16
    8000280a:	8082                	ret

000000008000280c <smode_trap_handler>:

//
// kernel/smode_trap.S will pass control to smode_trap_handler, when a trap happens
// in S-mode.
//
void smode_trap_handler(void) {
    8000280c:	1141                	addi	sp,sp,-16
    8000280e:	e406                	sd	ra,8(sp)
  // make sure we are in User mode before entering the trap handling.
  // we will consider other previous case in lab1_3 (interrupt).
  if ((read_csr(sstatus) & SSTATUS_SPP) != 0) panic("usertrap: not from user mode");
    80002810:	100027f3          	csrr	a5,sstatus
    80002814:	1007f793          	andi	a5,a5,256
    80002818:	e3a9                	bnez	a5,8000285a <smode_trap_handler+0x4e>

  assert(current);
    8000281a:	0000e797          	auipc	a5,0xe
    8000281e:	a1e7b783          	ld	a5,-1506(a5) # 80010238 <current>
    80002822:	c3b1                	beqz	a5,80002866 <smode_trap_handler+0x5a>
  // save user process counter.
  current->trapframe->epc = read_csr(sepc);
    80002824:	141026f3          	csrr	a3,sepc
    80002828:	6b98                	ld	a4,16(a5)
    8000282a:	10d73423          	sd	a3,264(a4)

  // if the cause of trap is syscall from user application.
  // read_csr() and CAUSE_USER_ECALL are macros defined in kernel/riscv.h
  uint64 cause = read_csr(scause);
    8000282e:	14202573          	csrr	a0,scause

  // use switch-case instead of if-else, as there are many cases since lab2_3.
  switch (cause) {
    80002832:	473d                	li	a4,15
    80002834:	06e50063          	beq	a0,a4,80002894 <smode_trap_handler+0x88>
    80002838:	06a76563          	bltu	a4,a0,800028a2 <smode_trap_handler+0x96>
    8000283c:	4721                	li	a4,8
    8000283e:	04e51863          	bne	a0,a4,8000288e <smode_trap_handler+0x82>
    case CAUSE_USER_ECALL:
      handle_syscall(current->trapframe);
    80002842:	6b88                	ld	a0,16(a5)
    80002844:	ec5ff0ef          	jal	ra,80002708 <handle_syscall>
      panic( "unexpected exception happened.\n" );
      break;
  }

  // continue (come back to) the execution of current process.
  switch_to(current);
    80002848:	0000e517          	auipc	a0,0xe
    8000284c:	9f053503          	ld	a0,-1552(a0) # 80010238 <current>
    80002850:	e68fe0ef          	jal	ra,80000eb8 <switch_to>
}
    80002854:	60a2                	ld	ra,8(sp)
    80002856:	0141                	addi	sp,sp,16
    80002858:	8082                	ret
  if ((read_csr(sstatus) & SSTATUS_SPP) != 0) panic("usertrap: not from user mode");
    8000285a:	00006517          	auipc	a0,0x6
    8000285e:	98650513          	addi	a0,a0,-1658 # 800081e0 <rfs_i_ops+0x1150>
    80002862:	522020ef          	jal	ra,80004d84 <do_panic>
  assert(current);
    80002866:	00006697          	auipc	a3,0x6
    8000286a:	99a68693          	addi	a3,a3,-1638 # 80008200 <rfs_i_ops+0x1170>
    8000286e:	06800613          	li	a2,104
    80002872:	00006597          	auipc	a1,0x6
    80002876:	99658593          	addi	a1,a1,-1642 # 80008208 <rfs_i_ops+0x1178>
    8000287a:	00005517          	auipc	a0,0x5
    8000287e:	0e650513          	addi	a0,a0,230 # 80007960 <rfs_i_ops+0x8d0>
    80002882:	45e020ef          	jal	ra,80004ce0 <sprint>
    80002886:	6541                	lui	a0,0x10
    80002888:	157d                	addi	a0,a0,-1
    8000288a:	476020ef          	jal	ra,80004d00 <poweroff>
  switch (cause) {
    8000288e:	47b5                	li	a5,13
    80002890:	02f51363          	bne	a0,a5,800028b6 <smode_trap_handler+0xaa>
      handle_user_page_fault(cause, read_csr(sepc), read_csr(stval));
    80002894:	141025f3          	csrr	a1,sepc
    80002898:	14302673          	csrr	a2,stval
    8000289c:	ecfff0ef          	jal	ra,8000276a <handle_user_page_fault>
      break;
    800028a0:	b765                	j	80002848 <smode_trap_handler+0x3c>
  switch (cause) {
    800028a2:	57fd                	li	a5,-1
    800028a4:	17fe                	slli	a5,a5,0x3f
    800028a6:	0785                	addi	a5,a5,1
    800028a8:	00f51763          	bne	a0,a5,800028b6 <smode_trap_handler+0xaa>
      handle_mtimer_trap();
    800028ac:	e91ff0ef          	jal	ra,8000273c <handle_mtimer_trap>
      rrsched();
    800028b0:	f29ff0ef          	jal	ra,800027d8 <rrsched>
      break;
    800028b4:	bf51                	j	80002848 <smode_trap_handler+0x3c>
      sprint("smode_trap_handler(): unexpected scause %p\n", read_csr(scause));
    800028b6:	142025f3          	csrr	a1,scause
    800028ba:	00006517          	auipc	a0,0x6
    800028be:	95e50513          	addi	a0,a0,-1698 # 80008218 <rfs_i_ops+0x1188>
    800028c2:	41e020ef          	jal	ra,80004ce0 <sprint>
      sprint("            sepc=%p stval=%p\n", read_csr(sepc), read_csr(stval));
    800028c6:	141025f3          	csrr	a1,sepc
    800028ca:	14302673          	csrr	a2,stval
    800028ce:	00006517          	auipc	a0,0x6
    800028d2:	97a50513          	addi	a0,a0,-1670 # 80008248 <rfs_i_ops+0x11b8>
    800028d6:	40a020ef          	jal	ra,80004ce0 <sprint>
      panic( "unexpected exception happened.\n" );
    800028da:	00006517          	auipc	a0,0x6
    800028de:	98e50513          	addi	a0,a0,-1650 # 80008268 <rfs_i_ops+0x11d8>
    800028e2:	4a2020ef          	jal	ra,80004d84 <do_panic>

00000000800028e6 <sys_user_print>:
#include "spike_interface/spike_utils.h"

//
// implement the SYS_user_print syscall
//
ssize_t sys_user_print(const char* buf, size_t n) {
    800028e6:	1141                	addi	sp,sp,-16
    800028e8:	e406                	sd	ra,8(sp)
  // buf is now an address in user space of the given app's user stack,
  // so we have to transfer it into phisical address (kernel is running in direct mapping).
  assert( current );
    800028ea:	0000e797          	auipc	a5,0xe
    800028ee:	94e7b783          	ld	a5,-1714(a5) # 80010238 <current>
    800028f2:	cb99                	beqz	a5,80002908 <sys_user_print+0x22>
    800028f4:	85aa                	mv	a1,a0
  char* pa = (char*)user_va_to_pa((pagetable_t)(current->pagetable), (void*)buf);
    800028f6:	6788                	ld	a0,8(a5)
    800028f8:	25e010ef          	jal	ra,80003b56 <user_va_to_pa>
  sprint(pa);
    800028fc:	3e4020ef          	jal	ra,80004ce0 <sprint>
  return 0;
}
    80002900:	4501                	li	a0,0
    80002902:	60a2                	ld	ra,8(sp)
    80002904:	0141                	addi	sp,sp,16
    80002906:	8082                	ret
  assert( current );
    80002908:	00006697          	auipc	a3,0x6
    8000290c:	8f868693          	addi	a3,a3,-1800 # 80008200 <rfs_i_ops+0x1170>
    80002910:	4669                	li	a2,26
    80002912:	00006597          	auipc	a1,0x6
    80002916:	97e58593          	addi	a1,a1,-1666 # 80008290 <rfs_i_ops+0x1200>
    8000291a:	00005517          	auipc	a0,0x5
    8000291e:	04650513          	addi	a0,a0,70 # 80007960 <rfs_i_ops+0x8d0>
    80002922:	3be020ef          	jal	ra,80004ce0 <sprint>
    80002926:	6541                	lui	a0,0x10
    80002928:	157d                	addi	a0,a0,-1
    8000292a:	3d6020ef          	jal	ra,80004d00 <poweroff>

000000008000292e <sys_user_exit>:

//
// implement the SYS_user_exit syscall
//
ssize_t sys_user_exit(uint64 code) {
    8000292e:	1141                	addi	sp,sp,-16
    80002930:	e406                	sd	ra,8(sp)
    80002932:	85aa                	mv	a1,a0
  sprint("User exit with code:%d.\n", code);
    80002934:	00006517          	auipc	a0,0x6
    80002938:	97450513          	addi	a0,a0,-1676 # 800082a8 <rfs_i_ops+0x1218>
    8000293c:	3a4020ef          	jal	ra,80004ce0 <sprint>
  // reclaim the current process, and reschedule. added @lab3_1
  if (current->parent != NULL && current->parent->status == BLOCKED) {
    80002940:	0000e797          	auipc	a5,0xe
    80002944:	8f87b783          	ld	a5,-1800(a5) # 80010238 <current>
    80002948:	1507b503          	ld	a0,336(a5)
    8000294c:	c511                	beqz	a0,80002958 <sys_user_exit+0x2a>
    8000294e:	14852683          	lw	a3,328(a0)
    80002952:	470d                	li	a4,3
    80002954:	00e68e63          	beq	a3,a4,80002970 <sys_user_exit+0x42>
    }
    else if (current->parent->wait_pid == current->pid) {
      insert_to_ready_queue(current->parent);
    }
  }
  free_process( current );
    80002958:	0000e517          	auipc	a0,0xe
    8000295c:	8e053503          	ld	a0,-1824(a0) # 80010238 <current>
    80002960:	fb6fe0ef          	jal	ra,80001116 <free_process>
  schedule();
    80002964:	cc7ff0ef          	jal	ra,8000262a <schedule>
  return 0;
}
    80002968:	4501                	li	a0,0
    8000296a:	60a2                	ld	ra,8(sp)
    8000296c:	0141                	addi	sp,sp,16
    8000296e:	8082                	ret
    if (current->parent->wait_pid == -1) {
    80002970:	17053703          	ld	a4,368(a0)
    80002974:	56fd                	li	a3,-1
    80002976:	00d70963          	beq	a4,a3,80002988 <sys_user_exit+0x5a>
    else if (current->parent->wait_pid == current->pid) {
    8000297a:	1407b783          	ld	a5,320(a5)
    8000297e:	fcf71de3          	bne	a4,a5,80002958 <sys_user_exit+0x2a>
      insert_to_ready_queue(current->parent);
    80002982:	c4bff0ef          	jal	ra,800025cc <insert_to_ready_queue>
    80002986:	bfc9                	j	80002958 <sys_user_exit+0x2a>
      insert_to_ready_queue(current->parent);
    80002988:	c45ff0ef          	jal	ra,800025cc <insert_to_ready_queue>
    8000298c:	b7f1                	j	80002958 <sys_user_exit+0x2a>

000000008000298e <sys_user_allocate_page>:

//
// maybe, the simplest implementation of malloc in the world ... added @lab2_2
//
uint64 sys_user_allocate_page() {
    8000298e:	1101                	addi	sp,sp,-32
    80002990:	ec06                	sd	ra,24(sp)
    80002992:	e822                	sd	s0,16(sp)
    80002994:	e426                	sd	s1,8(sp)
    80002996:	e04a                	sd	s2,0(sp)
  void* pa = alloc_page();
    80002998:	e0dfd0ef          	jal	ra,800007a4 <alloc_page>
    8000299c:	842a                	mv	s0,a0
  uint64 va;
  // if there are previously reclaimed pages, use them first (this does not change the
  // size of the heap)
  if (current->user_heap.free_pages_count > 0) {
    8000299e:	0000e717          	auipc	a4,0xe
    800029a2:	89a73703          	ld	a4,-1894(a4) # 80010238 <current>
    800029a6:	13872783          	lw	a5,312(a4)
    800029aa:	c3a9                	beqz	a5,800029ec <sys_user_allocate_page+0x5e>
    va =  current->user_heap.free_pages_address[--current->user_heap.free_pages_count];
    800029ac:	37fd                	addiw	a5,a5,-1
    800029ae:	12f72c23          	sw	a5,312(a4)
    800029b2:	1782                	slli	a5,a5,0x20
    800029b4:	9381                	srli	a5,a5,0x20
    800029b6:	0799                	addi	a5,a5,6
    800029b8:	078e                	slli	a5,a5,0x3
    800029ba:	97ba                	add	a5,a5,a4
    800029bc:	6784                	ld	s1,8(a5)
    assert(va < current->user_heap.heap_top);
    800029be:	771c                	ld	a5,40(a4)
    800029c0:	02f4ee63          	bltu	s1,a5,800029fc <sys_user_allocate_page+0x6e>
    800029c4:	00006697          	auipc	a3,0x6
    800029c8:	90468693          	addi	a3,a3,-1788 # 800082c8 <rfs_i_ops+0x1238>
    800029cc:	03d00613          	li	a2,61
    800029d0:	00006597          	auipc	a1,0x6
    800029d4:	8c058593          	addi	a1,a1,-1856 # 80008290 <rfs_i_ops+0x1200>
    800029d8:	00005517          	auipc	a0,0x5
    800029dc:	f8850513          	addi	a0,a0,-120 # 80007960 <rfs_i_ops+0x8d0>
    800029e0:	300020ef          	jal	ra,80004ce0 <sprint>
    800029e4:	6541                	lui	a0,0x10
    800029e6:	157d                	addi	a0,a0,-1
    800029e8:	318020ef          	jal	ra,80004d00 <poweroff>
  } else {
    // otherwise, allocate a new page (this increases the size of the heap by one page)
    va = current->user_heap.heap_top;
    800029ec:	7704                	ld	s1,40(a4)
    current->user_heap.heap_top += PGSIZE;
    800029ee:	6785                	lui	a5,0x1
    800029f0:	97a6                	add	a5,a5,s1
    800029f2:	f71c                	sd	a5,40(a4)

    current->mapped_info[HEAP_SEGMENT].npages++;
    800029f4:	6f14                	ld	a3,24(a4)
    800029f6:	5e9c                	lw	a5,56(a3)
    800029f8:	2785                	addiw	a5,a5,1
    800029fa:	de9c                	sw	a5,56(a3)
  }
  user_vm_map((pagetable_t)current->pagetable, va, PGSIZE, (uint64)pa,
    800029fc:	00873903          	ld	s2,8(a4)
         prot_to_type(PROT_WRITE | PROT_READ, 1));
    80002a00:	4585                	li	a1,1
    80002a02:	450d                	li	a0,3
    80002a04:	71d000ef          	jal	ra,80003920 <prot_to_type>
  user_vm_map((pagetable_t)current->pagetable, va, PGSIZE, (uint64)pa,
    80002a08:	0005071b          	sext.w	a4,a0
    80002a0c:	86a2                	mv	a3,s0
    80002a0e:	6605                	lui	a2,0x1
    80002a10:	85a6                	mv	a1,s1
    80002a12:	854a                	mv	a0,s2
    80002a14:	166010ef          	jal	ra,80003b7a <user_vm_map>
  return va;
}
    80002a18:	8526                	mv	a0,s1
    80002a1a:	60e2                	ld	ra,24(sp)
    80002a1c:	6442                	ld	s0,16(sp)
    80002a1e:	64a2                	ld	s1,8(sp)
    80002a20:	6902                	ld	s2,0(sp)
    80002a22:	6105                	addi	sp,sp,32
    80002a24:	8082                	ret

0000000080002a26 <sys_user_free_page>:

//
// reclaim a page, indicated by "va". added @lab2_2
//
uint64 sys_user_free_page(uint64 va) {
    80002a26:	1101                	addi	sp,sp,-32
    80002a28:	ec06                	sd	ra,24(sp)
    80002a2a:	e822                	sd	s0,16(sp)
    80002a2c:	e426                	sd	s1,8(sp)
    80002a2e:	842a                	mv	s0,a0
  user_vm_unmap((pagetable_t)current->pagetable, va, PGSIZE, 1);
    80002a30:	0000e497          	auipc	s1,0xe
    80002a34:	80848493          	addi	s1,s1,-2040 # 80010238 <current>
    80002a38:	609c                	ld	a5,0(s1)
    80002a3a:	4685                	li	a3,1
    80002a3c:	6605                	lui	a2,0x1
    80002a3e:	85aa                	mv	a1,a0
    80002a40:	6788                	ld	a0,8(a5)
    80002a42:	154010ef          	jal	ra,80003b96 <user_vm_unmap>
  // add the reclaimed page to the free page list
  current->user_heap.free_pages_address[current->user_heap.free_pages_count++] = va;
    80002a46:	6098                	ld	a4,0(s1)
    80002a48:	13872783          	lw	a5,312(a4)
    80002a4c:	0017869b          	addiw	a3,a5,1
    80002a50:	12d72c23          	sw	a3,312(a4)
    80002a54:	1782                	slli	a5,a5,0x20
    80002a56:	9381                	srli	a5,a5,0x20
    80002a58:	0799                	addi	a5,a5,6
    80002a5a:	078e                	slli	a5,a5,0x3
    80002a5c:	973e                	add	a4,a4,a5
    80002a5e:	e700                	sd	s0,8(a4)
  return 0;
}
    80002a60:	4501                	li	a0,0
    80002a62:	60e2                	ld	ra,24(sp)
    80002a64:	6442                	ld	s0,16(sp)
    80002a66:	64a2                	ld	s1,8(sp)
    80002a68:	6105                	addi	sp,sp,32
    80002a6a:	8082                	ret

0000000080002a6c <sys_user_fork>:

//
// kerenl entry point of naive_fork
//
ssize_t sys_user_fork() {
    80002a6c:	1141                	addi	sp,sp,-16
    80002a6e:	e406                	sd	ra,8(sp)
  sprint("User call fork.\n");
    80002a70:	00006517          	auipc	a0,0x6
    80002a74:	88050513          	addi	a0,a0,-1920 # 800082f0 <rfs_i_ops+0x1260>
    80002a78:	268020ef          	jal	ra,80004ce0 <sprint>
  return do_fork( current );
    80002a7c:	0000d517          	auipc	a0,0xd
    80002a80:	7bc53503          	ld	a0,1980(a0) # 80010238 <current>
    80002a84:	e9cfe0ef          	jal	ra,80001120 <do_fork>
}
    80002a88:	60a2                	ld	ra,8(sp)
    80002a8a:	0141                	addi	sp,sp,16
    80002a8c:	8082                	ret

0000000080002a8e <sys_user_yield>:

//
// kerenl entry point of yield. added @lab3_2
//
ssize_t sys_user_yield() {
    80002a8e:	1141                	addi	sp,sp,-16
    80002a90:	e406                	sd	ra,8(sp)
  // TODO (lab3_2): implment the syscall of yield.
  // hint: the functionality of yield is to give up the processor. therefore,
  // we should set the status of currently running process to READY, insert it in
  // the rear of ready queue, and finally, schedule a READY process to run.
  // panic( "You need to implement the yield syscall in lab3_2.\n" );
  insert_to_ready_queue(current);
    80002a92:	0000d517          	auipc	a0,0xd
    80002a96:	7a653503          	ld	a0,1958(a0) # 80010238 <current>
    80002a9a:	b33ff0ef          	jal	ra,800025cc <insert_to_ready_queue>
  schedule();
    80002a9e:	b8dff0ef          	jal	ra,8000262a <schedule>
  return 0;
}
    80002aa2:	4501                	li	a0,0
    80002aa4:	60a2                	ld	ra,8(sp)
    80002aa6:	0141                	addi	sp,sp,16
    80002aa8:	8082                	ret

0000000080002aaa <sys_user_open>:

//
// open file
//
ssize_t sys_user_open(char *pathva, int flags) {
    80002aaa:	1141                	addi	sp,sp,-16
    80002aac:	e406                	sd	ra,8(sp)
    80002aae:	e022                	sd	s0,0(sp)
    80002ab0:	842e                	mv	s0,a1
  char* pathpa = (char*)user_va_to_pa((pagetable_t)(current->pagetable), pathva);
    80002ab2:	85aa                	mv	a1,a0
    80002ab4:	0000d797          	auipc	a5,0xd
    80002ab8:	7847b783          	ld	a5,1924(a5) # 80010238 <current>
    80002abc:	6788                	ld	a0,8(a5)
    80002abe:	098010ef          	jal	ra,80003b56 <user_va_to_pa>
  return do_open(pathpa, flags);
    80002ac2:	85a2                	mv	a1,s0
    80002ac4:	eaffd0ef          	jal	ra,80000972 <do_open>
}
    80002ac8:	60a2                	ld	ra,8(sp)
    80002aca:	6402                	ld	s0,0(sp)
    80002acc:	0141                	addi	sp,sp,16
    80002ace:	8082                	ret

0000000080002ad0 <sys_user_read>:

//
// read file
//
ssize_t sys_user_read(int fd, char *bufva, uint64 count) {
    80002ad0:	7139                	addi	sp,sp,-64
    80002ad2:	fc06                	sd	ra,56(sp)
    80002ad4:	f822                	sd	s0,48(sp)
    80002ad6:	f426                	sd	s1,40(sp)
    80002ad8:	f04a                	sd	s2,32(sp)
    80002ada:	ec4e                	sd	s3,24(sp)
    80002adc:	e852                	sd	s4,16(sp)
    80002ade:	e456                	sd	s5,8(sp)
    80002ae0:	8aaa                	mv	s5,a0
    80002ae2:	8a2e                	mv	s4,a1
    80002ae4:	89b2                	mv	s3,a2
  int i = 0;
    80002ae6:	4901                	li	s2,0
  while (i < count) { // count can be greater than page size
    80002ae8:	a819                	j	80002afe <sys_user_read+0x2e>
    uint64 addr = (uint64)bufva + i;
    uint64 pa = lookup_pa((pagetable_t)current->pagetable, addr);
    uint64 off = addr - ROUNDDOWN(addr, PGSIZE);
    uint64 len = count - i < PGSIZE - off ? count - i : PGSIZE - off;
    uint64 r = do_read(fd, (char *)pa + off, len);
    80002aea:	8622                	mv	a2,s0
    80002aec:	009505b3          	add	a1,a0,s1
    80002af0:	8556                	mv	a0,s5
    80002af2:	8e8fe0ef          	jal	ra,80000bda <do_read>
    i += r; if (r < len) return i;
    80002af6:	0125093b          	addw	s2,a0,s2
    80002afa:	02856963          	bltu	a0,s0,80002b2c <sys_user_read+0x5c>
  while (i < count) { // count can be greater than page size
    80002afe:	03397963          	bgeu	s2,s3,80002b30 <sys_user_read+0x60>
    uint64 addr = (uint64)bufva + i;
    80002b02:	012a04b3          	add	s1,s4,s2
    uint64 pa = lookup_pa((pagetable_t)current->pagetable, addr);
    80002b06:	85a6                	mv	a1,s1
    80002b08:	0000d797          	auipc	a5,0xd
    80002b0c:	7307b783          	ld	a5,1840(a5) # 80010238 <current>
    80002b10:	6788                	ld	a0,8(a5)
    80002b12:	74d000ef          	jal	ra,80003a5e <lookup_pa>
    uint64 off = addr - ROUNDDOWN(addr, PGSIZE);
    80002b16:	6405                	lui	s0,0x1
    80002b18:	fff40793          	addi	a5,s0,-1 # fff <elf_fpread-0x7ffff001>
    80002b1c:	8cfd                	and	s1,s1,a5
    uint64 len = count - i < PGSIZE - off ? count - i : PGSIZE - off;
    80002b1e:	412987b3          	sub	a5,s3,s2
    80002b22:	8c05                	sub	s0,s0,s1
    80002b24:	fc87f3e3          	bgeu	a5,s0,80002aea <sys_user_read+0x1a>
    80002b28:	843e                	mv	s0,a5
    80002b2a:	b7c1                	j	80002aea <sys_user_read+0x1a>
    i += r; if (r < len) return i;
    80002b2c:	854a                	mv	a0,s2
    80002b2e:	a011                	j	80002b32 <sys_user_read+0x62>
  }
  return count;
    80002b30:	854e                	mv	a0,s3
}
    80002b32:	70e2                	ld	ra,56(sp)
    80002b34:	7442                	ld	s0,48(sp)
    80002b36:	74a2                	ld	s1,40(sp)
    80002b38:	7902                	ld	s2,32(sp)
    80002b3a:	69e2                	ld	s3,24(sp)
    80002b3c:	6a42                	ld	s4,16(sp)
    80002b3e:	6aa2                	ld	s5,8(sp)
    80002b40:	6121                	addi	sp,sp,64
    80002b42:	8082                	ret

0000000080002b44 <sys_user_write>:

//
// write file
//
ssize_t sys_user_write(int fd, char *bufva, uint64 count) {
    80002b44:	7139                	addi	sp,sp,-64
    80002b46:	fc06                	sd	ra,56(sp)
    80002b48:	f822                	sd	s0,48(sp)
    80002b4a:	f426                	sd	s1,40(sp)
    80002b4c:	f04a                	sd	s2,32(sp)
    80002b4e:	ec4e                	sd	s3,24(sp)
    80002b50:	e852                	sd	s4,16(sp)
    80002b52:	e456                	sd	s5,8(sp)
    80002b54:	8aaa                	mv	s5,a0
    80002b56:	8a2e                	mv	s4,a1
    80002b58:	89b2                	mv	s3,a2
  int i = 0;
    80002b5a:	4901                	li	s2,0
  while (i < count) { // count can be greater than page size
    80002b5c:	a819                	j	80002b72 <sys_user_write+0x2e>
    uint64 addr = (uint64)bufva + i;
    uint64 pa = lookup_pa((pagetable_t)current->pagetable, addr);
    uint64 off = addr - ROUNDDOWN(addr, PGSIZE);
    uint64 len = count - i < PGSIZE - off ? count - i : PGSIZE - off;
    uint64 r = do_write(fd, (char *)pa + off, len);
    80002b5e:	8622                	mv	a2,s0
    80002b60:	009505b3          	add	a1,a0,s1
    80002b64:	8556                	mv	a0,s5
    80002b66:	8d2fe0ef          	jal	ra,80000c38 <do_write>
    i += r; if (r < len) return i;
    80002b6a:	0125093b          	addw	s2,a0,s2
    80002b6e:	02856963          	bltu	a0,s0,80002ba0 <sys_user_write+0x5c>
  while (i < count) { // count can be greater than page size
    80002b72:	03397963          	bgeu	s2,s3,80002ba4 <sys_user_write+0x60>
    uint64 addr = (uint64)bufva + i;
    80002b76:	012a04b3          	add	s1,s4,s2
    uint64 pa = lookup_pa((pagetable_t)current->pagetable, addr);
    80002b7a:	85a6                	mv	a1,s1
    80002b7c:	0000d797          	auipc	a5,0xd
    80002b80:	6bc7b783          	ld	a5,1724(a5) # 80010238 <current>
    80002b84:	6788                	ld	a0,8(a5)
    80002b86:	6d9000ef          	jal	ra,80003a5e <lookup_pa>
    uint64 off = addr - ROUNDDOWN(addr, PGSIZE);
    80002b8a:	6405                	lui	s0,0x1
    80002b8c:	fff40793          	addi	a5,s0,-1 # fff <elf_fpread-0x7ffff001>
    80002b90:	8cfd                	and	s1,s1,a5
    uint64 len = count - i < PGSIZE - off ? count - i : PGSIZE - off;
    80002b92:	412987b3          	sub	a5,s3,s2
    80002b96:	8c05                	sub	s0,s0,s1
    80002b98:	fc87f3e3          	bgeu	a5,s0,80002b5e <sys_user_write+0x1a>
    80002b9c:	843e                	mv	s0,a5
    80002b9e:	b7c1                	j	80002b5e <sys_user_write+0x1a>
    i += r; if (r < len) return i;
    80002ba0:	854a                	mv	a0,s2
    80002ba2:	a011                	j	80002ba6 <sys_user_write+0x62>
  }
  return count;
    80002ba4:	854e                	mv	a0,s3
}
    80002ba6:	70e2                	ld	ra,56(sp)
    80002ba8:	7442                	ld	s0,48(sp)
    80002baa:	74a2                	ld	s1,40(sp)
    80002bac:	7902                	ld	s2,32(sp)
    80002bae:	69e2                	ld	s3,24(sp)
    80002bb0:	6a42                	ld	s4,16(sp)
    80002bb2:	6aa2                	ld	s5,8(sp)
    80002bb4:	6121                	addi	sp,sp,64
    80002bb6:	8082                	ret

0000000080002bb8 <sys_user_lseek>:

//
// lseek file
//
ssize_t sys_user_lseek(int fd, int offset, int whence) {
    80002bb8:	1141                	addi	sp,sp,-16
    80002bba:	e406                	sd	ra,8(sp)
  return do_lseek(fd, offset, whence);
    80002bbc:	8b0fe0ef          	jal	ra,80000c6c <do_lseek>
}
    80002bc0:	60a2                	ld	ra,8(sp)
    80002bc2:	0141                	addi	sp,sp,16
    80002bc4:	8082                	ret

0000000080002bc6 <sys_user_stat>:

//
// read vinode
//
ssize_t sys_user_stat(int fd, struct istat *istat) {
    80002bc6:	1141                	addi	sp,sp,-16
    80002bc8:	e406                	sd	ra,8(sp)
    80002bca:	e022                	sd	s0,0(sp)
    80002bcc:	842a                	mv	s0,a0
  struct istat * pistat = (struct istat *)user_va_to_pa((pagetable_t)(current->pagetable), istat);
    80002bce:	0000d797          	auipc	a5,0xd
    80002bd2:	66a7b783          	ld	a5,1642(a5) # 80010238 <current>
    80002bd6:	6788                	ld	a0,8(a5)
    80002bd8:	77f000ef          	jal	ra,80003b56 <user_va_to_pa>
    80002bdc:	85aa                	mv	a1,a0
  return do_stat(fd, pistat);
    80002bde:	8522                	mv	a0,s0
    80002be0:	8b0fe0ef          	jal	ra,80000c90 <do_stat>
}
    80002be4:	60a2                	ld	ra,8(sp)
    80002be6:	6402                	ld	s0,0(sp)
    80002be8:	0141                	addi	sp,sp,16
    80002bea:	8082                	ret

0000000080002bec <sys_user_disk_stat>:

//
// read disk inode
//
ssize_t sys_user_disk_stat(int fd, struct istat *istat) {
    80002bec:	1141                	addi	sp,sp,-16
    80002bee:	e406                	sd	ra,8(sp)
    80002bf0:	e022                	sd	s0,0(sp)
    80002bf2:	842a                	mv	s0,a0
  struct istat * pistat = (struct istat *)user_va_to_pa((pagetable_t)(current->pagetable), istat);
    80002bf4:	0000d797          	auipc	a5,0xd
    80002bf8:	6447b783          	ld	a5,1604(a5) # 80010238 <current>
    80002bfc:	6788                	ld	a0,8(a5)
    80002bfe:	759000ef          	jal	ra,80003b56 <user_va_to_pa>
    80002c02:	85aa                	mv	a1,a0
  return do_disk_stat(fd, pistat);
    80002c04:	8522                	mv	a0,s0
    80002c06:	8a4fe0ef          	jal	ra,80000caa <do_disk_stat>
}
    80002c0a:	60a2                	ld	ra,8(sp)
    80002c0c:	6402                	ld	s0,0(sp)
    80002c0e:	0141                	addi	sp,sp,16
    80002c10:	8082                	ret

0000000080002c12 <sys_user_close>:

//
// close file
//
ssize_t sys_user_close(int fd) {
    80002c12:	1141                	addi	sp,sp,-16
    80002c14:	e406                	sd	ra,8(sp)
  return do_close(fd);
    80002c16:	8aefe0ef          	jal	ra,80000cc4 <do_close>
}
    80002c1a:	60a2                	ld	ra,8(sp)
    80002c1c:	0141                	addi	sp,sp,16
    80002c1e:	8082                	ret

0000000080002c20 <sys_user_opendir>:

//
// lib call to opendir
//
ssize_t sys_user_opendir(char * pathva){
    80002c20:	1141                	addi	sp,sp,-16
    80002c22:	e406                	sd	ra,8(sp)
    80002c24:	85aa                	mv	a1,a0
  char * pathpa = (char*)user_va_to_pa((pagetable_t)(current->pagetable), pathva);
    80002c26:	0000d797          	auipc	a5,0xd
    80002c2a:	6127b783          	ld	a5,1554(a5) # 80010238 <current>
    80002c2e:	6788                	ld	a0,8(a5)
    80002c30:	727000ef          	jal	ra,80003b56 <user_va_to_pa>
  return do_opendir(pathpa);
    80002c34:	8a2fe0ef          	jal	ra,80000cd6 <do_opendir>
}
    80002c38:	60a2                	ld	ra,8(sp)
    80002c3a:	0141                	addi	sp,sp,16
    80002c3c:	8082                	ret

0000000080002c3e <sys_user_readdir>:

//
// lib call to readdir
//
ssize_t sys_user_readdir(int fd, struct dir *vdir){
    80002c3e:	1141                	addi	sp,sp,-16
    80002c40:	e406                	sd	ra,8(sp)
    80002c42:	e022                	sd	s0,0(sp)
    80002c44:	842a                	mv	s0,a0
  struct dir * pdir = (struct dir *)user_va_to_pa((pagetable_t)(current->pagetable), vdir);
    80002c46:	0000d797          	auipc	a5,0xd
    80002c4a:	5f27b783          	ld	a5,1522(a5) # 80010238 <current>
    80002c4e:	6788                	ld	a0,8(a5)
    80002c50:	707000ef          	jal	ra,80003b56 <user_va_to_pa>
    80002c54:	85aa                	mv	a1,a0
  return do_readdir(fd, pdir);
    80002c56:	8522                	mv	a0,s0
    80002c58:	8fcfe0ef          	jal	ra,80000d54 <do_readdir>
}
    80002c5c:	60a2                	ld	ra,8(sp)
    80002c5e:	6402                	ld	s0,0(sp)
    80002c60:	0141                	addi	sp,sp,16
    80002c62:	8082                	ret

0000000080002c64 <sys_user_mkdir>:

//
// lib call to mkdir
//
ssize_t sys_user_mkdir(char * pathva){
    80002c64:	1141                	addi	sp,sp,-16
    80002c66:	e406                	sd	ra,8(sp)
    80002c68:	85aa                	mv	a1,a0
  char * pathpa = (char*)user_va_to_pa((pagetable_t)(current->pagetable), pathva);
    80002c6a:	0000d797          	auipc	a5,0xd
    80002c6e:	5ce7b783          	ld	a5,1486(a5) # 80010238 <current>
    80002c72:	6788                	ld	a0,8(a5)
    80002c74:	6e3000ef          	jal	ra,80003b56 <user_va_to_pa>
  return do_mkdir(pathpa);
    80002c78:	8f6fe0ef          	jal	ra,80000d6e <do_mkdir>
}
    80002c7c:	60a2                	ld	ra,8(sp)
    80002c7e:	0141                	addi	sp,sp,16
    80002c80:	8082                	ret

0000000080002c82 <sys_user_closedir>:

//
// lib call to closedir
//
ssize_t sys_user_closedir(int fd){
    80002c82:	1141                	addi	sp,sp,-16
    80002c84:	e406                	sd	ra,8(sp)
  return do_closedir(fd);
    80002c86:	8f6fe0ef          	jal	ra,80000d7c <do_closedir>
}
    80002c8a:	60a2                	ld	ra,8(sp)
    80002c8c:	0141                	addi	sp,sp,16
    80002c8e:	8082                	ret

0000000080002c90 <sys_user_link>:

//
// lib call to link
//
ssize_t sys_user_link(char * vfn1, char * vfn2){
    80002c90:	1101                	addi	sp,sp,-32
    80002c92:	ec06                	sd	ra,24(sp)
    80002c94:	e822                	sd	s0,16(sp)
    80002c96:	e426                	sd	s1,8(sp)
    80002c98:	e04a                	sd	s2,0(sp)
    80002c9a:	84ae                	mv	s1,a1
  char * pfn1 = (char*)user_va_to_pa((pagetable_t)(current->pagetable), (void*)vfn1);
    80002c9c:	0000d917          	auipc	s2,0xd
    80002ca0:	59c90913          	addi	s2,s2,1436 # 80010238 <current>
    80002ca4:	00093783          	ld	a5,0(s2)
    80002ca8:	85aa                	mv	a1,a0
    80002caa:	6788                	ld	a0,8(a5)
    80002cac:	6ab000ef          	jal	ra,80003b56 <user_va_to_pa>
    80002cb0:	842a                	mv	s0,a0
  char * pfn2 = (char*)user_va_to_pa((pagetable_t)(current->pagetable), (void*)vfn2);
    80002cb2:	00093783          	ld	a5,0(s2)
    80002cb6:	85a6                	mv	a1,s1
    80002cb8:	6788                	ld	a0,8(a5)
    80002cba:	69d000ef          	jal	ra,80003b56 <user_va_to_pa>
    80002cbe:	85aa                	mv	a1,a0
  return do_link(pfn1, pfn2);
    80002cc0:	8522                	mv	a0,s0
    80002cc2:	8ccfe0ef          	jal	ra,80000d8e <do_link>
}
    80002cc6:	60e2                	ld	ra,24(sp)
    80002cc8:	6442                	ld	s0,16(sp)
    80002cca:	64a2                	ld	s1,8(sp)
    80002ccc:	6902                	ld	s2,0(sp)
    80002cce:	6105                	addi	sp,sp,32
    80002cd0:	8082                	ret

0000000080002cd2 <sys_user_unlink>:

//
// lib call to unlink
//
ssize_t sys_user_unlink(char * vfn){
    80002cd2:	1141                	addi	sp,sp,-16
    80002cd4:	e406                	sd	ra,8(sp)
    80002cd6:	85aa                	mv	a1,a0
  char * pfn = (char*)user_va_to_pa((pagetable_t)(current->pagetable), (void*)vfn);
    80002cd8:	0000d797          	auipc	a5,0xd
    80002cdc:	5607b783          	ld	a5,1376(a5) # 80010238 <current>
    80002ce0:	6788                	ld	a0,8(a5)
    80002ce2:	675000ef          	jal	ra,80003b56 <user_va_to_pa>
  return do_unlink(pfn);
    80002ce6:	8b6fe0ef          	jal	ra,80000d9c <do_unlink>
}
    80002cea:	60a2                	ld	ra,8(sp)
    80002cec:	0141                	addi	sp,sp,16
    80002cee:	8082                	ret

0000000080002cf0 <sys_user_exec>:

int sys_user_exec(char *pathva) {
    80002cf0:	1141                	addi	sp,sp,-16
    80002cf2:	e406                	sd	ra,8(sp)
    80002cf4:	85aa                	mv	a1,a0
  char *pathpa = (char*)user_va_to_pa((pagetable_t)(current->pagetable), pathva);
    80002cf6:	0000d797          	auipc	a5,0xd
    80002cfa:	5427b783          	ld	a5,1346(a5) # 80010238 <current>
    80002cfe:	6788                	ld	a0,8(a5)
    80002d00:	657000ef          	jal	ra,80003b56 <user_va_to_pa>
  return do_exec(pathpa);
    80002d04:	8a6fe0ef          	jal	ra,80000daa <do_exec>
}
    80002d08:	60a2                	ld	ra,8(sp)
    80002d0a:	0141                	addi	sp,sp,16
    80002d0c:	8082                	ret

0000000080002d0e <sys_user_wait>:

extern process procs[NPROC]; // 
extern process* ready_queue_head; // 
int sys_user_wait(int pid) {
    80002d0e:	1141                	addi	sp,sp,-16
    80002d10:	e406                	sd	ra,8(sp)
    80002d12:	e022                	sd	s0,0(sp)
  if (pid == -1) {
    80002d14:	57fd                	li	a5,-1
    80002d16:	04f50263          	beq	a0,a5,80002d5a <sys_user_wait+0x4c>
    80002d1a:	842a                	mv	s0,a0
    current->wait_pid = -1;
    current->status = BLOCKED;
    schedule();
    return current->wait_pid;
  }
  else if (pid > 0) {
    80002d1c:	06a05063          	blez	a0,80002d7c <sys_user_wait+0x6e>
    if (current != procs[pid].parent) {
    80002d20:	17800713          	li	a4,376
    80002d24:	02e50733          	mul	a4,a0,a4
    80002d28:	00007797          	auipc	a5,0x7
    80002d2c:	6f878793          	addi	a5,a5,1784 # 8000a420 <procs>
    80002d30:	97ba                	add	a5,a5,a4
    80002d32:	1507b703          	ld	a4,336(a5)
    80002d36:	0000d797          	auipc	a5,0xd
    80002d3a:	5027b783          	ld	a5,1282(a5) # 80010238 <current>
    80002d3e:	04f71163          	bne	a4,a5,80002d80 <sys_user_wait+0x72>
      return -1;
    }
    current->status = BLOCKED;
    80002d42:	470d                	li	a4,3
    80002d44:	14e7a423          	sw	a4,328(a5)
    current->wait_pid = pid;
    80002d48:	16a7b823          	sd	a0,368(a5)
    schedule();
    80002d4c:	8dfff0ef          	jal	ra,8000262a <schedule>
    return pid;
    80002d50:	8522                	mv	a0,s0
  }
  else 
    return -1;
}
    80002d52:	60a2                	ld	ra,8(sp)
    80002d54:	6402                	ld	s0,0(sp)
    80002d56:	0141                	addi	sp,sp,16
    80002d58:	8082                	ret
    current->wait_pid = -1;
    80002d5a:	0000d417          	auipc	s0,0xd
    80002d5e:	4de40413          	addi	s0,s0,1246 # 80010238 <current>
    80002d62:	601c                	ld	a5,0(s0)
    80002d64:	577d                	li	a4,-1
    80002d66:	16e7b823          	sd	a4,368(a5)
    current->status = BLOCKED;
    80002d6a:	470d                	li	a4,3
    80002d6c:	14e7a423          	sw	a4,328(a5)
    schedule();
    80002d70:	8bbff0ef          	jal	ra,8000262a <schedule>
    return current->wait_pid;
    80002d74:	601c                	ld	a5,0(s0)
    80002d76:	1707a503          	lw	a0,368(a5)
    80002d7a:	bfe1                	j	80002d52 <sys_user_wait+0x44>
    return -1;
    80002d7c:	557d                	li	a0,-1
    80002d7e:	bfd1                	j	80002d52 <sys_user_wait+0x44>
      return -1;
    80002d80:	557d                	li	a0,-1
    80002d82:	bfc1                	j	80002d52 <sys_user_wait+0x44>

0000000080002d84 <do_syscall>:

//
// [a0]: the syscall number; [a1] ... [a7]: arguments to the syscalls.
// returns the code of success, (e.g., 0 means success, fail for otherwise)
//
long do_syscall(long a0, long a1, long a2, long a3, long a4, long a5, long a6, long a7) {
    80002d84:	1141                	addi	sp,sp,-16
    80002d86:	e406                	sd	ra,8(sp)
    80002d88:	872a                	mv	a4,a0
    80002d8a:	852e                	mv	a0,a1
    80002d8c:	85b2                	mv	a1,a2
  switch (a0) {
    80002d8e:	fc070793          	addi	a5,a4,-64
    80002d92:	467d                	li	a2,31
    80002d94:	0af66b63          	bltu	a2,a5,80002e4a <do_syscall+0xc6>
    80002d98:	078a                	slli	a5,a5,0x2
    80002d9a:	00004617          	auipc	a2,0x4
    80002d9e:	36e60613          	addi	a2,a2,878 # 80007108 <rfs_i_ops+0x78>
    80002da2:	97b2                	add	a5,a5,a2
    80002da4:	439c                	lw	a5,0(a5)
    80002da6:	97b2                	add	a5,a5,a2
    80002da8:	8782                	jr	a5
    case SYS_user_print:
      return sys_user_print((const char*)a1, a2);
    80002daa:	b3dff0ef          	jal	ra,800028e6 <sys_user_print>
    case SYS_user_wait:
      return sys_user_wait(a1);
    default:
      panic("Unknown syscall %ld \n", a0);
  }
}
    80002dae:	60a2                	ld	ra,8(sp)
    80002db0:	0141                	addi	sp,sp,16
    80002db2:	8082                	ret
      return sys_user_exit(a1);
    80002db4:	b7bff0ef          	jal	ra,8000292e <sys_user_exit>
    80002db8:	bfdd                	j	80002dae <do_syscall+0x2a>
      return sys_user_allocate_page();
    80002dba:	bd5ff0ef          	jal	ra,8000298e <sys_user_allocate_page>
    80002dbe:	bfc5                	j	80002dae <do_syscall+0x2a>
      return sys_user_free_page(a1);
    80002dc0:	c67ff0ef          	jal	ra,80002a26 <sys_user_free_page>
    80002dc4:	b7ed                	j	80002dae <do_syscall+0x2a>
      return sys_user_fork();
    80002dc6:	ca7ff0ef          	jal	ra,80002a6c <sys_user_fork>
    80002dca:	b7d5                	j	80002dae <do_syscall+0x2a>
      return sys_user_yield();
    80002dcc:	cc3ff0ef          	jal	ra,80002a8e <sys_user_yield>
    80002dd0:	bff9                	j	80002dae <do_syscall+0x2a>
      return sys_user_open((char *)a1, a2);
    80002dd2:	2581                	sext.w	a1,a1
    80002dd4:	cd7ff0ef          	jal	ra,80002aaa <sys_user_open>
    80002dd8:	bfd9                	j	80002dae <do_syscall+0x2a>
      return sys_user_read(a1, (char *)a2, a3);
    80002dda:	8636                	mv	a2,a3
    80002ddc:	2501                	sext.w	a0,a0
    80002dde:	cf3ff0ef          	jal	ra,80002ad0 <sys_user_read>
    80002de2:	b7f1                	j	80002dae <do_syscall+0x2a>
      return sys_user_write(a1, (char *)a2, a3);
    80002de4:	8636                	mv	a2,a3
    80002de6:	2501                	sext.w	a0,a0
    80002de8:	d5dff0ef          	jal	ra,80002b44 <sys_user_write>
    80002dec:	b7c9                	j	80002dae <do_syscall+0x2a>
      return sys_user_lseek(a1, a2, a3);
    80002dee:	0006861b          	sext.w	a2,a3
    80002df2:	2581                	sext.w	a1,a1
    80002df4:	2501                	sext.w	a0,a0
    80002df6:	dc3ff0ef          	jal	ra,80002bb8 <sys_user_lseek>
    80002dfa:	bf55                	j	80002dae <do_syscall+0x2a>
      return sys_user_stat(a1, (struct istat *)a2);
    80002dfc:	2501                	sext.w	a0,a0
    80002dfe:	dc9ff0ef          	jal	ra,80002bc6 <sys_user_stat>
    80002e02:	b775                	j	80002dae <do_syscall+0x2a>
      return sys_user_disk_stat(a1, (struct istat *)a2);
    80002e04:	2501                	sext.w	a0,a0
    80002e06:	de7ff0ef          	jal	ra,80002bec <sys_user_disk_stat>
    80002e0a:	b755                	j	80002dae <do_syscall+0x2a>
      return sys_user_close(a1);
    80002e0c:	2501                	sext.w	a0,a0
    80002e0e:	e05ff0ef          	jal	ra,80002c12 <sys_user_close>
    80002e12:	bf71                	j	80002dae <do_syscall+0x2a>
      return sys_user_opendir((char *)a1);
    80002e14:	e0dff0ef          	jal	ra,80002c20 <sys_user_opendir>
    80002e18:	bf59                	j	80002dae <do_syscall+0x2a>
      return sys_user_readdir(a1, (struct dir *)a2);
    80002e1a:	2501                	sext.w	a0,a0
    80002e1c:	e23ff0ef          	jal	ra,80002c3e <sys_user_readdir>
    80002e20:	b779                	j	80002dae <do_syscall+0x2a>
      return sys_user_mkdir((char *)a1);
    80002e22:	e43ff0ef          	jal	ra,80002c64 <sys_user_mkdir>
    80002e26:	b761                	j	80002dae <do_syscall+0x2a>
      return sys_user_closedir(a1);
    80002e28:	2501                	sext.w	a0,a0
    80002e2a:	e59ff0ef          	jal	ra,80002c82 <sys_user_closedir>
    80002e2e:	b741                	j	80002dae <do_syscall+0x2a>
      return sys_user_link((char *)a1, (char *)a2);
    80002e30:	e61ff0ef          	jal	ra,80002c90 <sys_user_link>
    80002e34:	bfad                	j	80002dae <do_syscall+0x2a>
      return sys_user_unlink((char *)a1);
    80002e36:	e9dff0ef          	jal	ra,80002cd2 <sys_user_unlink>
    80002e3a:	bf95                	j	80002dae <do_syscall+0x2a>
      return sys_user_exec((char *)a1);
    80002e3c:	eb5ff0ef          	jal	ra,80002cf0 <sys_user_exec>
    80002e40:	b7bd                	j	80002dae <do_syscall+0x2a>
      return sys_user_wait(a1);
    80002e42:	2501                	sext.w	a0,a0
    80002e44:	ecbff0ef          	jal	ra,80002d0e <sys_user_wait>
    80002e48:	b79d                	j	80002dae <do_syscall+0x2a>
      panic("Unknown syscall %ld \n", a0);
    80002e4a:	85ba                	mv	a1,a4
    80002e4c:	00005517          	auipc	a0,0x5
    80002e50:	4bc50513          	addi	a0,a0,1212 # 80008308 <rfs_i_ops+0x1278>
    80002e54:	731010ef          	jal	ra,80004d84 <do_panic>

0000000080002e58 <dentry_hash_func>:
  return 0;
}

size_t dentry_hash_func(void *key) {
  struct dentry_key *dentry_key = key;
  char *name = dentry_key->name;
    80002e58:	6518                	ld	a4,8(a0)

  size_t hash = 5381;
    80002e5a:	6785                	lui	a5,0x1
    80002e5c:	50578793          	addi	a5,a5,1285 # 1505 <elf_fpread-0x7fffeafb>
  int c;

  while ((c = *name++)) hash = ((hash << 5) + hash) + c;  // hash * 33 + c
    80002e60:	a031                	j	80002e6c <dentry_hash_func+0x14>
    80002e62:	00579613          	slli	a2,a5,0x5
    80002e66:	97b2                	add	a5,a5,a2
    80002e68:	97ba                	add	a5,a5,a4
    80002e6a:	8736                	mv	a4,a3
    80002e6c:	00170693          	addi	a3,a4,1
    80002e70:	00074703          	lbu	a4,0(a4)
    80002e74:	f77d                	bnez	a4,80002e62 <dentry_hash_func+0xa>

  hash = ((hash << 5) + hash) + (size_t)dentry_key->parent;
    80002e76:	00579713          	slli	a4,a5,0x5
    80002e7a:	97ba                	add	a5,a5,a4
    80002e7c:	6108                	ld	a0,0(a0)
    80002e7e:	953e                	add	a0,a0,a5
  return hash % HASH_TABLE_SIZE;
}
    80002e80:	07f57513          	andi	a0,a0,127
    80002e84:	8082                	ret

0000000080002e86 <vinode_hash_equal>:

// vinode generic hash table method implementation
int vinode_hash_equal(void *key1, void *key2) {
  struct vinode_key *vinode_key1 = key1;
  struct vinode_key *vinode_key2 = key2;
  if (vinode_key1->inum == vinode_key2->inum && vinode_key1->sb == vinode_key2->sb) {
    80002e86:	4118                	lw	a4,0(a0)
    80002e88:	419c                	lw	a5,0(a1)
    80002e8a:	00f70463          	beq	a4,a5,80002e92 <vinode_hash_equal+0xc>
    return 1;
  }
  return 0;
    80002e8e:	4501                	li	a0,0
    80002e90:	8082                	ret
  if (vinode_key1->inum == vinode_key2->inum && vinode_key1->sb == vinode_key2->sb) {
    80002e92:	6518                	ld	a4,8(a0)
    80002e94:	659c                	ld	a5,8(a1)
    80002e96:	00f70463          	beq	a4,a5,80002e9e <vinode_hash_equal+0x18>
  return 0;
    80002e9a:	4501                	li	a0,0
    80002e9c:	8082                	ret
    return 1;
    80002e9e:	4505                	li	a0,1
}
    80002ea0:	8082                	ret

0000000080002ea2 <vinode_hash_func>:

size_t vinode_hash_func(void *key) {
  struct vinode_key *vinode_key = key;
  return vinode_key->inum % HASH_TABLE_SIZE;
    80002ea2:	411c                	lw	a5,0(a0)
    80002ea4:	41f7d51b          	sraiw	a0,a5,0x1f
    80002ea8:	0195551b          	srliw	a0,a0,0x19
    80002eac:	9fa9                	addw	a5,a5,a0
    80002eae:	07f7f793          	andi	a5,a5,127
}
    80002eb2:	40a7853b          	subw	a0,a5,a0
    80002eb6:	8082                	ret

0000000080002eb8 <dentry_hash_equal>:
int dentry_hash_equal(void *key1, void *key2) {
    80002eb8:	1101                	addi	sp,sp,-32
    80002eba:	ec06                	sd	ra,24(sp)
    80002ebc:	e822                	sd	s0,16(sp)
    80002ebe:	e426                	sd	s1,8(sp)
    80002ec0:	84aa                	mv	s1,a0
    80002ec2:	842e                	mv	s0,a1
  if (strcmp(dentry_key1->name, dentry_key2->name) == 0 &&
    80002ec4:	658c                	ld	a1,8(a1)
    80002ec6:	6508                	ld	a0,8(a0)
    80002ec8:	3d2010ef          	jal	ra,8000429a <strcmp>
    80002ecc:	e519                	bnez	a0,80002eda <dentry_hash_equal+0x22>
      dentry_key1->parent == dentry_key2->parent) {
    80002ece:	6098                	ld	a4,0(s1)
    80002ed0:	601c                	ld	a5,0(s0)
  if (strcmp(dentry_key1->name, dentry_key2->name) == 0 &&
    80002ed2:	00f71563          	bne	a4,a5,80002edc <dentry_hash_equal+0x24>
    return 1;
    80002ed6:	4505                	li	a0,1
    80002ed8:	a011                	j	80002edc <dentry_hash_equal+0x24>
  return 0;
    80002eda:	4501                	li	a0,0
}
    80002edc:	60e2                	ld	ra,24(sp)
    80002ede:	6442                	ld	s0,16(sp)
    80002ee0:	64a2                	ld	s1,8(sp)
    80002ee2:	6105                	addi	sp,sp,32
    80002ee4:	8082                	ret

0000000080002ee6 <vfs_init>:
int vfs_init() {
    80002ee6:	1141                	addi	sp,sp,-16
    80002ee8:	e406                	sd	ra,8(sp)
  ret = hash_table_init(&dentry_hash_table, dentry_hash_equal, dentry_hash_func,
    80002eea:	4781                	li	a5,0
    80002eec:	4701                	li	a4,0
    80002eee:	4681                	li	a3,0
    80002ef0:	00000617          	auipc	a2,0x0
    80002ef4:	f6860613          	addi	a2,a2,-152 # 80002e58 <dentry_hash_func>
    80002ef8:	00000597          	auipc	a1,0x0
    80002efc:	fc058593          	addi	a1,a1,-64 # 80002eb8 <dentry_hash_equal>
    80002f00:	0000b517          	auipc	a0,0xb
    80002f04:	18850513          	addi	a0,a0,392 # 8000e088 <dentry_hash_table>
    80002f08:	286010ef          	jal	ra,8000418e <hash_table_init>
  if (ret != 0) return ret;
    80002f0c:	c501                	beqz	a0,80002f14 <vfs_init+0x2e>
}
    80002f0e:	60a2                	ld	ra,8(sp)
    80002f10:	0141                	addi	sp,sp,16
    80002f12:	8082                	ret
  ret = hash_table_init(&vinode_hash_table, vinode_hash_equal, vinode_hash_func,
    80002f14:	4781                	li	a5,0
    80002f16:	4701                	li	a4,0
    80002f18:	4681                	li	a3,0
    80002f1a:	00000617          	auipc	a2,0x0
    80002f1e:	f8860613          	addi	a2,a2,-120 # 80002ea2 <vinode_hash_func>
    80002f22:	00000597          	auipc	a1,0x0
    80002f26:	f6458593          	addi	a1,a1,-156 # 80002e86 <vinode_hash_equal>
    80002f2a:	0000a517          	auipc	a0,0xa
    80002f2e:	53650513          	addi	a0,a0,1334 # 8000d460 <vinode_hash_table>
    80002f32:	25c010ef          	jal	ra,8000418e <hash_table_init>
  if (ret != 0) return ret;
    80002f36:	bfe1                	j	80002f0e <vfs_init+0x28>

0000000080002f38 <vfs_read>:
ssize_t vfs_read(struct file *file, char *buf, size_t count) {
    80002f38:	1141                	addi	sp,sp,-16
    80002f3a:	e406                	sd	ra,8(sp)
  if (!file->readable) {
    80002f3c:	415c                	lw	a5,4(a0)
    80002f3e:	cf89                	beqz	a5,80002f58 <vfs_read+0x20>
    80002f40:	86aa                	mv	a3,a0
  if (file->f_dentry->dentry_inode->type != FILE_I) {
    80002f42:	691c                	ld	a5,16(a0)
    80002f44:	7788                	ld	a0,40(a5)
    80002f46:	455c                	lw	a5,12(a0)
    80002f48:	e385                	bnez	a5,80002f68 <vfs_read+0x30>
  return viop_read(file->f_dentry->dentry_inode, buf, count, &(file->offset));
    80002f4a:	693c                	ld	a5,80(a0)
    80002f4c:	639c                	ld	a5,0(a5)
    80002f4e:	06b1                	addi	a3,a3,12
    80002f50:	9782                	jalr	a5
}
    80002f52:	60a2                	ld	ra,8(sp)
    80002f54:	0141                	addi	sp,sp,16
    80002f56:	8082                	ret
    sprint("vfs_read: file is not readable!\n");
    80002f58:	00005517          	auipc	a0,0x5
    80002f5c:	3c850513          	addi	a0,a0,968 # 80008320 <rfs_i_ops+0x1290>
    80002f60:	581010ef          	jal	ra,80004ce0 <sprint>
    return -1;
    80002f64:	557d                	li	a0,-1
    80002f66:	b7f5                	j	80002f52 <vfs_read+0x1a>
    sprint("vfs_read: cannot read a directory!\n");
    80002f68:	00005517          	auipc	a0,0x5
    80002f6c:	3e050513          	addi	a0,a0,992 # 80008348 <rfs_i_ops+0x12b8>
    80002f70:	571010ef          	jal	ra,80004ce0 <sprint>
    return -1;
    80002f74:	557d                	li	a0,-1
    80002f76:	bff1                	j	80002f52 <vfs_read+0x1a>

0000000080002f78 <vfs_write>:
ssize_t vfs_write(struct file *file, const char *buf, size_t count) {
    80002f78:	1141                	addi	sp,sp,-16
    80002f7a:	e406                	sd	ra,8(sp)
  if (!file->writable) {
    80002f7c:	451c                	lw	a5,8(a0)
    80002f7e:	cf89                	beqz	a5,80002f98 <vfs_write+0x20>
    80002f80:	86aa                	mv	a3,a0
  if (file->f_dentry->dentry_inode->type != FILE_I) {
    80002f82:	691c                	ld	a5,16(a0)
    80002f84:	7788                	ld	a0,40(a5)
    80002f86:	455c                	lw	a5,12(a0)
    80002f88:	e385                	bnez	a5,80002fa8 <vfs_write+0x30>
  return viop_write(file->f_dentry->dentry_inode, buf, count, &(file->offset));
    80002f8a:	693c                	ld	a5,80(a0)
    80002f8c:	679c                	ld	a5,8(a5)
    80002f8e:	06b1                	addi	a3,a3,12
    80002f90:	9782                	jalr	a5
}
    80002f92:	60a2                	ld	ra,8(sp)
    80002f94:	0141                	addi	sp,sp,16
    80002f96:	8082                	ret
    sprint("vfs_write: file is not writable!\n");
    80002f98:	00005517          	auipc	a0,0x5
    80002f9c:	3d850513          	addi	a0,a0,984 # 80008370 <rfs_i_ops+0x12e0>
    80002fa0:	541010ef          	jal	ra,80004ce0 <sprint>
    return -1;
    80002fa4:	557d                	li	a0,-1
    80002fa6:	b7f5                	j	80002f92 <vfs_write+0x1a>
    sprint("vfs_read: cannot write a directory!\n");
    80002fa8:	00005517          	auipc	a0,0x5
    80002fac:	3f050513          	addi	a0,a0,1008 # 80008398 <rfs_i_ops+0x1308>
    80002fb0:	531010ef          	jal	ra,80004ce0 <sprint>
    return -1;
    80002fb4:	557d                	li	a0,-1
    80002fb6:	bff1                	j	80002f92 <vfs_write+0x1a>

0000000080002fb8 <vfs_lseek>:
ssize_t vfs_lseek(struct file *file, ssize_t offset, int whence) {
    80002fb8:	1141                	addi	sp,sp,-16
    80002fba:	e406                	sd	ra,8(sp)
    80002fbc:	e022                	sd	s0,0(sp)
    80002fbe:	842a                	mv	s0,a0
  if (file->f_dentry->dentry_inode->type != FILE_I) {
    80002fc0:	691c                	ld	a5,16(a0)
    80002fc2:	7788                	ld	a0,40(a5)
    80002fc4:	455c                	lw	a5,12(a0)
    80002fc6:	ef81                	bnez	a5,80002fde <vfs_lseek+0x26>
  if (viop_lseek(file->f_dentry->dentry_inode, offset, whence, &(file->offset)) != 0) {
    80002fc8:	693c                	ld	a5,80(a0)
    80002fca:	6f9c                	ld	a5,24(a5)
    80002fcc:	00c40693          	addi	a3,s0,12
    80002fd0:	9782                	jalr	a5
    80002fd2:	ed11                	bnez	a0,80002fee <vfs_lseek+0x36>
  return file->offset;
    80002fd4:	4448                	lw	a0,12(s0)
}
    80002fd6:	60a2                	ld	ra,8(sp)
    80002fd8:	6402                	ld	s0,0(sp)
    80002fda:	0141                	addi	sp,sp,16
    80002fdc:	8082                	ret
    sprint("vfs_read: cannot seek a directory!\n");
    80002fde:	00005517          	auipc	a0,0x5
    80002fe2:	3e250513          	addi	a0,a0,994 # 800083c0 <rfs_i_ops+0x1330>
    80002fe6:	4fb010ef          	jal	ra,80004ce0 <sprint>
    return -1;
    80002fea:	557d                	li	a0,-1
    80002fec:	b7ed                	j	80002fd6 <vfs_lseek+0x1e>
    sprint("vfs_lseek: lseek failed!\n");
    80002fee:	00005517          	auipc	a0,0x5
    80002ff2:	3fa50513          	addi	a0,a0,1018 # 800083e8 <rfs_i_ops+0x1358>
    80002ff6:	4eb010ef          	jal	ra,80004ce0 <sprint>
    return -1;
    80002ffa:	557d                	li	a0,-1
    80002ffc:	bfe9                	j	80002fd6 <vfs_lseek+0x1e>

0000000080002ffe <vfs_stat>:
  istat->st_inum = file->f_dentry->dentry_inode->inum;
    80002ffe:	691c                	ld	a5,16(a0)
    80003000:	779c                	ld	a5,40(a5)
    80003002:	439c                	lw	a5,0(a5)
    80003004:	c19c                	sw	a5,0(a1)
  istat->st_size = file->f_dentry->dentry_inode->size;
    80003006:	691c                	ld	a5,16(a0)
    80003008:	779c                	ld	a5,40(a5)
    8000300a:	479c                	lw	a5,8(a5)
    8000300c:	c1dc                	sw	a5,4(a1)
  istat->st_type = file->f_dentry->dentry_inode->type;
    8000300e:	691c                	ld	a5,16(a0)
    80003010:	779c                	ld	a5,40(a5)
    80003012:	47dc                	lw	a5,12(a5)
    80003014:	c59c                	sw	a5,8(a1)
  istat->st_nlinks = file->f_dentry->dentry_inode->nlinks;
    80003016:	691c                	ld	a5,16(a0)
    80003018:	779c                	ld	a5,40(a5)
    8000301a:	4b9c                	lw	a5,16(a5)
    8000301c:	c5dc                	sw	a5,12(a1)
  istat->st_blocks = file->f_dentry->dentry_inode->blocks;
    8000301e:	691c                	ld	a5,16(a0)
    80003020:	779c                	ld	a5,40(a5)
    80003022:	4bdc                	lw	a5,20(a5)
    80003024:	c99c                	sw	a5,16(a1)
}
    80003026:	4501                	li	a0,0
    80003028:	8082                	ret

000000008000302a <vfs_disk_stat>:
int vfs_disk_stat(struct file *file, struct istat *istat) {
    8000302a:	1141                	addi	sp,sp,-16
    8000302c:	e406                	sd	ra,8(sp)
  return viop_disk_stat(file->f_dentry->dentry_inode, istat);
    8000302e:	691c                	ld	a5,16(a0)
    80003030:	7788                	ld	a0,40(a5)
    80003032:	693c                	ld	a5,80(a0)
    80003034:	739c                	ld	a5,32(a5)
    80003036:	9782                	jalr	a5
}
    80003038:	60a2                	ld	ra,8(sp)
    8000303a:	0141                	addi	sp,sp,16
    8000303c:	8082                	ret

000000008000303e <vfs_readdir>:
int vfs_readdir(struct file *file, struct dir *dir) {
    8000303e:	1141                	addi	sp,sp,-16
    80003040:	e406                	sd	ra,8(sp)
    80003042:	862a                	mv	a2,a0
  if (file->f_dentry->dentry_inode->type != DIR_I) {
    80003044:	691c                	ld	a5,16(a0)
    80003046:	7788                	ld	a0,40(a5)
    80003048:	4558                	lw	a4,12(a0)
    8000304a:	4785                	li	a5,1
    8000304c:	00f71963          	bne	a4,a5,8000305e <vfs_readdir+0x20>
  return viop_readdir(file->f_dentry->dentry_inode, dir, &(file->offset));
    80003050:	693c                	ld	a5,80(a0)
    80003052:	63bc                	ld	a5,64(a5)
    80003054:	0631                	addi	a2,a2,12
    80003056:	9782                	jalr	a5
}
    80003058:	60a2                	ld	ra,8(sp)
    8000305a:	0141                	addi	sp,sp,16
    8000305c:	8082                	ret
    sprint("vfs_readdir: cannot read a file!\n");
    8000305e:	00005517          	auipc	a0,0x5
    80003062:	3aa50513          	addi	a0,a0,938 # 80008408 <rfs_i_ops+0x1378>
    80003066:	47b010ef          	jal	ra,80004ce0 <sprint>
    return -1;
    8000306a:	557d                	li	a0,-1
    8000306c:	b7f5                	j	80003058 <vfs_readdir+0x1a>

000000008000306e <vfs_closedir>:
int vfs_closedir(struct file *file) {
    8000306e:	1141                	addi	sp,sp,-16
    80003070:	e406                	sd	ra,8(sp)
  if (file->f_dentry->dentry_inode->type != DIR_I) {
    80003072:	691c                	ld	a5,16(a0)
    80003074:	7798                	ld	a4,40(a5)
    80003076:	4754                	lw	a3,12(a4)
    80003078:	4705                	li	a4,1
    8000307a:	02e69163          	bne	a3,a4,8000309c <vfs_closedir+0x2e>
  file->f_dentry->d_ref--;
    8000307e:	5398                	lw	a4,32(a5)
    80003080:	377d                	addiw	a4,a4,-1
    80003082:	d398                	sw	a4,32(a5)
  file->status = FD_NONE;
    80003084:	00052023          	sw	zero,0(a0)
  if (file->f_dentry->dentry_inode->i_ops->viop_hook_closedir) {
    80003088:	690c                	ld	a1,16(a0)
    8000308a:	7588                	ld	a0,40(a1)
    8000308c:	693c                	ld	a5,80(a0)
    8000308e:	7bbc                	ld	a5,112(a5)
    80003090:	c795                	beqz	a5,800030bc <vfs_closedir+0x4e>
    if (file->f_dentry->dentry_inode->i_ops->
    80003092:	9782                	jalr	a5
    80003094:	ed01                	bnez	a0,800030ac <vfs_closedir+0x3e>
}
    80003096:	60a2                	ld	ra,8(sp)
    80003098:	0141                	addi	sp,sp,16
    8000309a:	8082                	ret
    sprint("vfs_closedir: cannot close a file!\n");
    8000309c:	00005517          	auipc	a0,0x5
    800030a0:	39450513          	addi	a0,a0,916 # 80008430 <rfs_i_ops+0x13a0>
    800030a4:	43d010ef          	jal	ra,80004ce0 <sprint>
    return -1;
    800030a8:	557d                	li	a0,-1
    800030aa:	b7f5                	j	80003096 <vfs_closedir+0x28>
      sprint("vfs_closedir: hook closedir failed!\n");
    800030ac:	00005517          	auipc	a0,0x5
    800030b0:	3ac50513          	addi	a0,a0,940 # 80008458 <rfs_i_ops+0x13c8>
    800030b4:	42d010ef          	jal	ra,80004ce0 <sprint>
  return 0;
    800030b8:	4501                	li	a0,0
    800030ba:	bff1                	j	80003096 <vfs_closedir+0x28>
    800030bc:	4501                	li	a0,0
    800030be:	bfe1                	j	80003096 <vfs_closedir+0x28>

00000000800030c0 <get_base_name>:
void get_base_name(const char *path, char *base_name) {
    800030c0:	7139                	addi	sp,sp,-64
    800030c2:	fc06                	sd	ra,56(sp)
    800030c4:	f822                	sd	s0,48(sp)
    800030c6:	f426                	sd	s1,40(sp)
    800030c8:	84ae                	mv	s1,a1
  strcpy(path_copy, path);
    800030ca:	85aa                	mv	a1,a0
    800030cc:	850a                	mv	a0,sp
    800030ce:	1e4010ef          	jal	ra,800042b2 <strcpy>
  char *token = strtok(path_copy, "/");
    800030d2:	00004597          	auipc	a1,0x4
    800030d6:	3d658593          	addi	a1,a1,982 # 800074a8 <rfs_i_ops+0x418>
    800030da:	850a                	mv	a0,sp
    800030dc:	1fe010ef          	jal	ra,800042da <strtok>
    800030e0:	842a                	mv	s0,a0
  char *last_token = NULL;
    800030e2:	4581                	li	a1,0
  while (token != NULL) {
    800030e4:	a811                	j	800030f8 <get_base_name+0x38>
    token = strtok(NULL, "/");
    800030e6:	00004597          	auipc	a1,0x4
    800030ea:	3c258593          	addi	a1,a1,962 # 800074a8 <rfs_i_ops+0x418>
    800030ee:	4501                	li	a0,0
    800030f0:	1ea010ef          	jal	ra,800042da <strtok>
    last_token = token;
    800030f4:	85a2                	mv	a1,s0
    token = strtok(NULL, "/");
    800030f6:	842a                	mv	s0,a0
  while (token != NULL) {
    800030f8:	f47d                	bnez	s0,800030e6 <get_base_name+0x26>
  strcpy(base_name, last_token);
    800030fa:	8526                	mv	a0,s1
    800030fc:	1b6010ef          	jal	ra,800042b2 <strcpy>
}
    80003100:	70e2                	ld	ra,56(sp)
    80003102:	7442                	ld	s0,48(sp)
    80003104:	74a2                	ld	s1,40(sp)
    80003106:	6121                	addi	sp,sp,64
    80003108:	8082                	ret

000000008000310a <alloc_vfs_file>:
                        int offset) {
    8000310a:	1101                	addi	sp,sp,-32
    8000310c:	ec06                	sd	ra,24(sp)
    8000310e:	e822                	sd	s0,16(sp)
    80003110:	e426                	sd	s1,8(sp)
    80003112:	e04a                	sd	s2,0(sp)
    80003114:	842a                	mv	s0,a0
    80003116:	892e                	mv	s2,a1
    80003118:	84b2                	mv	s1,a2
  struct file *file = alloc_page();
    8000311a:	e8afd0ef          	jal	ra,800007a4 <alloc_page>
  file->f_dentry = file_dentry;
    8000311e:	e900                	sd	s0,16(a0)
  file_dentry->d_ref += 1;
    80003120:	5018                	lw	a4,32(s0)
    80003122:	2705                	addiw	a4,a4,1
    80003124:	d018                	sw	a4,32(s0)
  file->readable = readable;
    80003126:	01252223          	sw	s2,4(a0)
  file->writable = writable;
    8000312a:	c504                	sw	s1,8(a0)
  file->offset = 0;
    8000312c:	00052623          	sw	zero,12(a0)
  file->status = FD_OPENED;
    80003130:	4705                	li	a4,1
    80003132:	c118                	sw	a4,0(a0)
}
    80003134:	60e2                	ld	ra,24(sp)
    80003136:	6442                	ld	s0,16(sp)
    80003138:	64a2                	ld	s1,8(sp)
    8000313a:	6902                	ld	s2,0(sp)
    8000313c:	6105                	addi	sp,sp,32
    8000313e:	8082                	ret

0000000080003140 <alloc_vfs_dentry>:
                            struct dentry *parent) {
    80003140:	7179                	addi	sp,sp,-48
    80003142:	f406                	sd	ra,40(sp)
    80003144:	f022                	sd	s0,32(sp)
    80003146:	ec26                	sd	s1,24(sp)
    80003148:	e84a                	sd	s2,16(sp)
    8000314a:	e44e                	sd	s3,8(sp)
    8000314c:	89aa                	mv	s3,a0
    8000314e:	84ae                	mv	s1,a1
    80003150:	8932                	mv	s2,a2
  struct dentry *dentry = (struct dentry *)alloc_page();
    80003152:	e52fd0ef          	jal	ra,800007a4 <alloc_page>
    80003156:	842a                	mv	s0,a0
  strcpy(dentry->name, name);
    80003158:	85ce                	mv	a1,s3
    8000315a:	158010ef          	jal	ra,800042b2 <strcpy>
  dentry->dentry_inode = inode;
    8000315e:	f404                	sd	s1,40(s0)
  if (inode) inode->ref++;
    80003160:	c481                	beqz	s1,80003168 <alloc_vfs_dentry+0x28>
    80003162:	40dc                	lw	a5,4(s1)
    80003164:	2785                	addiw	a5,a5,1
    80003166:	c0dc                	sw	a5,4(s1)
  dentry->parent = parent;
    80003168:	03243823          	sd	s2,48(s0)
  dentry->d_ref = 0;
    8000316c:	02042023          	sw	zero,32(s0)
}
    80003170:	8522                	mv	a0,s0
    80003172:	70a2                	ld	ra,40(sp)
    80003174:	7402                	ld	s0,32(sp)
    80003176:	64e2                	ld	s1,24(sp)
    80003178:	6942                	ld	s2,16(sp)
    8000317a:	69a2                	ld	s3,8(sp)
    8000317c:	6145                	addi	sp,sp,48
    8000317e:	8082                	ret

0000000080003180 <free_vfs_dentry>:
int free_vfs_dentry(struct dentry *dentry) {
    80003180:	1141                	addi	sp,sp,-16
    80003182:	e406                	sd	ra,8(sp)
  if (dentry->d_ref > 0) {
    80003184:	511c                	lw	a5,32(a0)
    80003186:	00f04863          	bgtz	a5,80003196 <free_vfs_dentry+0x16>
  free_page((void *)dentry);
    8000318a:	da4fd0ef          	jal	ra,8000072e <free_page>
  return 0;
    8000318e:	4501                	li	a0,0
}
    80003190:	60a2                	ld	ra,8(sp)
    80003192:	0141                	addi	sp,sp,16
    80003194:	8082                	ret
    sprint("free_vfs_dentry: dentry is still in use!\n");
    80003196:	00005517          	auipc	a0,0x5
    8000319a:	2ea50513          	addi	a0,a0,746 # 80008480 <rfs_i_ops+0x13f0>
    8000319e:	343010ef          	jal	ra,80004ce0 <sprint>
    return -1;
    800031a2:	557d                	li	a0,-1
    800031a4:	b7f5                	j	80003190 <free_vfs_dentry+0x10>

00000000800031a6 <hash_get_dentry>:
struct dentry *hash_get_dentry(struct dentry *parent, char *name) {
    800031a6:	1101                	addi	sp,sp,-32
    800031a8:	ec06                	sd	ra,24(sp)
  struct dentry_key key = {.parent = parent, .name = name};
    800031aa:	e02a                	sd	a0,0(sp)
    800031ac:	e42e                	sd	a1,8(sp)
  return (struct dentry *)dentry_hash_table.virtual_hash_get(&dentry_hash_table,
    800031ae:	858a                	mv	a1,sp
    800031b0:	0000b517          	auipc	a0,0xb
    800031b4:	ed850513          	addi	a0,a0,-296 # 8000e088 <dentry_hash_table>
    800031b8:	0000c797          	auipc	a5,0xc
    800031bc:	ae87b783          	ld	a5,-1304(a5) # 8000eca0 <dentry_hash_table+0xc18>
    800031c0:	9782                	jalr	a5
}
    800031c2:	60e2                	ld	ra,24(sp)
    800031c4:	6105                	addi	sp,sp,32
    800031c6:	8082                	ret

00000000800031c8 <hash_put_dentry>:
int hash_put_dentry(struct dentry *dentry) {
    800031c8:	1101                	addi	sp,sp,-32
    800031ca:	ec06                	sd	ra,24(sp)
    800031cc:	e822                	sd	s0,16(sp)
    800031ce:	e426                	sd	s1,8(sp)
    800031d0:	84aa                	mv	s1,a0
  struct dentry_key *key = alloc_page();
    800031d2:	dd2fd0ef          	jal	ra,800007a4 <alloc_page>
    800031d6:	842a                	mv	s0,a0
  key->name = dentry->name;
    800031d8:	e504                	sd	s1,8(a0)
  key->parent = dentry->parent;
    800031da:	789c                	ld	a5,48(s1)
    800031dc:	e11c                	sd	a5,0(a0)
  int ret = dentry_hash_table.virtual_hash_put(&dentry_hash_table, key, dentry);
    800031de:	8626                	mv	a2,s1
    800031e0:	85aa                	mv	a1,a0
    800031e2:	0000b517          	auipc	a0,0xb
    800031e6:	ea650513          	addi	a0,a0,-346 # 8000e088 <dentry_hash_table>
    800031ea:	0000c797          	auipc	a5,0xc
    800031ee:	aae7b783          	ld	a5,-1362(a5) # 8000ec98 <dentry_hash_table+0xc10>
    800031f2:	9782                	jalr	a5
    800031f4:	84aa                	mv	s1,a0
  if (ret != 0)
    800031f6:	e519                	bnez	a0,80003204 <hash_put_dentry+0x3c>
}
    800031f8:	8526                	mv	a0,s1
    800031fa:	60e2                	ld	ra,24(sp)
    800031fc:	6442                	ld	s0,16(sp)
    800031fe:	64a2                	ld	s1,8(sp)
    80003200:	6105                	addi	sp,sp,32
    80003202:	8082                	ret
    free_page(key);
    80003204:	8522                	mv	a0,s0
    80003206:	d28fd0ef          	jal	ra,8000072e <free_page>
    8000320a:	b7fd                	j	800031f8 <hash_put_dentry+0x30>

000000008000320c <hash_erase_dentry>:
int hash_erase_dentry(struct dentry *dentry) {
    8000320c:	1101                	addi	sp,sp,-32
    8000320e:	ec06                	sd	ra,24(sp)
  struct dentry_key key = {.parent = dentry->parent, .name = dentry->name};
    80003210:	791c                	ld	a5,48(a0)
    80003212:	e03e                	sd	a5,0(sp)
    80003214:	e42a                	sd	a0,8(sp)
  return dentry_hash_table.virtual_hash_erase(&dentry_hash_table, &key);
    80003216:	858a                	mv	a1,sp
    80003218:	0000b517          	auipc	a0,0xb
    8000321c:	e7050513          	addi	a0,a0,-400 # 8000e088 <dentry_hash_table>
    80003220:	0000c797          	auipc	a5,0xc
    80003224:	a887b783          	ld	a5,-1400(a5) # 8000eca8 <dentry_hash_table+0xc20>
    80003228:	9782                	jalr	a5
}
    8000322a:	60e2                	ld	ra,24(sp)
    8000322c:	6105                	addi	sp,sp,32
    8000322e:	8082                	ret

0000000080003230 <hash_get_vinode>:

// vinode hash table interface
struct vinode *hash_get_vinode(struct super_block *sb, int inum) {
  if (inum < 0) return NULL;
    80003230:	0205c363          	bltz	a1,80003256 <hash_get_vinode+0x26>
struct vinode *hash_get_vinode(struct super_block *sb, int inum) {
    80003234:	1101                	addi	sp,sp,-32
    80003236:	ec06                	sd	ra,24(sp)
  struct vinode_key key = {.sb = sb, .inum = inum};
    80003238:	c02e                	sw	a1,0(sp)
    8000323a:	e42a                	sd	a0,8(sp)
  return (struct vinode *)vinode_hash_table.virtual_hash_get(&vinode_hash_table,
    8000323c:	858a                	mv	a1,sp
    8000323e:	0000a517          	auipc	a0,0xa
    80003242:	22250513          	addi	a0,a0,546 # 8000d460 <vinode_hash_table>
    80003246:	0000b797          	auipc	a5,0xb
    8000324a:	e327b783          	ld	a5,-462(a5) # 8000e078 <vinode_hash_table+0xc18>
    8000324e:	9782                	jalr	a5
                                                             &key);
}
    80003250:	60e2                	ld	ra,24(sp)
    80003252:	6105                	addi	sp,sp,32
    80003254:	8082                	ret
  if (inum < 0) return NULL;
    80003256:	4501                	li	a0,0
}
    80003258:	8082                	ret

000000008000325a <hash_put_vinode>:

int hash_put_vinode(struct vinode *vinode) {
    8000325a:	1101                	addi	sp,sp,-32
    8000325c:	ec06                	sd	ra,24(sp)
    8000325e:	e822                	sd	s0,16(sp)
    80003260:	e426                	sd	s1,8(sp)
  if (vinode->inum < 0) return -1;
    80003262:	411c                	lw	a5,0(a0)
    80003264:	0407c163          	bltz	a5,800032a6 <hash_put_vinode+0x4c>
    80003268:	842a                	mv	s0,a0
  struct vinode_key *key = alloc_page();
    8000326a:	d3afd0ef          	jal	ra,800007a4 <alloc_page>
    8000326e:	84aa                	mv	s1,a0
  key->sb = vinode->sb;
    80003270:	643c                	ld	a5,72(s0)
    80003272:	e51c                	sd	a5,8(a0)
  key->inum = vinode->inum;
    80003274:	401c                	lw	a5,0(s0)
    80003276:	c11c                	sw	a5,0(a0)

  int ret = vinode_hash_table.virtual_hash_put(&vinode_hash_table, key, vinode);
    80003278:	8622                	mv	a2,s0
    8000327a:	85aa                	mv	a1,a0
    8000327c:	0000a517          	auipc	a0,0xa
    80003280:	1e450513          	addi	a0,a0,484 # 8000d460 <vinode_hash_table>
    80003284:	0000b797          	auipc	a5,0xb
    80003288:	dec7b783          	ld	a5,-532(a5) # 8000e070 <vinode_hash_table+0xc10>
    8000328c:	9782                	jalr	a5
    8000328e:	842a                	mv	s0,a0
  if (ret != 0) free_page(key);
    80003290:	e519                	bnez	a0,8000329e <hash_put_vinode+0x44>
  return ret;
}
    80003292:	8522                	mv	a0,s0
    80003294:	60e2                	ld	ra,24(sp)
    80003296:	6442                	ld	s0,16(sp)
    80003298:	64a2                	ld	s1,8(sp)
    8000329a:	6105                	addi	sp,sp,32
    8000329c:	8082                	ret
  if (ret != 0) free_page(key);
    8000329e:	8526                	mv	a0,s1
    800032a0:	c8efd0ef          	jal	ra,8000072e <free_page>
    800032a4:	b7fd                	j	80003292 <hash_put_vinode+0x38>
  if (vinode->inum < 0) return -1;
    800032a6:	547d                	li	s0,-1
    800032a8:	b7ed                	j	80003292 <hash_put_vinode+0x38>

00000000800032aa <vfs_mount>:
struct super_block *vfs_mount(const char *dev_name, int mnt_type) {
    800032aa:	7179                	addi	sp,sp,-48
    800032ac:	f406                	sd	ra,40(sp)
    800032ae:	f022                	sd	s0,32(sp)
    800032b0:	ec26                	sd	s1,24(sp)
    800032b2:	e84a                	sd	s2,16(sp)
    800032b4:	e44e                	sd	s3,8(sp)
    800032b6:	89aa                	mv	s3,a0
    800032b8:	892e                	mv	s2,a1
  for (int i = 0; i < MAX_VFS_DEV; ++i) {
    800032ba:	4401                	li	s0,0
  struct device *p_device = NULL;
    800032bc:	4481                	li	s1,0
  for (int i = 0; i < MAX_VFS_DEV; ++i) {
    800032be:	a011                	j	800032c2 <vfs_mount+0x18>
    800032c0:	2405                	addiw	s0,s0,1
    800032c2:	47a5                	li	a5,9
    800032c4:	0287c063          	blt	a5,s0,800032e4 <vfs_mount+0x3a>
    p_device = vfs_dev_list[i];
    800032c8:	00341713          	slli	a4,s0,0x3
    800032cc:	0000a797          	auipc	a5,0xa
    800032d0:	0a478793          	addi	a5,a5,164 # 8000d370 <vfs_dev_list>
    800032d4:	97ba                	add	a5,a5,a4
    800032d6:	6384                	ld	s1,0(a5)
    if (p_device && strcmp(p_device->dev_name, dev_name) == 0) break;
    800032d8:	d4e5                	beqz	s1,800032c0 <vfs_mount+0x16>
    800032da:	85ce                	mv	a1,s3
    800032dc:	8526                	mv	a0,s1
    800032de:	7bd000ef          	jal	ra,8000429a <strcmp>
    800032e2:	fd79                	bnez	a0,800032c0 <vfs_mount+0x16>
  if (p_device == NULL) panic("vfs_mount: cannot find the device entry!\n");
    800032e4:	cc81                	beqz	s1,800032fc <vfs_mount+0x52>
  struct file_system_type *fs_type = p_device->fs_type;
    800032e6:	749c                	ld	a5,40(s1)
  struct super_block *sb = fs_type->get_superblock(p_device);
    800032e8:	679c                	ld	a5,8(a5)
    800032ea:	8526                	mv	a0,s1
    800032ec:	9782                	jalr	a5
    800032ee:	842a                	mv	s0,a0
  hash_put_vinode(sb->s_root->dentry_inode);
    800032f0:	691c                	ld	a5,16(a0)
    800032f2:	7788                	ld	a0,40(a5)
    800032f4:	f67ff0ef          	jal	ra,8000325a <hash_put_vinode>
  for (int i = 0; i < MAX_MOUNTS; ++i) {
    800032f8:	4781                	li	a5,0
    800032fa:	a801                	j	8000330a <vfs_mount+0x60>
  if (p_device == NULL) panic("vfs_mount: cannot find the device entry!\n");
    800032fc:	00005517          	auipc	a0,0x5
    80003300:	1b450513          	addi	a0,a0,436 # 800084b0 <rfs_i_ops+0x1420>
    80003304:	281010ef          	jal	ra,80004d84 <do_panic>
  for (int i = 0; i < MAX_MOUNTS; ++i) {
    80003308:	2785                	addiw	a5,a5,1
    8000330a:	4725                	li	a4,9
    8000330c:	06f74363          	blt	a4,a5,80003372 <vfs_mount+0xc8>
    if (vfs_sb_list[i] == NULL) {
    80003310:	00379693          	slli	a3,a5,0x3
    80003314:	0000a717          	auipc	a4,0xa
    80003318:	05c70713          	addi	a4,a4,92 # 8000d370 <vfs_dev_list>
    8000331c:	9736                	add	a4,a4,a3
    8000331e:	6b38                	ld	a4,80(a4)
    80003320:	f765                	bnez	a4,80003308 <vfs_mount+0x5e>
      vfs_sb_list[i] = sb;
    80003322:	0000a717          	auipc	a4,0xa
    80003326:	04e70713          	addi	a4,a4,78 # 8000d370 <vfs_dev_list>
    8000332a:	00d707b3          	add	a5,a4,a3
    8000332e:	eba0                	sd	s0,80(a5)
  if (mnt_type == MOUNT_AS_ROOT) {
    80003330:	4785                	li	a5,1
    80003332:	04f90663          	beq	s2,a5,8000337e <vfs_mount+0xd4>
  } else if (mnt_type == MOUNT_DEFAULT) {
    80003336:	06091263          	bnez	s2,8000339a <vfs_mount+0xf0>
    if (!vfs_root_dentry)
    8000333a:	0000d797          	auipc	a5,0xd
    8000333e:	f167b783          	ld	a5,-234(a5) # 80010250 <vfs_root_dentry>
    80003342:	c7b1                	beqz	a5,8000338e <vfs_mount+0xe4>
    struct dentry *mnt_point = sb->s_root;
    80003344:	01043903          	ld	s2,16(s0)
    strcpy(mnt_point->name, dev_name);
    80003348:	85a6                	mv	a1,s1
    8000334a:	854a                	mv	a0,s2
    8000334c:	767000ef          	jal	ra,800042b2 <strcpy>
    mnt_point->parent = vfs_root_dentry;
    80003350:	0000d797          	auipc	a5,0xd
    80003354:	f007b783          	ld	a5,-256(a5) # 80010250 <vfs_root_dentry>
    80003358:	02f93823          	sd	a5,48(s2)
    hash_put_dentry(sb->s_root);
    8000335c:	6808                	ld	a0,16(s0)
    8000335e:	e6bff0ef          	jal	ra,800031c8 <hash_put_dentry>
}
    80003362:	8522                	mv	a0,s0
    80003364:	70a2                	ld	ra,40(sp)
    80003366:	7402                	ld	s0,32(sp)
    80003368:	64e2                	ld	s1,24(sp)
    8000336a:	6942                	ld	s2,16(sp)
    8000336c:	69a2                	ld	s3,8(sp)
    8000336e:	6145                	addi	sp,sp,48
    80003370:	8082                	ret
  if (err) panic("vfs_mount: too many mounts!\n");
    80003372:	00005517          	auipc	a0,0x5
    80003376:	16e50513          	addi	a0,a0,366 # 800084e0 <rfs_i_ops+0x1450>
    8000337a:	20b010ef          	jal	ra,80004d84 <do_panic>
    vfs_root_dentry = sb->s_root;
    8000337e:	6808                	ld	a0,16(s0)
    80003380:	0000d797          	auipc	a5,0xd
    80003384:	eca7b823          	sd	a0,-304(a5) # 80010250 <vfs_root_dentry>
    hash_put_dentry(sb->s_root);
    80003388:	e41ff0ef          	jal	ra,800031c8 <hash_put_dentry>
    8000338c:	bfd9                	j	80003362 <vfs_mount+0xb8>
      panic("vfs_mount: root dentry not found, please mount the root device first!\n");
    8000338e:	00005517          	auipc	a0,0x5
    80003392:	17250513          	addi	a0,a0,370 # 80008500 <rfs_i_ops+0x1470>
    80003396:	1ef010ef          	jal	ra,80004d84 <do_panic>
    panic("vfs_mount: unknown mount type!\n");
    8000339a:	00005517          	auipc	a0,0x5
    8000339e:	1ae50513          	addi	a0,a0,430 # 80008548 <rfs_i_ops+0x14b8>
    800033a2:	1e3010ef          	jal	ra,80004d84 <do_panic>

00000000800033a6 <lookup_final_dentry>:
                                   char *miss_name) {
    800033a6:	715d                	addi	sp,sp,-80
    800033a8:	e486                	sd	ra,72(sp)
    800033aa:	e0a2                	sd	s0,64(sp)
    800033ac:	fc26                	sd	s1,56(sp)
    800033ae:	f84a                	sd	s2,48(sp)
    800033b0:	f44e                	sd	s3,40(sp)
    800033b2:	f052                	sd	s4,32(sp)
    800033b4:	89ae                	mv	s3,a1
    800033b6:	8a32                	mv	s4,a2
  strcpy(path_copy, path);
    800033b8:	85aa                	mv	a1,a0
    800033ba:	850a                	mv	a0,sp
    800033bc:	6f7000ef          	jal	ra,800042b2 <strcpy>
  char *token = strtok(path_copy, "/");
    800033c0:	00004597          	auipc	a1,0x4
    800033c4:	0e858593          	addi	a1,a1,232 # 800074a8 <rfs_i_ops+0x418>
    800033c8:	850a                	mv	a0,sp
    800033ca:	711000ef          	jal	ra,800042da <strtok>
    800033ce:	84aa                	mv	s1,a0
  struct dentry *this = *parent;
    800033d0:	0009b403          	ld	s0,0(s3)
  while (token != NULL) {
    800033d4:	a0b9                	j	80003422 <lookup_final_dentry+0x7c>
        free_page(this);
    800033d6:	8522                	mv	a0,s0
    800033d8:	b56fd0ef          	jal	ra,8000072e <free_page>
        strcpy(miss_name, token);
    800033dc:	85a6                	mv	a1,s1
    800033de:	8552                	mv	a0,s4
    800033e0:	6d3000ef          	jal	ra,800042b2 <strcpy>
        return NULL;
    800033e4:	844a                	mv	s0,s2
}
    800033e6:	8522                	mv	a0,s0
    800033e8:	60a6                	ld	ra,72(sp)
    800033ea:	6406                	ld	s0,64(sp)
    800033ec:	74e2                	ld	s1,56(sp)
    800033ee:	7942                	ld	s2,48(sp)
    800033f0:	79a2                	ld	s3,40(sp)
    800033f2:	7a02                	ld	s4,32(sp)
    800033f4:	6161                	addi	sp,sp,80
    800033f6:	8082                	ret
        this->dentry_inode = found_vinode;
    800033f8:	03243423          	sd	s2,40(s0)
        found_vinode->ref++;
    800033fc:	00492783          	lw	a5,4(s2)
    80003400:	2785                	addiw	a5,a5,1
    80003402:	00f92223          	sw	a5,4(s2)
        hash_put_vinode(found_vinode);
    80003406:	854a                	mv	a0,s2
    80003408:	e53ff0ef          	jal	ra,8000325a <hash_put_vinode>
      hash_put_dentry(this);
    8000340c:	8522                	mv	a0,s0
    8000340e:	dbbff0ef          	jal	ra,800031c8 <hash_put_dentry>
    token = strtok(NULL, "/");
    80003412:	00004597          	auipc	a1,0x4
    80003416:	09658593          	addi	a1,a1,150 # 800074a8 <rfs_i_ops+0x418>
    8000341a:	4501                	li	a0,0
    8000341c:	6bf000ef          	jal	ra,800042da <strtok>
    80003420:	84aa                	mv	s1,a0
  while (token != NULL) {
    80003422:	d0f1                	beqz	s1,800033e6 <lookup_final_dentry+0x40>
    *parent = this;
    80003424:	0089b023          	sd	s0,0(s3)
    this = hash_get_dentry((*parent), token);  // try hash first
    80003428:	85a6                	mv	a1,s1
    8000342a:	8522                	mv	a0,s0
    8000342c:	d7bff0ef          	jal	ra,800031a6 <hash_get_dentry>
    80003430:	842a                	mv	s0,a0
    if (this == NULL) {
    80003432:	f165                	bnez	a0,80003412 <lookup_final_dentry+0x6c>
      this = alloc_vfs_dentry(token, NULL, *parent);
    80003434:	0009b603          	ld	a2,0(s3)
    80003438:	4581                	li	a1,0
    8000343a:	8526                	mv	a0,s1
    8000343c:	d05ff0ef          	jal	ra,80003140 <alloc_vfs_dentry>
    80003440:	842a                	mv	s0,a0
      struct vinode *found_vinode = viop_lookup((*parent)->dentry_inode, this);
    80003442:	0009b783          	ld	a5,0(s3)
    80003446:	7788                	ld	a0,40(a5)
    80003448:	693c                	ld	a5,80(a0)
    8000344a:	7f9c                	ld	a5,56(a5)
    8000344c:	85a2                	mv	a1,s0
    8000344e:	9782                	jalr	a5
    80003450:	892a                	mv	s2,a0
      if (found_vinode == NULL) {
    80003452:	d151                	beqz	a0,800033d6 <lookup_final_dentry+0x30>
      struct vinode *same_inode = hash_get_vinode(found_vinode->sb, found_vinode->inum);
    80003454:	410c                	lw	a1,0(a0)
    80003456:	6528                	ld	a0,72(a0)
    80003458:	dd9ff0ef          	jal	ra,80003230 <hash_get_vinode>
      if (same_inode != NULL) {
    8000345c:	dd51                	beqz	a0,800033f8 <lookup_final_dentry+0x52>
        this->dentry_inode = same_inode;
    8000345e:	f408                	sd	a0,40(s0)
        same_inode->ref++;
    80003460:	415c                	lw	a5,4(a0)
    80003462:	2785                	addiw	a5,a5,1
    80003464:	c15c                	sw	a5,4(a0)
        free_page(found_vinode);
    80003466:	854a                	mv	a0,s2
    80003468:	ac6fd0ef          	jal	ra,8000072e <free_page>
    8000346c:	b745                	j	8000340c <lookup_final_dentry+0x66>

000000008000346e <vfs_link>:
int vfs_link(const char *oldpath, const char *newpath) {
    8000346e:	7159                	addi	sp,sp,-112
    80003470:	f486                	sd	ra,104(sp)
    80003472:	f0a2                	sd	s0,96(sp)
    80003474:	eca6                	sd	s1,88(sp)
    80003476:	84ae                	mv	s1,a1
  struct dentry *parent = vfs_root_dentry;
    80003478:	0000d797          	auipc	a5,0xd
    8000347c:	dd87b783          	ld	a5,-552(a5) # 80010250 <vfs_root_dentry>
    80003480:	e4be                	sd	a5,72(sp)
      lookup_final_dentry(oldpath, &parent, miss_name);
    80003482:	1030                	addi	a2,sp,40
    80003484:	00ac                	addi	a1,sp,72
    80003486:	f21ff0ef          	jal	ra,800033a6 <lookup_final_dentry>
  if (!old_file_dentry) {
    8000348a:	c12d                	beqz	a0,800034ec <vfs_link+0x7e>
    8000348c:	842a                	mv	s0,a0
  if (old_file_dentry->dentry_inode->type != FILE_I) {
    8000348e:	751c                	ld	a5,40(a0)
    80003490:	47dc                	lw	a5,12(a5)
    80003492:	e7ad                	bnez	a5,800034fc <vfs_link+0x8e>
  parent = vfs_root_dentry;
    80003494:	0000d797          	auipc	a5,0xd
    80003498:	dbc7b783          	ld	a5,-580(a5) # 80010250 <vfs_root_dentry>
    8000349c:	e4be                	sd	a5,72(sp)
      lookup_final_dentry(newpath, &parent, miss_name);
    8000349e:	1030                	addi	a2,sp,40
    800034a0:	00ac                	addi	a1,sp,72
    800034a2:	8526                	mv	a0,s1
    800034a4:	f03ff0ef          	jal	ra,800033a6 <lookup_final_dentry>
  if (new_file_dentry) {
    800034a8:	e135                	bnez	a0,8000350c <vfs_link+0x9e>
  get_base_name(newpath, basename);
    800034aa:	002c                	addi	a1,sp,8
    800034ac:	8526                	mv	a0,s1
    800034ae:	c13ff0ef          	jal	ra,800030c0 <get_base_name>
  if (strcmp(miss_name, basename) != 0) {
    800034b2:	002c                	addi	a1,sp,8
    800034b4:	1028                	addi	a0,sp,40
    800034b6:	5e5000ef          	jal	ra,8000429a <strcmp>
    800034ba:	e12d                	bnez	a0,8000351c <vfs_link+0xae>
  new_file_dentry = alloc_vfs_dentry(basename, old_file_dentry->dentry_inode, parent);
    800034bc:	6626                	ld	a2,72(sp)
    800034be:	740c                	ld	a1,40(s0)
    800034c0:	0028                	addi	a0,sp,8
    800034c2:	c7fff0ef          	jal	ra,80003140 <alloc_vfs_dentry>
    800034c6:	84aa                	mv	s1,a0
      viop_link(parent->dentry_inode, new_file_dentry, old_file_dentry->dentry_inode);
    800034c8:	67a6                	ld	a5,72(sp)
    800034ca:	7788                	ld	a0,40(a5)
    800034cc:	693c                	ld	a5,80(a0)
    800034ce:	779c                	ld	a5,40(a5)
    800034d0:	7410                	ld	a2,40(s0)
    800034d2:	85a6                	mv	a1,s1
    800034d4:	9782                	jalr	a5
    800034d6:	842a                	mv	s0,a0
  if (err) return -1;
    800034d8:	e931                	bnez	a0,8000352c <vfs_link+0xbe>
  hash_put_dentry(new_file_dentry);
    800034da:	8526                	mv	a0,s1
    800034dc:	cedff0ef          	jal	ra,800031c8 <hash_put_dentry>
}
    800034e0:	8522                	mv	a0,s0
    800034e2:	70a6                	ld	ra,104(sp)
    800034e4:	7406                	ld	s0,96(sp)
    800034e6:	64e6                	ld	s1,88(sp)
    800034e8:	6165                	addi	sp,sp,112
    800034ea:	8082                	ret
    sprint("vfs_link: cannot find the file!\n");
    800034ec:	00005517          	auipc	a0,0x5
    800034f0:	08450513          	addi	a0,a0,132 # 80008570 <rfs_i_ops+0x14e0>
    800034f4:	7ec010ef          	jal	ra,80004ce0 <sprint>
    return -1;
    800034f8:	547d                	li	s0,-1
    800034fa:	b7dd                	j	800034e0 <vfs_link+0x72>
    sprint("vfs_link: cannot link a directory!\n");
    800034fc:	00005517          	auipc	a0,0x5
    80003500:	09c50513          	addi	a0,a0,156 # 80008598 <rfs_i_ops+0x1508>
    80003504:	7dc010ef          	jal	ra,80004ce0 <sprint>
    return -1;
    80003508:	547d                	li	s0,-1
    8000350a:	bfd9                	j	800034e0 <vfs_link+0x72>
    sprint("vfs_link: the new file already exists!\n");
    8000350c:	00005517          	auipc	a0,0x5
    80003510:	0b450513          	addi	a0,a0,180 # 800085c0 <rfs_i_ops+0x1530>
    80003514:	7cc010ef          	jal	ra,80004ce0 <sprint>
    return -1;
    80003518:	547d                	li	s0,-1
    8000351a:	b7d9                	j	800034e0 <vfs_link+0x72>
    sprint("vfs_link: cannot create file in a non-exist directory!\n");
    8000351c:	00005517          	auipc	a0,0x5
    80003520:	0cc50513          	addi	a0,a0,204 # 800085e8 <rfs_i_ops+0x1558>
    80003524:	7bc010ef          	jal	ra,80004ce0 <sprint>
    return -1;
    80003528:	547d                	li	s0,-1
    8000352a:	bf5d                	j	800034e0 <vfs_link+0x72>
  if (err) return -1;
    8000352c:	547d                	li	s0,-1
    8000352e:	bf4d                	j	800034e0 <vfs_link+0x72>

0000000080003530 <vfs_opendir>:
struct file *vfs_opendir(const char *path) {
    80003530:	715d                	addi	sp,sp,-80
    80003532:	e486                	sd	ra,72(sp)
    80003534:	e0a2                	sd	s0,64(sp)
    80003536:	fc26                	sd	s1,56(sp)
  struct dentry *parent = vfs_root_dentry;
    80003538:	0000d797          	auipc	a5,0xd
    8000353c:	d187b783          	ld	a5,-744(a5) # 80010250 <vfs_root_dentry>
    80003540:	f43e                	sd	a5,40(sp)
  struct dentry *file_dentry = lookup_final_dentry(path, &parent, miss_name);
    80003542:	0030                	addi	a2,sp,8
    80003544:	102c                	addi	a1,sp,40
    80003546:	e61ff0ef          	jal	ra,800033a6 <lookup_final_dentry>
  if (!file_dentry || file_dentry->dentry_inode->type != DIR_I) {
    8000354a:	c91d                	beqz	a0,80003580 <vfs_opendir+0x50>
    8000354c:	842a                	mv	s0,a0
    8000354e:	751c                	ld	a5,40(a0)
    80003550:	47d8                	lw	a4,12(a5)
    80003552:	4785                	li	a5,1
    80003554:	02f71663          	bne	a4,a5,80003580 <vfs_opendir+0x50>
  struct file *file = alloc_vfs_file(file_dentry, 1, 0, 0);
    80003558:	4681                	li	a3,0
    8000355a:	4601                	li	a2,0
    8000355c:	4585                	li	a1,1
    8000355e:	badff0ef          	jal	ra,8000310a <alloc_vfs_file>
    80003562:	84aa                	mv	s1,a0
  if (file_dentry->dentry_inode->i_ops->viop_hook_opendir) {
    80003564:	7408                	ld	a0,40(s0)
    80003566:	693c                	ld	a5,80(a0)
    80003568:	77bc                	ld	a5,104(a5)
    8000356a:	c395                	beqz	a5,8000358e <vfs_opendir+0x5e>
    if (file_dentry->dentry_inode->i_ops->
    8000356c:	85a2                	mv	a1,s0
    8000356e:	9782                	jalr	a5
    80003570:	cd19                	beqz	a0,8000358e <vfs_opendir+0x5e>
      sprint("vfs_opendir: hook opendir failed!\n");
    80003572:	00005517          	auipc	a0,0x5
    80003576:	0d650513          	addi	a0,a0,214 # 80008648 <rfs_i_ops+0x15b8>
    8000357a:	766010ef          	jal	ra,80004ce0 <sprint>
    8000357e:	a801                	j	8000358e <vfs_opendir+0x5e>
    sprint("vfs_opendir: cannot find the direntry!\n");
    80003580:	00005517          	auipc	a0,0x5
    80003584:	0a050513          	addi	a0,a0,160 # 80008620 <rfs_i_ops+0x1590>
    80003588:	758010ef          	jal	ra,80004ce0 <sprint>
    return NULL;
    8000358c:	4481                	li	s1,0
}
    8000358e:	8526                	mv	a0,s1
    80003590:	60a6                	ld	ra,72(sp)
    80003592:	6406                	ld	s0,64(sp)
    80003594:	74e2                	ld	s1,56(sp)
    80003596:	6161                	addi	sp,sp,80
    80003598:	8082                	ret

000000008000359a <vfs_open>:
struct file *vfs_open(const char *path, int flags) {
    8000359a:	7159                	addi	sp,sp,-112
    8000359c:	f486                	sd	ra,104(sp)
    8000359e:	f0a2                	sd	s0,96(sp)
    800035a0:	eca6                	sd	s1,88(sp)
    800035a2:	e8ca                	sd	s2,80(sp)
    800035a4:	84aa                	mv	s1,a0
    800035a6:	842e                	mv	s0,a1
  struct dentry *parent = vfs_root_dentry; // we start the path lookup from root.
    800035a8:	0000d797          	auipc	a5,0xd
    800035ac:	ca87b783          	ld	a5,-856(a5) # 80010250 <vfs_root_dentry>
    800035b0:	e4be                	sd	a5,72(sp)
  struct dentry *file_dentry = lookup_final_dentry(path, &parent, miss_name);
    800035b2:	1030                	addi	a2,sp,40
    800035b4:	00ac                	addi	a1,sp,72
    800035b6:	df1ff0ef          	jal	ra,800033a6 <lookup_final_dentry>
    800035ba:	892a                	mv	s2,a0
  if (!file_dentry) {
    800035bc:	c505                	beqz	a0,800035e4 <vfs_open+0x4a>
  if (file_dentry->dentry_inode->type != FILE_I) {
    800035be:	02893783          	ld	a5,40(s2)
    800035c2:	47cc                	lw	a1,12(a5)
    800035c4:	edc1                	bnez	a1,8000365c <vfs_open+0xc2>
  switch (flags & MASK_FILEMODE) {
    800035c6:	00347613          	andi	a2,s0,3
    800035ca:	4785                	li	a5,1
    800035cc:	0af60263          	beq	a2,a5,80003670 <vfs_open+0xd6>
    800035d0:	4789                	li	a5,2
    800035d2:	08f60d63          	beq	a2,a5,8000366c <vfs_open+0xd2>
    800035d6:	c271                	beqz	a2,8000369a <vfs_open+0x100>
      panic("fs_open: invalid open flags!\n");
    800035d8:	00005517          	auipc	a0,0x5
    800035dc:	14050513          	addi	a0,a0,320 # 80008718 <rfs_i_ops+0x1688>
    800035e0:	7a4010ef          	jal	ra,80004d84 <do_panic>
    int creatable = flags & O_CREAT;
    800035e4:	04047793          	andi	a5,s0,64
    if (creatable) {
    800035e8:	c3b5                	beqz	a5,8000364c <vfs_open+0xb2>
      get_base_name(path, basename);
    800035ea:	002c                	addi	a1,sp,8
    800035ec:	8526                	mv	a0,s1
    800035ee:	ad3ff0ef          	jal	ra,800030c0 <get_base_name>
      if (strcmp(miss_name, basename) != 0) {
    800035f2:	002c                	addi	a1,sp,8
    800035f4:	1028                	addi	a0,sp,40
    800035f6:	4a5000ef          	jal	ra,8000429a <strcmp>
    800035fa:	e91d                	bnez	a0,80003630 <vfs_open+0x96>
      file_dentry = alloc_vfs_dentry(basename, NULL, parent);
    800035fc:	6626                	ld	a2,72(sp)
    800035fe:	4581                	li	a1,0
    80003600:	0028                	addi	a0,sp,8
    80003602:	b3fff0ef          	jal	ra,80003140 <alloc_vfs_dentry>
    80003606:	892a                	mv	s2,a0
      struct vinode *new_inode = viop_create(parent->dentry_inode, file_dentry);
    80003608:	67a6                	ld	a5,72(sp)
    8000360a:	7788                	ld	a0,40(a5)
    8000360c:	693c                	ld	a5,80(a0)
    8000360e:	6b9c                	ld	a5,16(a5)
    80003610:	85ca                	mv	a1,s2
    80003612:	9782                	jalr	a5
    80003614:	84aa                	mv	s1,a0
      if (!new_inode) panic("vfs_open: cannot create file!\n");
    80003616:	c50d                	beqz	a0,80003640 <vfs_open+0xa6>
      file_dentry->dentry_inode = new_inode;
    80003618:	02a93423          	sd	a0,40(s2)
      new_inode->ref++;
    8000361c:	415c                	lw	a5,4(a0)
    8000361e:	2785                	addiw	a5,a5,1
    80003620:	c15c                	sw	a5,4(a0)
      hash_put_dentry(file_dentry);
    80003622:	854a                	mv	a0,s2
    80003624:	ba5ff0ef          	jal	ra,800031c8 <hash_put_dentry>
      hash_put_vinode(new_inode); 
    80003628:	8526                	mv	a0,s1
    8000362a:	c31ff0ef          	jal	ra,8000325a <hash_put_vinode>
    8000362e:	bf41                	j	800035be <vfs_open+0x24>
        sprint("vfs_open: cannot create file in a non-exist directory!\n");
    80003630:	00005517          	auipc	a0,0x5
    80003634:	04050513          	addi	a0,a0,64 # 80008670 <rfs_i_ops+0x15e0>
    80003638:	6a8010ef          	jal	ra,80004ce0 <sprint>
        return NULL;
    8000363c:	844a                	mv	s0,s2
    8000363e:	a0b9                	j	8000368c <vfs_open+0xf2>
      if (!new_inode) panic("vfs_open: cannot create file!\n");
    80003640:	00005517          	auipc	a0,0x5
    80003644:	06850513          	addi	a0,a0,104 # 800086a8 <rfs_i_ops+0x1618>
    80003648:	73c010ef          	jal	ra,80004d84 <do_panic>
      sprint("vfs_open: cannot find the file!\n");
    8000364c:	00005517          	auipc	a0,0x5
    80003650:	07c50513          	addi	a0,a0,124 # 800086c8 <rfs_i_ops+0x1638>
    80003654:	68c010ef          	jal	ra,80004ce0 <sprint>
      return NULL;
    80003658:	844a                	mv	s0,s2
    8000365a:	a80d                	j	8000368c <vfs_open+0xf2>
    sprint("vfs_open: cannot open a directory!\n");
    8000365c:	00005517          	auipc	a0,0x5
    80003660:	09450513          	addi	a0,a0,148 # 800086f0 <rfs_i_ops+0x1660>
    80003664:	67c010ef          	jal	ra,80004ce0 <sprint>
    return NULL;
    80003668:	4401                	li	s0,0
    8000366a:	a00d                	j	8000368c <vfs_open+0xf2>
      readable = 1;
    8000366c:	4585                	li	a1,1
      writable = 1;
    8000366e:	4605                	li	a2,1
  struct file *file = alloc_vfs_file(file_dentry, readable, writable, 0);
    80003670:	4681                	li	a3,0
    80003672:	854a                	mv	a0,s2
    80003674:	a97ff0ef          	jal	ra,8000310a <alloc_vfs_file>
    80003678:	842a                	mv	s0,a0
  if (file_dentry->dentry_inode->i_ops->viop_hook_open) {
    8000367a:	02893503          	ld	a0,40(s2)
    8000367e:	693c                	ld	a5,80(a0)
    80003680:	6fbc                	ld	a5,88(a5)
    80003682:	c789                	beqz	a5,8000368c <vfs_open+0xf2>
    if (file_dentry->dentry_inode->i_ops->
    80003684:	85ca                	mv	a1,s2
    80003686:	9782                	jalr	a5
    80003688:	00054b63          	bltz	a0,8000369e <vfs_open+0x104>
}
    8000368c:	8522                	mv	a0,s0
    8000368e:	70a6                	ld	ra,104(sp)
    80003690:	7406                	ld	s0,96(sp)
    80003692:	64e6                	ld	s1,88(sp)
    80003694:	6946                	ld	s2,80(sp)
    80003696:	6165                	addi	sp,sp,112
    80003698:	8082                	ret
  switch (flags & MASK_FILEMODE) {
    8000369a:	4585                	li	a1,1
    8000369c:	bfd1                	j	80003670 <vfs_open+0xd6>
      sprint("vfs_open: hook_open failed!\n");
    8000369e:	00005517          	auipc	a0,0x5
    800036a2:	09a50513          	addi	a0,a0,154 # 80008738 <rfs_i_ops+0x16a8>
    800036a6:	63a010ef          	jal	ra,80004ce0 <sprint>
    800036aa:	b7cd                	j	8000368c <vfs_open+0xf2>

00000000800036ac <vfs_mkdir>:
int vfs_mkdir(const char *path) {
    800036ac:	7159                	addi	sp,sp,-112
    800036ae:	f486                	sd	ra,104(sp)
    800036b0:	f0a2                	sd	s0,96(sp)
    800036b2:	eca6                	sd	s1,88(sp)
    800036b4:	e8ca                	sd	s2,80(sp)
    800036b6:	842a                	mv	s0,a0
  struct dentry *parent = vfs_root_dentry;
    800036b8:	0000d797          	auipc	a5,0xd
    800036bc:	b987b783          	ld	a5,-1128(a5) # 80010250 <vfs_root_dentry>
    800036c0:	e4be                	sd	a5,72(sp)
  struct dentry *file_dentry = lookup_final_dentry(path, &parent, miss_name);
    800036c2:	1030                	addi	a2,sp,40
    800036c4:	00ac                	addi	a1,sp,72
    800036c6:	ce1ff0ef          	jal	ra,800033a6 <lookup_final_dentry>
  if (file_dentry) {
    800036ca:	e931                	bnez	a0,8000371e <vfs_mkdir+0x72>
  get_base_name(path, basename);
    800036cc:	002c                	addi	a1,sp,8
    800036ce:	8522                	mv	a0,s0
    800036d0:	9f1ff0ef          	jal	ra,800030c0 <get_base_name>
  if (strcmp(miss_name, basename) != 0) {
    800036d4:	002c                	addi	a1,sp,8
    800036d6:	1028                	addi	a0,sp,40
    800036d8:	3c3000ef          	jal	ra,8000429a <strcmp>
    800036dc:	892a                	mv	s2,a0
    800036de:	e921                	bnez	a0,8000372e <vfs_mkdir+0x82>
  struct dentry *new_dentry = alloc_vfs_dentry(basename, NULL, parent);
    800036e0:	6626                	ld	a2,72(sp)
    800036e2:	4581                	li	a1,0
    800036e4:	0028                	addi	a0,sp,8
    800036e6:	a5bff0ef          	jal	ra,80003140 <alloc_vfs_dentry>
    800036ea:	84aa                	mv	s1,a0
  struct vinode *new_dir_inode = viop_mkdir(parent->dentry_inode, new_dentry);
    800036ec:	67a6                	ld	a5,72(sp)
    800036ee:	7788                	ld	a0,40(a5)
    800036f0:	693c                	ld	a5,80(a0)
    800036f2:	67bc                	ld	a5,72(a5)
    800036f4:	85a6                	mv	a1,s1
    800036f6:	9782                	jalr	a5
    800036f8:	842a                	mv	s0,a0
  if (!new_dir_inode) {
    800036fa:	c131                	beqz	a0,8000373e <vfs_mkdir+0x92>
  new_dentry->dentry_inode = new_dir_inode;
    800036fc:	f488                	sd	a0,40(s1)
  new_dir_inode->ref++;
    800036fe:	415c                	lw	a5,4(a0)
    80003700:	2785                	addiw	a5,a5,1
    80003702:	c15c                	sw	a5,4(a0)
  hash_put_dentry(new_dentry);
    80003704:	8526                	mv	a0,s1
    80003706:	ac3ff0ef          	jal	ra,800031c8 <hash_put_dentry>
  hash_put_vinode(new_dir_inode);
    8000370a:	8522                	mv	a0,s0
    8000370c:	b4fff0ef          	jal	ra,8000325a <hash_put_vinode>
}
    80003710:	854a                	mv	a0,s2
    80003712:	70a6                	ld	ra,104(sp)
    80003714:	7406                	ld	s0,96(sp)
    80003716:	64e6                	ld	s1,88(sp)
    80003718:	6946                	ld	s2,80(sp)
    8000371a:	6165                	addi	sp,sp,112
    8000371c:	8082                	ret
    sprint("vfs_mkdir: the directory already exists!\n");
    8000371e:	00005517          	auipc	a0,0x5
    80003722:	03a50513          	addi	a0,a0,58 # 80008758 <rfs_i_ops+0x16c8>
    80003726:	5ba010ef          	jal	ra,80004ce0 <sprint>
    return -1;
    8000372a:	597d                	li	s2,-1
    8000372c:	b7d5                	j	80003710 <vfs_mkdir+0x64>
    sprint("vfs_mkdir: cannot create directory in a non-exist directory!\n");
    8000372e:	00005517          	auipc	a0,0x5
    80003732:	05a50513          	addi	a0,a0,90 # 80008788 <rfs_i_ops+0x16f8>
    80003736:	5aa010ef          	jal	ra,80004ce0 <sprint>
    return -1;
    8000373a:	597d                	li	s2,-1
    8000373c:	bfd1                	j	80003710 <vfs_mkdir+0x64>
    free_page(new_dentry);
    8000373e:	8526                	mv	a0,s1
    80003740:	feffc0ef          	jal	ra,8000072e <free_page>
    sprint("vfs_mkdir: cannot create directory!\n");
    80003744:	00005517          	auipc	a0,0x5
    80003748:	08450513          	addi	a0,a0,132 # 800087c8 <rfs_i_ops+0x1738>
    8000374c:	594010ef          	jal	ra,80004ce0 <sprint>
    return -1;
    80003750:	597d                	li	s2,-1
    80003752:	bf7d                	j	80003710 <vfs_mkdir+0x64>

0000000080003754 <hash_erase_vinode>:

int hash_erase_vinode(struct vinode *vinode) {
  if (vinode->inum < 0) return -1;
    80003754:	411c                	lw	a5,0(a0)
    80003756:	0207c463          	bltz	a5,8000377e <hash_erase_vinode+0x2a>
int hash_erase_vinode(struct vinode *vinode) {
    8000375a:	1101                	addi	sp,sp,-32
    8000375c:	ec06                	sd	ra,24(sp)
  struct vinode_key key = {.sb = vinode->sb, .inum = vinode->inum};
    8000375e:	c03e                	sw	a5,0(sp)
    80003760:	653c                	ld	a5,72(a0)
    80003762:	e43e                	sd	a5,8(sp)
  return vinode_hash_table.virtual_hash_erase(&vinode_hash_table, &key);
    80003764:	858a                	mv	a1,sp
    80003766:	0000a517          	auipc	a0,0xa
    8000376a:	cfa50513          	addi	a0,a0,-774 # 8000d460 <vinode_hash_table>
    8000376e:	0000b797          	auipc	a5,0xb
    80003772:	9127b783          	ld	a5,-1774(a5) # 8000e080 <vinode_hash_table+0xc20>
    80003776:	9782                	jalr	a5
}
    80003778:	60e2                	ld	ra,24(sp)
    8000377a:	6105                	addi	sp,sp,32
    8000377c:	8082                	ret
  if (vinode->inum < 0) return -1;
    8000377e:	557d                	li	a0,-1
}
    80003780:	8082                	ret

0000000080003782 <vfs_unlink>:
int vfs_unlink(const char *path) {
    80003782:	715d                	addi	sp,sp,-80
    80003784:	e486                	sd	ra,72(sp)
    80003786:	e0a2                	sd	s0,64(sp)
    80003788:	fc26                	sd	s1,56(sp)
    8000378a:	f84a                	sd	s2,48(sp)
  struct dentry *parent = vfs_root_dentry;
    8000378c:	0000d797          	auipc	a5,0xd
    80003790:	ac47b783          	ld	a5,-1340(a5) # 80010250 <vfs_root_dentry>
    80003794:	f43e                	sd	a5,40(sp)
  struct dentry *file_dentry = lookup_final_dentry(path, &parent, miss_name);
    80003796:	0030                	addi	a2,sp,8
    80003798:	102c                	addi	a1,sp,40
    8000379a:	c0dff0ef          	jal	ra,800033a6 <lookup_final_dentry>
  if (!file_dentry) {
    8000379e:	cd29                	beqz	a0,800037f8 <vfs_unlink+0x76>
    800037a0:	842a                	mv	s0,a0
  if (file_dentry->dentry_inode->type != FILE_I) {
    800037a2:	7504                	ld	s1,40(a0)
    800037a4:	44dc                	lw	a5,12(s1)
    800037a6:	e3ad                	bnez	a5,80003808 <vfs_unlink+0x86>
  if (file_dentry->d_ref > 0) {
    800037a8:	511c                	lw	a5,32(a0)
    800037aa:	06f04763          	bgtz	a5,80003818 <vfs_unlink+0x96>
  int err = viop_unlink(parent->dentry_inode, file_dentry, unlinked_vinode);
    800037ae:	77a2                	ld	a5,40(sp)
    800037b0:	7788                	ld	a0,40(a5)
    800037b2:	693c                	ld	a5,80(a0)
    800037b4:	7b9c                	ld	a5,48(a5)
    800037b6:	8626                	mv	a2,s1
    800037b8:	85a2                	mv	a1,s0
    800037ba:	9782                	jalr	a5
    800037bc:	892a                	mv	s2,a0
  if (err) return -1;
    800037be:	e949                	bnez	a0,80003850 <vfs_unlink+0xce>
  hash_erase_dentry(file_dentry);
    800037c0:	8522                	mv	a0,s0
    800037c2:	a4bff0ef          	jal	ra,8000320c <hash_erase_dentry>
  free_vfs_dentry(file_dentry);
    800037c6:	8522                	mv	a0,s0
    800037c8:	9b9ff0ef          	jal	ra,80003180 <free_vfs_dentry>
  unlinked_vinode->ref--; 
    800037cc:	40dc                	lw	a5,4(s1)
    800037ce:	37fd                	addiw	a5,a5,-1
    800037d0:	0007841b          	sext.w	s0,a5
    800037d4:	c0dc                	sw	a5,4(s1)
  if (unlinked_vinode->nlinks == 0) {
    800037d6:	489c                	lw	a5,16(s1)
    800037d8:	eb89                	bnez	a5,800037ea <vfs_unlink+0x68>
    assert(unlinked_vinode->ref == 0);
    800037da:	e439                	bnez	s0,80003828 <vfs_unlink+0xa6>
    hash_erase_vinode(unlinked_vinode);
    800037dc:	8526                	mv	a0,s1
    800037de:	f77ff0ef          	jal	ra,80003754 <hash_erase_vinode>
    free_page(unlinked_vinode);  // free the vinode
    800037e2:	8526                	mv	a0,s1
    800037e4:	f4bfc0ef          	jal	ra,8000072e <free_page>
  return 0;
    800037e8:	8922                	mv	s2,s0
}
    800037ea:	854a                	mv	a0,s2
    800037ec:	60a6                	ld	ra,72(sp)
    800037ee:	6406                	ld	s0,64(sp)
    800037f0:	74e2                	ld	s1,56(sp)
    800037f2:	7942                	ld	s2,48(sp)
    800037f4:	6161                	addi	sp,sp,80
    800037f6:	8082                	ret
    sprint("vfs_unlink: cannot find the file!\n");
    800037f8:	00005517          	auipc	a0,0x5
    800037fc:	ff850513          	addi	a0,a0,-8 # 800087f0 <rfs_i_ops+0x1760>
    80003800:	4e0010ef          	jal	ra,80004ce0 <sprint>
    return -1;
    80003804:	597d                	li	s2,-1
    80003806:	b7d5                	j	800037ea <vfs_unlink+0x68>
    sprint("vfs_unlink: cannot unlink a directory!\n");
    80003808:	00005517          	auipc	a0,0x5
    8000380c:	01050513          	addi	a0,a0,16 # 80008818 <rfs_i_ops+0x1788>
    80003810:	4d0010ef          	jal	ra,80004ce0 <sprint>
    return -1;
    80003814:	597d                	li	s2,-1
    80003816:	bfd1                	j	800037ea <vfs_unlink+0x68>
    sprint("vfs_unlink: the file is still opened!\n");
    80003818:	00005517          	auipc	a0,0x5
    8000381c:	02850513          	addi	a0,a0,40 # 80008840 <rfs_i_ops+0x17b0>
    80003820:	4c0010ef          	jal	ra,80004ce0 <sprint>
    return -1;
    80003824:	597d                	li	s2,-1
    80003826:	b7d1                	j	800037ea <vfs_unlink+0x68>
    assert(unlinked_vinode->ref == 0);
    80003828:	00005697          	auipc	a3,0x5
    8000382c:	04068693          	addi	a3,a3,64 # 80008868 <rfs_i_ops+0x17d8>
    80003830:	15b00613          	li	a2,347
    80003834:	00005597          	auipc	a1,0x5
    80003838:	05458593          	addi	a1,a1,84 # 80008888 <rfs_i_ops+0x17f8>
    8000383c:	00004517          	auipc	a0,0x4
    80003840:	12450513          	addi	a0,a0,292 # 80007960 <rfs_i_ops+0x8d0>
    80003844:	49c010ef          	jal	ra,80004ce0 <sprint>
    80003848:	6541                	lui	a0,0x10
    8000384a:	157d                	addi	a0,a0,-1
    8000384c:	4b4010ef          	jal	ra,80004d00 <poweroff>
  if (err) return -1;
    80003850:	597d                	li	s2,-1
    80003852:	bf61                	j	800037ea <vfs_unlink+0x68>

0000000080003854 <vfs_close>:
int vfs_close(struct file *file) {
    80003854:	7179                	addi	sp,sp,-48
    80003856:	f406                	sd	ra,40(sp)
    80003858:	f022                	sd	s0,32(sp)
    8000385a:	ec26                	sd	s1,24(sp)
    8000385c:	e84a                	sd	s2,16(sp)
    8000385e:	e44e                	sd	s3,8(sp)
  if (file->f_dentry->dentry_inode->type != FILE_I) {
    80003860:	6900                	ld	s0,16(a0)
    80003862:	7404                	ld	s1,40(s0)
    80003864:	00c4a983          	lw	s3,12(s1)
    80003868:	02099a63          	bnez	s3,8000389c <vfs_close+0x48>
    8000386c:	892a                	mv	s2,a0
  if (inode->i_ops->viop_hook_close) {
    8000386e:	68bc                	ld	a5,80(s1)
    80003870:	73bc                	ld	a5,96(a5)
    80003872:	c789                	beqz	a5,8000387c <vfs_close+0x28>
    if (inode->i_ops->viop_hook_close(inode, dentry) != 0) {
    80003874:	85a2                	mv	a1,s0
    80003876:	8526                	mv	a0,s1
    80003878:	9782                	jalr	a5
    8000387a:	e90d                	bnez	a0,800038ac <vfs_close+0x58>
  dentry->d_ref--;
    8000387c:	501c                	lw	a5,32(s0)
    8000387e:	37fd                	addiw	a5,a5,-1
    80003880:	0007871b          	sext.w	a4,a5
    80003884:	d01c                	sw	a5,32(s0)
  if (dentry->d_ref == 0) {
    80003886:	cb15                	beqz	a4,800038ba <vfs_close+0x66>
  file->status = FD_NONE;
    80003888:	00092023          	sw	zero,0(s2)
}
    8000388c:	854e                	mv	a0,s3
    8000388e:	70a2                	ld	ra,40(sp)
    80003890:	7402                	ld	s0,32(sp)
    80003892:	64e2                	ld	s1,24(sp)
    80003894:	6942                	ld	s2,16(sp)
    80003896:	69a2                	ld	s3,8(sp)
    80003898:	6145                	addi	sp,sp,48
    8000389a:	8082                	ret
    sprint("vfs_close: cannot close a directory!\n");
    8000389c:	00005517          	auipc	a0,0x5
    800038a0:	ffc50513          	addi	a0,a0,-4 # 80008898 <rfs_i_ops+0x1808>
    800038a4:	43c010ef          	jal	ra,80004ce0 <sprint>
    return -1;
    800038a8:	59fd                	li	s3,-1
    800038aa:	b7cd                	j	8000388c <vfs_close+0x38>
      sprint("vfs_close: hook_close failed!\n");
    800038ac:	00005517          	auipc	a0,0x5
    800038b0:	01450513          	addi	a0,a0,20 # 800088c0 <rfs_i_ops+0x1830>
    800038b4:	42c010ef          	jal	ra,80004ce0 <sprint>
    800038b8:	b7d1                	j	8000387c <vfs_close+0x28>
    hash_erase_dentry(dentry);
    800038ba:	8522                	mv	a0,s0
    800038bc:	951ff0ef          	jal	ra,8000320c <hash_erase_dentry>
    free_vfs_dentry(dentry);
    800038c0:	8522                	mv	a0,s0
    800038c2:	8bfff0ef          	jal	ra,80003180 <free_vfs_dentry>
    inode->ref--;
    800038c6:	40dc                	lw	a5,4(s1)
    800038c8:	37fd                	addiw	a5,a5,-1
    800038ca:	0007871b          	sext.w	a4,a5
    800038ce:	c0dc                	sw	a5,4(s1)
    if (inode->ref == 0) {
    800038d0:	ff45                	bnez	a4,80003888 <vfs_close+0x34>
      if (viop_write_back_vinode(inode) != 0)
    800038d2:	68bc                	ld	a5,80(s1)
    800038d4:	6bbc                	ld	a5,80(a5)
    800038d6:	8526                	mv	a0,s1
    800038d8:	9782                	jalr	a5
    800038da:	e901                	bnez	a0,800038ea <vfs_close+0x96>
      hash_erase_vinode(inode);
    800038dc:	8526                	mv	a0,s1
    800038de:	e77ff0ef          	jal	ra,80003754 <hash_erase_vinode>
      free_page(inode);
    800038e2:	8526                	mv	a0,s1
    800038e4:	e4bfc0ef          	jal	ra,8000072e <free_page>
    800038e8:	b745                	j	80003888 <vfs_close+0x34>
        panic("vfs_close: free inode failed!\n");
    800038ea:	00005517          	auipc	a0,0x5
    800038ee:	ff650513          	addi	a0,a0,-10 # 800088e0 <rfs_i_ops+0x1850>
    800038f2:	492010ef          	jal	ra,80004d84 <do_panic>

00000000800038f6 <default_alloc_vinode>:

//
// shared (default) actions on allocating a vfs inode.
//
struct vinode *default_alloc_vinode(struct super_block *sb) {
    800038f6:	1141                	addi	sp,sp,-16
    800038f8:	e406                	sd	ra,8(sp)
    800038fa:	e022                	sd	s0,0(sp)
    800038fc:	842a                	mv	s0,a0
  struct vinode *vinode = (struct vinode *)alloc_page();
    800038fe:	ea7fc0ef          	jal	ra,800007a4 <alloc_page>
  vinode->blocks = 0;
    80003902:	00052a23          	sw	zero,20(a0)
  vinode->inum = 0;
    80003906:	00052023          	sw	zero,0(a0)
  vinode->nlinks = 0;
    8000390a:	00052823          	sw	zero,16(a0)
  vinode->ref = 0;
    8000390e:	00052223          	sw	zero,4(a0)
  vinode->sb = sb;
    80003912:	e520                	sd	s0,72(a0)
  vinode->size = 0;
    80003914:	00052423          	sw	zero,8(a0)
  return vinode;
}
    80003918:	60a2                	ld	ra,8(sp)
    8000391a:	6402                	ld	s0,0(sp)
    8000391c:	0141                	addi	sp,sp,16
    8000391e:	8082                	ret

0000000080003920 <prot_to_type>:
}

//
// convert permission code to permission types of PTE
//
uint64 prot_to_type(int prot, int user) {
    80003920:	87aa                	mv	a5,a0
  uint64 perm = 0;
  if (prot & PROT_READ) perm |= PTE_R | PTE_A;
    80003922:	00157713          	andi	a4,a0,1
    80003926:	e30d                	bnez	a4,80003948 <prot_to_type+0x28>
  uint64 perm = 0;
    80003928:	4501                	li	a0,0
  if (prot & PROT_WRITE) perm |= PTE_W | PTE_D;
    8000392a:	0027f713          	andi	a4,a5,2
    8000392e:	c319                	beqz	a4,80003934 <prot_to_type+0x14>
    80003930:	08456513          	ori	a0,a0,132
  if (prot & PROT_EXEC) perm |= PTE_X | PTE_A;
    80003934:	8b91                	andi	a5,a5,4
    80003936:	c399                	beqz	a5,8000393c <prot_to_type+0x1c>
    80003938:	04856513          	ori	a0,a0,72
  if (perm == 0) perm = PTE_R;
    8000393c:	e111                	bnez	a0,80003940 <prot_to_type+0x20>
    8000393e:	4509                	li	a0,2
  if (user) perm |= PTE_U;
    80003940:	c199                	beqz	a1,80003946 <prot_to_type+0x26>
    80003942:	01056513          	ori	a0,a0,16
  return perm;
}
    80003946:	8082                	ret
  if (prot & PROT_READ) perm |= PTE_R | PTE_A;
    80003948:	04200513          	li	a0,66
    8000394c:	bff9                	j	8000392a <prot_to_type+0xa>

000000008000394e <page_walk>:

//
// traverse the page table (starting from page_dir) to find the corresponding pte of va.
// returns: PTE (page table entry) pointing to va.
//
pte_t *page_walk(pagetable_t page_dir, uint64 va, int alloc) {
    8000394e:	7179                	addi	sp,sp,-48
    80003950:	f406                	sd	ra,40(sp)
    80003952:	f022                	sd	s0,32(sp)
    80003954:	ec26                	sd	s1,24(sp)
    80003956:	e84a                	sd	s2,16(sp)
    80003958:	e44e                	sd	s3,8(sp)
    8000395a:	e052                	sd	s4,0(sp)
  if (va >= MAXVA) panic("page_walk");
    8000395c:	57fd                	li	a5,-1
    8000395e:	83e9                	srli	a5,a5,0x1a
    80003960:	00b7e763          	bltu	a5,a1,8000396e <page_walk+0x20>
    80003964:	84aa                	mv	s1,a0
    80003966:	892e                	mv	s2,a1
    80003968:	8a32                	mv	s4,a2
  pagetable_t pt = page_dir;

  // traverse from page directory to page table.
  // as we use risc-v sv39 paging scheme, there will be 3 layers: page dir,
  // page medium dir, and page table.
  for (int level = 2; level > 0; level--) {
    8000396a:	4989                	li	s3,2
    8000396c:	a80d                	j	8000399e <page_walk+0x50>
  if (va >= MAXVA) panic("page_walk");
    8000396e:	00005517          	auipc	a0,0x5
    80003972:	f9250513          	addi	a0,a0,-110 # 80008900 <rfs_i_ops+0x1870>
    80003976:	40e010ef          	jal	ra,80004d84 <do_panic>
    if (*pte & PTE_V) {  //PTE valid
      // phisical address of pagetable of next level
      pt = (pagetable_t)PTE2PA(*pte);
    } else { //PTE invalid (not exist).
      // allocate a page (to be the new pagetable), if alloc == 1
      if( alloc && ((pt = (pte_t *)alloc_page(1)) != 0) ){
    8000397a:	040a0663          	beqz	s4,800039c6 <page_walk+0x78>
    8000397e:	4505                	li	a0,1
    80003980:	e25fc0ef          	jal	ra,800007a4 <alloc_page>
    80003984:	84aa                	mv	s1,a0
    80003986:	c121                	beqz	a0,800039c6 <page_walk+0x78>
        memset(pt, 0, PGSIZE);
    80003988:	6605                	lui	a2,0x1
    8000398a:	4581                	li	a1,0
    8000398c:	0b9000ef          	jal	ra,80004244 <memset>
        // writes the physical address of newly allocated page to pte, to establish the
        // page table tree.
        *pte = PA2PTE(pt) | PTE_V;
    80003990:	00c4d793          	srli	a5,s1,0xc
    80003994:	07aa                	slli	a5,a5,0xa
    80003996:	0017e793          	ori	a5,a5,1
    8000399a:	e01c                	sd	a5,0(s0)
  for (int level = 2; level > 0; level--) {
    8000399c:	39fd                	addiw	s3,s3,-1
    8000399e:	03305663          	blez	s3,800039ca <page_walk+0x7c>
    pte_t *pte = pt + PX(level, va); // comment: ptuint64* 
    800039a2:	0039941b          	slliw	s0,s3,0x3
    800039a6:	0134043b          	addw	s0,s0,s3
    800039aa:	2431                	addiw	s0,s0,12
    800039ac:	00895433          	srl	s0,s2,s0
    800039b0:	1ff47413          	andi	s0,s0,511
    800039b4:	040e                	slli	s0,s0,0x3
    800039b6:	9426                	add	s0,s0,s1
    if (*pte & PTE_V) {  //PTE valid
    800039b8:	6004                	ld	s1,0(s0)
    800039ba:	0014f793          	andi	a5,s1,1
    800039be:	dfd5                	beqz	a5,8000397a <page_walk+0x2c>
      pt = (pagetable_t)PTE2PA(*pte);
    800039c0:	80a9                	srli	s1,s1,0xa
    800039c2:	04b2                	slli	s1,s1,0xc
    800039c4:	bfe1                	j	8000399c <page_walk+0x4e>
      }else //returns NULL, if alloc == 0, or no more physical page remains
        return 0;
    800039c6:	4501                	li	a0,0
    800039c8:	a039                	j	800039d6 <page_walk+0x88>
    }
  }

  // return a PTE which contains phisical address of a page
  return pt + PX(0, va);
    800039ca:	00c95513          	srli	a0,s2,0xc
    800039ce:	1ff57513          	andi	a0,a0,511
    800039d2:	050e                	slli	a0,a0,0x3
    800039d4:	9526                	add	a0,a0,s1
}
    800039d6:	70a2                	ld	ra,40(sp)
    800039d8:	7402                	ld	s0,32(sp)
    800039da:	64e2                	ld	s1,24(sp)
    800039dc:	6942                	ld	s2,16(sp)
    800039de:	69a2                	ld	s3,8(sp)
    800039e0:	6a02                	ld	s4,0(sp)
    800039e2:	6145                	addi	sp,sp,48
    800039e4:	8082                	ret

00000000800039e6 <map_pages>:
int map_pages(pagetable_t page_dir, uint64 va, uint64 size, uint64 pa, int perm) {
    800039e6:	7179                	addi	sp,sp,-48
    800039e8:	f406                	sd	ra,40(sp)
    800039ea:	f022                	sd	s0,32(sp)
    800039ec:	ec26                	sd	s1,24(sp)
    800039ee:	e84a                	sd	s2,16(sp)
    800039f0:	e44e                	sd	s3,8(sp)
    800039f2:	e052                	sd	s4,0(sp)
    800039f4:	89aa                	mv	s3,a0
    800039f6:	84b6                	mv	s1,a3
    800039f8:	8a3a                	mv	s4,a4
  for (first = ROUNDDOWN(va, PGSIZE), last = ROUNDDOWN(va + size - 1, PGSIZE);
    800039fa:	77fd                	lui	a5,0xfffff
    800039fc:	00f5f433          	and	s0,a1,a5
    80003a00:	00c58933          	add	s2,a1,a2
    80003a04:	197d                	addi	s2,s2,-1
    80003a06:	00f97933          	and	s2,s2,a5
      first <= last; first += PGSIZE, pa += PGSIZE) {
    80003a0a:	02896f63          	bltu	s2,s0,80003a48 <map_pages+0x62>
    if ((pte = page_walk(page_dir, first, 1)) == 0) return -1;
    80003a0e:	4605                	li	a2,1
    80003a10:	85a2                	mv	a1,s0
    80003a12:	854e                	mv	a0,s3
    80003a14:	f3bff0ef          	jal	ra,8000394e <page_walk>
    80003a18:	c129                	beqz	a0,80003a5a <map_pages+0x74>
    if (*pte & PTE_V)
    80003a1a:	611c                	ld	a5,0(a0)
    80003a1c:	8b85                	andi	a5,a5,1
    80003a1e:	ef89                	bnez	a5,80003a38 <map_pages+0x52>
    *pte = PA2PTE(pa) | perm | PTE_V;
    80003a20:	00c4d793          	srli	a5,s1,0xc
    80003a24:	07aa                	slli	a5,a5,0xa
    80003a26:	00fa67b3          	or	a5,s4,a5
    80003a2a:	0017e793          	ori	a5,a5,1
    80003a2e:	e11c                	sd	a5,0(a0)
      first <= last; first += PGSIZE, pa += PGSIZE) {
    80003a30:	6785                	lui	a5,0x1
    80003a32:	943e                	add	s0,s0,a5
    80003a34:	94be                	add	s1,s1,a5
    80003a36:	bfd1                	j	80003a0a <map_pages+0x24>
      panic("map_pages fails on mapping va (0x%lx) to pa (0x%lx)", first, pa);
    80003a38:	8626                	mv	a2,s1
    80003a3a:	85a2                	mv	a1,s0
    80003a3c:	00005517          	auipc	a0,0x5
    80003a40:	ed450513          	addi	a0,a0,-300 # 80008910 <rfs_i_ops+0x1880>
    80003a44:	340010ef          	jal	ra,80004d84 <do_panic>
  return 0;
    80003a48:	4501                	li	a0,0
}
    80003a4a:	70a2                	ld	ra,40(sp)
    80003a4c:	7402                	ld	s0,32(sp)
    80003a4e:	64e2                	ld	s1,24(sp)
    80003a50:	6942                	ld	s2,16(sp)
    80003a52:	69a2                	ld	s3,8(sp)
    80003a54:	6a02                	ld	s4,0(sp)
    80003a56:	6145                	addi	sp,sp,48
    80003a58:	8082                	ret
    if ((pte = page_walk(page_dir, first, 1)) == 0) return -1;
    80003a5a:	557d                	li	a0,-1
    80003a5c:	b7fd                	j	80003a4a <map_pages+0x64>

0000000080003a5e <lookup_pa>:
//
uint64 lookup_pa(pagetable_t pagetable, uint64 va) {
  pte_t *pte;
  uint64 pa;

  if (va >= MAXVA) return 0;
    80003a5e:	57fd                	li	a5,-1
    80003a60:	83e9                	srli	a5,a5,0x1a
    80003a62:	00b7f463          	bgeu	a5,a1,80003a6a <lookup_pa+0xc>
    80003a66:	4501                	li	a0,0
  if (pte == 0 || (*pte & PTE_V) == 0 || ((*pte & PTE_R) == 0 && (*pte & PTE_W) == 0))
    return 0;
  pa = PTE2PA(*pte);

  return pa;
}
    80003a68:	8082                	ret
uint64 lookup_pa(pagetable_t pagetable, uint64 va) {
    80003a6a:	1141                	addi	sp,sp,-16
    80003a6c:	e406                	sd	ra,8(sp)
  pte = page_walk(pagetable, va, 0);
    80003a6e:	4601                	li	a2,0
    80003a70:	edfff0ef          	jal	ra,8000394e <page_walk>
  if (pte == 0 || (*pte & PTE_V) == 0 || ((*pte & PTE_R) == 0 && (*pte & PTE_W) == 0))
    80003a74:	cd11                	beqz	a0,80003a90 <lookup_pa+0x32>
    80003a76:	611c                	ld	a5,0(a0)
    80003a78:	0017f513          	andi	a0,a5,1
    80003a7c:	c519                	beqz	a0,80003a8a <lookup_pa+0x2c>
    80003a7e:	0067f513          	andi	a0,a5,6
    80003a82:	c501                	beqz	a0,80003a8a <lookup_pa+0x2c>
  pa = PTE2PA(*pte);
    80003a84:	83a9                	srli	a5,a5,0xa
    80003a86:	00c79513          	slli	a0,a5,0xc
}
    80003a8a:	60a2                	ld	ra,8(sp)
    80003a8c:	0141                	addi	sp,sp,16
    80003a8e:	8082                	ret
    return 0;
    80003a90:	4501                	li	a0,0
    80003a92:	bfe5                	j	80003a8a <lookup_pa+0x2c>

0000000080003a94 <kern_vm_map>:
pagetable_t g_kernel_pagetable;

//
// maps virtual address [va, va+sz] to [pa, pa+sz] (for kernel).
//
void kern_vm_map(pagetable_t page_dir, uint64 va, uint64 pa, uint64 sz, int perm) {
    80003a94:	1141                	addi	sp,sp,-16
    80003a96:	e406                	sd	ra,8(sp)
    80003a98:	87b6                	mv	a5,a3
  // map_pages is defined in kernel/vmm.c
  if (map_pages(page_dir, va, sz, pa, perm) != 0) panic("kern_vm_map");
    80003a9a:	86b2                	mv	a3,a2
    80003a9c:	863e                	mv	a2,a5
    80003a9e:	f49ff0ef          	jal	ra,800039e6 <map_pages>
    80003aa2:	e501                	bnez	a0,80003aaa <kern_vm_map+0x16>
}
    80003aa4:	60a2                	ld	ra,8(sp)
    80003aa6:	0141                	addi	sp,sp,16
    80003aa8:	8082                	ret
  if (map_pages(page_dir, va, sz, pa, perm) != 0) panic("kern_vm_map");
    80003aaa:	00005517          	auipc	a0,0x5
    80003aae:	e9e50513          	addi	a0,a0,-354 # 80008948 <rfs_i_ops+0x18b8>
    80003ab2:	2d2010ef          	jal	ra,80004d84 <do_panic>

0000000080003ab6 <kern_vm_init>:

//
// kern_vm_init() constructs the kernel page table.
//
void kern_vm_init(void) {
    80003ab6:	1101                	addi	sp,sp,-32
    80003ab8:	ec06                	sd	ra,24(sp)
    80003aba:	e822                	sd	s0,16(sp)
    80003abc:	e426                	sd	s1,8(sp)
    80003abe:	e04a                	sd	s2,0(sp)
  // pagetable_t is defined in kernel/riscv.h. it's actually uint64*
  pagetable_t t_page_dir;

  // allocate a page (t_page_dir) to be the page directory for kernel. alloc_page is defined in kernel/pmm.c
  t_page_dir = (pagetable_t)alloc_page();
    80003ac0:	ce5fc0ef          	jal	ra,800007a4 <alloc_page>
    80003ac4:	842a                	mv	s0,a0
  // memset is defined in util/string.c
  memset(t_page_dir, 0, PGSIZE);
    80003ac6:	6605                	lui	a2,0x1
    80003ac8:	4581                	li	a1,0
    80003aca:	77a000ef          	jal	ra,80004244 <memset>

  // map virtual address [KERN_BASE, _etext] to physical address [DRAM_BASE, DRAM_BASE+(_etext - KERN_BASE)],
  // to maintain (direct) text section kernel address mapping.
  kern_vm_map(t_page_dir, KERN_BASE, DRAM_BASE, (uint64)_etext - KERN_BASE,
    80003ace:	00005497          	auipc	s1,0x5
    80003ad2:	53248493          	addi	s1,s1,1330 # 80009000 <fromhost>
         prot_to_type(PROT_READ | PROT_EXEC, 0));
    80003ad6:	4581                	li	a1,0
    80003ad8:	4515                	li	a0,5
    80003ada:	e47ff0ef          	jal	ra,80003920 <prot_to_type>
  kern_vm_map(t_page_dir, KERN_BASE, DRAM_BASE, (uint64)_etext - KERN_BASE,
    80003ade:	0005071b          	sext.w	a4,a0
    80003ae2:	80005697          	auipc	a3,0x80005
    80003ae6:	51e68693          	addi	a3,a3,1310 # 9000 <elf_fpread-0x7fff7000>
    80003aea:	4905                	li	s2,1
    80003aec:	01f91613          	slli	a2,s2,0x1f
    80003af0:	85b2                	mv	a1,a2
    80003af2:	8522                	mv	a0,s0
    80003af4:	fa1ff0ef          	jal	ra,80003a94 <kern_vm_map>

  sprint("KERN_BASE 0x%lx\n", lookup_pa(t_page_dir, KERN_BASE));
    80003af8:	01f91593          	slli	a1,s2,0x1f
    80003afc:	8522                	mv	a0,s0
    80003afe:	f61ff0ef          	jal	ra,80003a5e <lookup_pa>
    80003b02:	85aa                	mv	a1,a0
    80003b04:	00005517          	auipc	a0,0x5
    80003b08:	e5450513          	addi	a0,a0,-428 # 80008958 <rfs_i_ops+0x18c8>
    80003b0c:	1d4010ef          	jal	ra,80004ce0 <sprint>

  // also (direct) map remaining address space, to make them accessable from kernel.
  // this is important when kernel needs to access the memory content of user's app
  // without copying pages between kernel and user spaces.
  kern_vm_map(t_page_dir, (uint64)_etext, (uint64)_etext, PHYS_TOP - (uint64)_etext,
         prot_to_type(PROT_READ | PROT_WRITE, 0));
    80003b10:	4581                	li	a1,0
    80003b12:	450d                	li	a0,3
    80003b14:	e0dff0ef          	jal	ra,80003920 <prot_to_type>
  kern_vm_map(t_page_dir, (uint64)_etext, (uint64)_etext, PHYS_TOP - (uint64)_etext,
    80003b18:	0005071b          	sext.w	a4,a0
    80003b1c:	46c5                	li	a3,17
    80003b1e:	06ee                	slli	a3,a3,0x1b
    80003b20:	8e85                	sub	a3,a3,s1
    80003b22:	8626                	mv	a2,s1
    80003b24:	85a6                	mv	a1,s1
    80003b26:	8522                	mv	a0,s0
    80003b28:	f6dff0ef          	jal	ra,80003a94 <kern_vm_map>

  sprint("physical address of _etext is: 0x%lx\n", lookup_pa(t_page_dir, (uint64)_etext));
    80003b2c:	85a6                	mv	a1,s1
    80003b2e:	8522                	mv	a0,s0
    80003b30:	f2fff0ef          	jal	ra,80003a5e <lookup_pa>
    80003b34:	85aa                	mv	a1,a0
    80003b36:	00005517          	auipc	a0,0x5
    80003b3a:	e3a50513          	addi	a0,a0,-454 # 80008970 <rfs_i_ops+0x18e0>
    80003b3e:	1a2010ef          	jal	ra,80004ce0 <sprint>

  g_kernel_pagetable = t_page_dir;
    80003b42:	0000c797          	auipc	a5,0xc
    80003b46:	7087bb23          	sd	s0,1814(a5) # 80010258 <g_kernel_pagetable>
}
    80003b4a:	60e2                	ld	ra,24(sp)
    80003b4c:	6442                	ld	s0,16(sp)
    80003b4e:	64a2                	ld	s1,8(sp)
    80003b50:	6902                	ld	s2,0(sp)
    80003b52:	6105                	addi	sp,sp,32
    80003b54:	8082                	ret

0000000080003b56 <user_va_to_pa>:
/* --- user page table part --- */
//
// convert and return the corresponding physical address of a virtual address (va) of
// application.
//
void *user_va_to_pa(pagetable_t page_dir, void *va) {
    80003b56:	1141                	addi	sp,sp,-16
    80003b58:	e406                	sd	ra,8(sp)
    80003b5a:	e022                	sd	s0,0(sp)
    80003b5c:	842e                	mv	s0,a1
  // Here, PYHS_ADDR() means retrieving the starting address (4KB aligned), and
  // (va & (1<<PGSHIFT -1)) means computing the offset of "va" inside its page.
  // Also, it is possible that "va" is not mapped at all. in such case, we can find
  // invalid PTE, and should return NULL.
  // panic( "You have to implement user_va_to_pa (convert user va to pa) to print messages in lab2_1.\n" );
  uint64 pa = lookup_pa(page_dir, (uint64)va);
    80003b5e:	f01ff0ef          	jal	ra,80003a5e <lookup_pa>
  if (pa) {
    80003b62:	c911                	beqz	a0,80003b76 <user_va_to_pa+0x20>
    pa += ((uint64)va & ((1 << PGSHIFT) - 1));
    80003b64:	6785                	lui	a5,0x1
    80003b66:	17fd                	addi	a5,a5,-1
    80003b68:	00f475b3          	and	a1,s0,a5
    80003b6c:	952e                	add	a0,a0,a1
    return (void *)pa;
  }
  else {
    return NULL;
  }
}
    80003b6e:	60a2                	ld	ra,8(sp)
    80003b70:	6402                	ld	s0,0(sp)
    80003b72:	0141                	addi	sp,sp,16
    80003b74:	8082                	ret
    return NULL;
    80003b76:	4501                	li	a0,0
    80003b78:	bfdd                	j	80003b6e <user_va_to_pa+0x18>

0000000080003b7a <user_vm_map>:

//
// maps virtual address [va, va+sz] to [pa, pa+sz] (for user application).
//
void user_vm_map(pagetable_t page_dir, uint64 va, uint64 size, uint64 pa, int perm) {
    80003b7a:	1141                	addi	sp,sp,-16
    80003b7c:	e406                	sd	ra,8(sp)
  if (map_pages(page_dir, va, size, pa, perm) != 0) {
    80003b7e:	e69ff0ef          	jal	ra,800039e6 <map_pages>
    80003b82:	e501                	bnez	a0,80003b8a <user_vm_map+0x10>
    panic("fail to user_vm_map .\n");
  }
}
    80003b84:	60a2                	ld	ra,8(sp)
    80003b86:	0141                	addi	sp,sp,16
    80003b88:	8082                	ret
    panic("fail to user_vm_map .\n");
    80003b8a:	00005517          	auipc	a0,0x5
    80003b8e:	e0e50513          	addi	a0,a0,-498 # 80008998 <rfs_i_ops+0x1908>
    80003b92:	1f2010ef          	jal	ra,80004d84 <do_panic>

0000000080003b96 <user_vm_unmap>:
  // basic idea here is to first locate the PTEs of the virtual pages, and then reclaim
  // (use free_page() defined in pmm.c) the physical pages. lastly, invalidate the PTEs.
  // as naive_free reclaims only one page at a time, you only need to consider one page
  // to make user/app_naive_malloc to behave correctly.
  // panic( "You have to implement user_vm_unmap to free pages using naive_free in lab2_2.\n" );
  if (free) {
    80003b96:	e291                	bnez	a3,80003b9a <user_vm_unmap+0x4>
    80003b98:	8082                	ret
void user_vm_unmap(pagetable_t page_dir, uint64 va, uint64 size, int free) {
    80003b9a:	1141                	addi	sp,sp,-16
    80003b9c:	e406                	sd	ra,8(sp)
    80003b9e:	e022                	sd	s0,0(sp)
    pte_t* pte = page_walk(page_dir, va, 0);
    80003ba0:	4601                	li	a2,0
    80003ba2:	dadff0ef          	jal	ra,8000394e <page_walk>
    80003ba6:	842a                	mv	s0,a0
    uint64 pa = PTE2PA(*pte);
    80003ba8:	6108                	ld	a0,0(a0)
    80003baa:	8129                	srli	a0,a0,0xa
    free_page((void *)pa);
    80003bac:	0532                	slli	a0,a0,0xc
    80003bae:	b81fc0ef          	jal	ra,8000072e <free_page>
    (*pte) &= 0xfffffffffffffffe;
    80003bb2:	601c                	ld	a5,0(s0)
    80003bb4:	9bf9                	andi	a5,a5,-2
    80003bb6:	e01c                	sd	a5,0(s0)
  }
}
    80003bb8:	60a2                	ld	ra,8(sp)
    80003bba:	6402                	ld	s0,0(sp)
    80003bbc:	0141                	addi	sp,sp,16
    80003bbe:	8082                	ret

0000000080003bc0 <print_proc_vmspace>:

//
// debug function, print the vm space of a process. added @lab3_1
//
void print_proc_vmspace(process* proc) {
    80003bc0:	1101                	addi	sp,sp,-32
    80003bc2:	ec06                	sd	ra,24(sp)
    80003bc4:	e822                	sd	s0,16(sp)
    80003bc6:	e426                	sd	s1,8(sp)
    80003bc8:	e04a                	sd	s2,0(sp)
    80003bca:	842a                	mv	s0,a0
  sprint( "======\tbelow is the vm space of process%d\t========\n", proc->pid );
    80003bcc:	14053583          	ld	a1,320(a0)
    80003bd0:	00005517          	auipc	a0,0x5
    80003bd4:	de050513          	addi	a0,a0,-544 # 800089b0 <rfs_i_ops+0x1920>
    80003bd8:	108010ef          	jal	ra,80004ce0 <sprint>
  for( int i=0; i<proc->total_mapped_region; i++ ){
    80003bdc:	4481                	li	s1,0
    80003bde:	a02d                	j	80003c08 <print_proc_vmspace+0x48>
    sprint( "-va:%lx, npage:%d, ", proc->mapped_info[i].va, proc->mapped_info[i].npages);
    switch(proc->mapped_info[i].seg_type){
      case CODE_SEGMENT: sprint( "type: CODE SEGMENT" ); break;
    80003be0:	00005517          	auipc	a0,0x5
    80003be4:	e2050513          	addi	a0,a0,-480 # 80008a00 <rfs_i_ops+0x1970>
    80003be8:	0f8010ef          	jal	ra,80004ce0 <sprint>
      case DATA_SEGMENT: sprint( "type: DATA SEGMENT" ); break;
      case STACK_SEGMENT: sprint( "type: STACK SEGMENT" ); break;
      case CONTEXT_SEGMENT: sprint( "type: TRAPFRAME SEGMENT" ); break;
      case SYSTEM_SEGMENT: sprint( "type: USER KERNEL STACK SEGMENT" ); break;
    }
    sprint( ", mapped to pa:%lx\n", lookup_pa(proc->pagetable, proc->mapped_info[i].va) );
    80003bec:	6c1c                	ld	a5,24(s0)
    80003bee:	97ca                	add	a5,a5,s2
    80003bf0:	638c                	ld	a1,0(a5)
    80003bf2:	6408                	ld	a0,8(s0)
    80003bf4:	e6bff0ef          	jal	ra,80003a5e <lookup_pa>
    80003bf8:	85aa                	mv	a1,a0
    80003bfa:	00005517          	auipc	a0,0x5
    80003bfe:	e8650513          	addi	a0,a0,-378 # 80008a80 <rfs_i_ops+0x19f0>
    80003c02:	0de010ef          	jal	ra,80004ce0 <sprint>
  for( int i=0; i<proc->total_mapped_region; i++ ){
    80003c06:	2485                	addiw	s1,s1,1
    80003c08:	501c                	lw	a5,32(s0)
    80003c0a:	06f4d963          	bge	s1,a5,80003c7c <print_proc_vmspace+0xbc>
    sprint( "-va:%lx, npage:%d, ", proc->mapped_info[i].va, proc->mapped_info[i].npages);
    80003c0e:	6c1c                	ld	a5,24(s0)
    80003c10:	00449913          	slli	s2,s1,0x4
    80003c14:	97ca                	add	a5,a5,s2
    80003c16:	4790                	lw	a2,8(a5)
    80003c18:	638c                	ld	a1,0(a5)
    80003c1a:	00005517          	auipc	a0,0x5
    80003c1e:	dce50513          	addi	a0,a0,-562 # 800089e8 <rfs_i_ops+0x1958>
    80003c22:	0be010ef          	jal	ra,80004ce0 <sprint>
    switch(proc->mapped_info[i].seg_type){
    80003c26:	6c1c                	ld	a5,24(s0)
    80003c28:	97ca                	add	a5,a5,s2
    80003c2a:	47dc                	lw	a5,12(a5)
    80003c2c:	4715                	li	a4,5
    80003c2e:	faf76fe3          	bltu	a4,a5,80003bec <print_proc_vmspace+0x2c>
    80003c32:	078a                	slli	a5,a5,0x2
    80003c34:	00003717          	auipc	a4,0x3
    80003c38:	55470713          	addi	a4,a4,1364 # 80007188 <rfs_i_ops+0xf8>
    80003c3c:	97ba                	add	a5,a5,a4
    80003c3e:	439c                	lw	a5,0(a5)
    80003c40:	97ba                	add	a5,a5,a4
    80003c42:	8782                	jr	a5
      case DATA_SEGMENT: sprint( "type: DATA SEGMENT" ); break;
    80003c44:	00005517          	auipc	a0,0x5
    80003c48:	dd450513          	addi	a0,a0,-556 # 80008a18 <rfs_i_ops+0x1988>
    80003c4c:	094010ef          	jal	ra,80004ce0 <sprint>
    80003c50:	bf71                	j	80003bec <print_proc_vmspace+0x2c>
      case STACK_SEGMENT: sprint( "type: STACK SEGMENT" ); break;
    80003c52:	00005517          	auipc	a0,0x5
    80003c56:	dde50513          	addi	a0,a0,-546 # 80008a30 <rfs_i_ops+0x19a0>
    80003c5a:	086010ef          	jal	ra,80004ce0 <sprint>
    80003c5e:	b779                	j	80003bec <print_proc_vmspace+0x2c>
      case CONTEXT_SEGMENT: sprint( "type: TRAPFRAME SEGMENT" ); break;
    80003c60:	00005517          	auipc	a0,0x5
    80003c64:	de850513          	addi	a0,a0,-536 # 80008a48 <rfs_i_ops+0x19b8>
    80003c68:	078010ef          	jal	ra,80004ce0 <sprint>
    80003c6c:	b741                	j	80003bec <print_proc_vmspace+0x2c>
      case SYSTEM_SEGMENT: sprint( "type: USER KERNEL STACK SEGMENT" ); break;
    80003c6e:	00005517          	auipc	a0,0x5
    80003c72:	df250513          	addi	a0,a0,-526 # 80008a60 <rfs_i_ops+0x19d0>
    80003c76:	06a010ef          	jal	ra,80004ce0 <sprint>
    80003c7a:	bf8d                	j	80003bec <print_proc_vmspace+0x2c>
  }
}
    80003c7c:	60e2                	ld	ra,24(sp)
    80003c7e:	6442                	ld	s0,16(sp)
    80003c80:	64a2                	ld	s1,8(sp)
    80003c82:	6902                	ld	s2,0(sp)
    80003c84:	6105                	addi	sp,sp,32
    80003c86:	8082                	ret

0000000080003c88 <delegate_traps>:

//
// delegate (almost all) interrupts and most exceptions to S-mode.
// after delegation, syscalls will handled by the PKE OS kernel running in S-mode.
//
static void delegate_traps() {
    80003c88:	1141                	addi	sp,sp,-16
    80003c8a:	e406                	sd	ra,8(sp)
    asm("csrr %0, " #reg : "=r"(__tmp)); \
    __tmp;                               \
  })

static inline int supports_extension(char ext) {
  return read_const_csr(misa) & (1 << (ext - 'A'));
    80003c8c:	301027f3          	csrr	a5,misa
    80003c90:	00040737          	lui	a4,0x40
    80003c94:	8ff9                	and	a5,a5,a4
    80003c96:	2781                	sext.w	a5,a5
  // supports_extension macro is defined in kernel/riscv.h
  if (!supports_extension('S')) {
    80003c98:	cb85                	beqz	a5,80003cc8 <delegate_traps+0x40>

  // writes 64-bit values (interrupts and exceptions) to 'mideleg' and 'medeleg' (two
  // priviledged registers of RV64G machine) respectively.
  //
  // write_csr and read_csr are macros defined in kernel/riscv.h
  write_csr(mideleg, interrupts);
    80003c9a:	22200713          	li	a4,546
    80003c9e:	30371073          	csrw	mideleg,a4
  write_csr(medeleg, exceptions);
    80003ca2:	67ad                	lui	a5,0xb
    80003ca4:	10978793          	addi	a5,a5,265 # b109 <elf_fpread-0x7fff4ef7>
    80003ca8:	30279073          	csrw	medeleg,a5
  assert(read_csr(mideleg) == interrupts);
    80003cac:	303027f3          	csrr	a5,mideleg
    80003cb0:	02e79363          	bne	a5,a4,80003cd6 <delegate_traps+0x4e>
  assert(read_csr(medeleg) == exceptions);
    80003cb4:	30202773          	csrr	a4,medeleg
    80003cb8:	67ad                	lui	a5,0xb
    80003cba:	10978793          	addi	a5,a5,265 # b109 <elf_fpread-0x7fff4ef7>
    80003cbe:	04f71063          	bne	a4,a5,80003cfe <delegate_traps+0x76>
}
    80003cc2:	60a2                	ld	ra,8(sp)
    80003cc4:	0141                	addi	sp,sp,16
    80003cc6:	8082                	ret
    sprint("S mode is not supported.\n");
    80003cc8:	00005517          	auipc	a0,0x5
    80003ccc:	dd050513          	addi	a0,a0,-560 # 80008a98 <rfs_i_ops+0x1a08>
    80003cd0:	010010ef          	jal	ra,80004ce0 <sprint>
    return;
    80003cd4:	b7fd                	j	80003cc2 <delegate_traps+0x3a>
  assert(read_csr(mideleg) == interrupts);
    80003cd6:	00005697          	auipc	a3,0x5
    80003cda:	de268693          	addi	a3,a3,-542 # 80008ab8 <rfs_i_ops+0x1a28>
    80003cde:	04b00613          	li	a2,75
    80003ce2:	00005597          	auipc	a1,0x5
    80003ce6:	df658593          	addi	a1,a1,-522 # 80008ad8 <rfs_i_ops+0x1a48>
    80003cea:	00004517          	auipc	a0,0x4
    80003cee:	c7650513          	addi	a0,a0,-906 # 80007960 <rfs_i_ops+0x8d0>
    80003cf2:	7ef000ef          	jal	ra,80004ce0 <sprint>
    80003cf6:	6541                	lui	a0,0x10
    80003cf8:	157d                	addi	a0,a0,-1
    80003cfa:	006010ef          	jal	ra,80004d00 <poweroff>
  assert(read_csr(medeleg) == exceptions);
    80003cfe:	00005697          	auipc	a3,0x5
    80003d02:	df268693          	addi	a3,a3,-526 # 80008af0 <rfs_i_ops+0x1a60>
    80003d06:	04c00613          	li	a2,76
    80003d0a:	00005597          	auipc	a1,0x5
    80003d0e:	dce58593          	addi	a1,a1,-562 # 80008ad8 <rfs_i_ops+0x1a48>
    80003d12:	00004517          	auipc	a0,0x4
    80003d16:	c4e50513          	addi	a0,a0,-946 # 80007960 <rfs_i_ops+0x8d0>
    80003d1a:	7c7000ef          	jal	ra,80004ce0 <sprint>
    80003d1e:	6541                	lui	a0,0x10
    80003d20:	157d                	addi	a0,a0,-1
    80003d22:	7df000ef          	jal	ra,80004d00 <poweroff>

0000000080003d26 <init_dtb>:
void init_dtb(uint64 dtb) {
    80003d26:	1141                	addi	sp,sp,-16
    80003d28:	e406                	sd	ra,8(sp)
    80003d2a:	e022                	sd	s0,0(sp)
    80003d2c:	842a                	mv	s0,a0
  query_htif(dtb);
    80003d2e:	3d1000ef          	jal	ra,800048fe <query_htif>
  if (htif) sprint("HTIF is available!\r\n");
    80003d32:	0000c797          	auipc	a5,0xc
    80003d36:	53e7b783          	ld	a5,1342(a5) # 80010270 <htif>
    80003d3a:	e39d                	bnez	a5,80003d60 <init_dtb+0x3a>
  query_mem(dtb);
    80003d3c:	8522                	mv	a0,s0
    80003d3e:	601000ef          	jal	ra,80004b3e <query_mem>
  sprint("(Emulated) memory size: %ld MB\n", g_mem_size >> 20);
    80003d42:	0000c597          	auipc	a1,0xc
    80003d46:	5365b583          	ld	a1,1334(a1) # 80010278 <g_mem_size>
    80003d4a:	81d1                	srli	a1,a1,0x14
    80003d4c:	00005517          	auipc	a0,0x5
    80003d50:	ddc50513          	addi	a0,a0,-548 # 80008b28 <rfs_i_ops+0x1a98>
    80003d54:	78d000ef          	jal	ra,80004ce0 <sprint>
}
    80003d58:	60a2                	ld	ra,8(sp)
    80003d5a:	6402                	ld	s0,0(sp)
    80003d5c:	0141                	addi	sp,sp,16
    80003d5e:	8082                	ret
  if (htif) sprint("HTIF is available!\r\n");
    80003d60:	00005517          	auipc	a0,0x5
    80003d64:	db050513          	addi	a0,a0,-592 # 80008b10 <rfs_i_ops+0x1a80>
    80003d68:	779000ef          	jal	ra,80004ce0 <sprint>
    80003d6c:	bfc1                	j	80003d3c <init_dtb+0x16>

0000000080003d6e <timerinit>:
//
// enabling timer interrupt (irq) in Machine mode. added @lab1_3
//
void timerinit(uintptr_t hartid) {
  // fire timer irq after TIMER_INTERVAL from now.
  *(uint64*)CLINT_MTIMECMP(hartid) = *(uint64*)CLINT_MTIME + TIMER_INTERVAL;
    80003d6e:	0200c7b7          	lui	a5,0x200c
    80003d72:	ff87b783          	ld	a5,-8(a5) # 200bff8 <elf_fpread-0x7dff4008>
    80003d76:	00401737          	lui	a4,0x401
    80003d7a:	80070713          	addi	a4,a4,-2048 # 400800 <elf_fpread-0x7fbff800>
    80003d7e:	953a                	add	a0,a0,a4
    80003d80:	050e                	slli	a0,a0,0x3
    80003d82:	000f4737          	lui	a4,0xf4
    80003d86:	24070713          	addi	a4,a4,576 # f4240 <elf_fpread-0x7ff0bdc0>
    80003d8a:	97ba                	add	a5,a5,a4
    80003d8c:	e11c                	sd	a5,0(a0)

  // enable machine-mode timer irq in MIE (Machine Interrupt Enable) csr.
  write_csr(mie, read_csr(mie) | MIE_MTIE);
    80003d8e:	304027f3          	csrr	a5,mie
    80003d92:	0807e793          	ori	a5,a5,128
    80003d96:	30479073          	csrw	mie,a5
}
    80003d9a:	8082                	ret

0000000080003d9c <m_start>:

//
// m_start: machine mode C entry point.
//
void m_start(uintptr_t hartid, uintptr_t dtb) {
    80003d9c:	1101                	addi	sp,sp,-32
    80003d9e:	ec06                	sd	ra,24(sp)
    80003da0:	e822                	sd	s0,16(sp)
    80003da2:	e426                	sd	s1,8(sp)
    80003da4:	842a                	mv	s0,a0
    80003da6:	84ae                	mv	s1,a1
  // init the spike file interface (stdin,stdout,stderr)
  // functions with "spike_" prefix are all defined in codes under spike_interface/,
  // sprint is also defined in spike_interface/spike_utils.c
  spike_file_init();
    80003da8:	069000ef          	jal	ra,80004610 <spike_file_init>
  sprint("In m_start, hartid:%d\n", hartid);
    80003dac:	85a2                	mv	a1,s0
    80003dae:	00005517          	auipc	a0,0x5
    80003db2:	d9a50513          	addi	a0,a0,-614 # 80008b48 <rfs_i_ops+0x1ab8>
    80003db6:	72b000ef          	jal	ra,80004ce0 <sprint>

  // init HTIF (Host-Target InterFace) and memory by using the Device Table Blob (DTB)
  // init_dtb() is defined above.
  init_dtb(dtb);
    80003dba:	8526                	mv	a0,s1
    80003dbc:	f6bff0ef          	jal	ra,80003d26 <init_dtb>

  // save the address of trap frame for interrupt in M mode to "mscratch". added @lab1_2
  write_csr(mscratch, &g_itrframe);
    80003dc0:	0000b797          	auipc	a5,0xb
    80003dc4:	ef078793          	addi	a5,a5,-272 # 8000ecb0 <g_itrframe>
    80003dc8:	34079073          	csrw	mscratch,a5

  // set previous privilege mode to S (Supervisor), and will enter S mode after 'mret'
  // write_csr is a macro defined in kernel/riscv.h
  write_csr(mstatus, ((read_csr(mstatus) & ~MSTATUS_MPP_MASK) | MSTATUS_MPP_S));
    80003dcc:	300027f3          	csrr	a5,mstatus
    80003dd0:	7779                	lui	a4,0xffffe
    80003dd2:	7ff70713          	addi	a4,a4,2047 # ffffffffffffe7ff <_end+0xffffffff7ffed7ff>
    80003dd6:	8ff9                	and	a5,a5,a4
    80003dd8:	6705                	lui	a4,0x1
    80003dda:	80070713          	addi	a4,a4,-2048 # 800 <elf_fpread-0x7ffff800>
    80003dde:	8fd9                	or	a5,a5,a4
    80003de0:	30079073          	csrw	mstatus,a5

  // set M Exception Program Counter to sstart, for mret (requires gcc -mcmodel=medany)
  write_csr(mepc, (uint64)s_start);
    80003de4:	ffffd797          	auipc	a5,0xffffd
    80003de8:	8f678793          	addi	a5,a5,-1802 # 800006da <s_start>
    80003dec:	34179073          	csrw	mepc,a5

  // setup trap handling vector for machine mode. added @lab1_2
  write_csr(mtvec, (uint64)mtrapvec);
    80003df0:	00000797          	auipc	a5,0x0
    80003df4:	16078793          	addi	a5,a5,352 # 80003f50 <mtrapvec>
    80003df8:	30579073          	csrw	mtvec,a5

  // enable machine-mode interrupts. added @lab1_3
  write_csr(mstatus, read_csr(mstatus) | MSTATUS_MIE);
    80003dfc:	300027f3          	csrr	a5,mstatus
    80003e00:	0087e793          	ori	a5,a5,8
    80003e04:	30079073          	csrw	mstatus,a5

  // delegate all interrupts and exceptions to supervisor mode.
  // delegate_traps() is defined above.
  delegate_traps();
    80003e08:	e81ff0ef          	jal	ra,80003c88 <delegate_traps>

  // also enables interrupt handling in supervisor mode. added @lab1_3
  write_csr(sie, read_csr(sie) | SIE_SEIE | SIE_STIE | SIE_SSIE);
    80003e0c:	104027f3          	csrr	a5,sie
    80003e10:	2227e793          	ori	a5,a5,546
    80003e14:	10479073          	csrw	sie,a5

  // init timing. added @lab1_3
  timerinit(hartid);
    80003e18:	8522                	mv	a0,s0
    80003e1a:	f55ff0ef          	jal	ra,80003d6e <timerinit>

  // switch to supervisor mode (S mode) and jump to s_start(), i.e., set pc to mepc
  asm volatile("mret");
    80003e1e:	30200073          	mret
}
    80003e22:	60e2                	ld	ra,24(sp)
    80003e24:	6442                	ld	s0,16(sp)
    80003e26:	64a2                	ld	s1,8(sp)
    80003e28:	6105                	addi	sp,sp,32
    80003e2a:	8082                	ret

0000000080003e2c <handle_timer>:

// added @lab1_3
static void handle_timer() {
  int cpuid = 0;
  // setup the timer fired at next time (TIMER_INTERVAL from now)
  *(uint64*)CLINT_MTIMECMP(cpuid) = *(uint64*)CLINT_MTIMECMP(cpuid) + TIMER_INTERVAL;
    80003e2c:	020046b7          	lui	a3,0x2004
    80003e30:	629c                	ld	a5,0(a3)
    80003e32:	000f4737          	lui	a4,0xf4
    80003e36:	24070713          	addi	a4,a4,576 # f4240 <elf_fpread-0x7ff0bdc0>
    80003e3a:	97ba                	add	a5,a5,a4
    80003e3c:	e29c                	sd	a5,0(a3)

  // setup a soft interrupt in sip (S-mode Interrupt Pending) to be handled in S-mode
  write_csr(sip, SIP_SSIP);
    80003e3e:	14415073          	csrwi	sip,2
}
    80003e42:	8082                	ret

0000000080003e44 <handle_instruction_access_fault>:
static void handle_instruction_access_fault() { panic("Instruction access fault!"); }
    80003e44:	1141                	addi	sp,sp,-16
    80003e46:	e406                	sd	ra,8(sp)
    80003e48:	00005517          	auipc	a0,0x5
    80003e4c:	d1850513          	addi	a0,a0,-744 # 80008b60 <rfs_i_ops+0x1ad0>
    80003e50:	735000ef          	jal	ra,80004d84 <do_panic>

0000000080003e54 <handle_load_access_fault>:
static void handle_load_access_fault() { panic("Load access fault!"); }
    80003e54:	1141                	addi	sp,sp,-16
    80003e56:	e406                	sd	ra,8(sp)
    80003e58:	00005517          	auipc	a0,0x5
    80003e5c:	d2850513          	addi	a0,a0,-728 # 80008b80 <rfs_i_ops+0x1af0>
    80003e60:	725000ef          	jal	ra,80004d84 <do_panic>

0000000080003e64 <handle_store_access_fault>:
static void handle_store_access_fault() { panic("Store/AMO access fault!"); }
    80003e64:	1141                	addi	sp,sp,-16
    80003e66:	e406                	sd	ra,8(sp)
    80003e68:	00005517          	auipc	a0,0x5
    80003e6c:	d3050513          	addi	a0,a0,-720 # 80008b98 <rfs_i_ops+0x1b08>
    80003e70:	715000ef          	jal	ra,80004d84 <do_panic>

0000000080003e74 <handle_illegal_instruction>:
static void handle_illegal_instruction() { panic("Illegal instruction!"); }
    80003e74:	1141                	addi	sp,sp,-16
    80003e76:	e406                	sd	ra,8(sp)
    80003e78:	00005517          	auipc	a0,0x5
    80003e7c:	d4050513          	addi	a0,a0,-704 # 80008bb8 <rfs_i_ops+0x1b28>
    80003e80:	705000ef          	jal	ra,80004d84 <do_panic>

0000000080003e84 <handle_misaligned_load>:
static void handle_misaligned_load() { panic("Misaligned Load!"); }
    80003e84:	1141                	addi	sp,sp,-16
    80003e86:	e406                	sd	ra,8(sp)
    80003e88:	00005517          	auipc	a0,0x5
    80003e8c:	d4850513          	addi	a0,a0,-696 # 80008bd0 <rfs_i_ops+0x1b40>
    80003e90:	6f5000ef          	jal	ra,80004d84 <do_panic>

0000000080003e94 <handle_misaligned_store>:
static void handle_misaligned_store() { panic("Misaligned AMO!"); }
    80003e94:	1141                	addi	sp,sp,-16
    80003e96:	e406                	sd	ra,8(sp)
    80003e98:	00005517          	auipc	a0,0x5
    80003e9c:	d5050513          	addi	a0,a0,-688 # 80008be8 <rfs_i_ops+0x1b58>
    80003ea0:	6e5000ef          	jal	ra,80004d84 <do_panic>

0000000080003ea4 <handle_mtrap>:

//
// handle_mtrap calls a handling function according to the type of a machine mode interrupt (trap).
//
void handle_mtrap() {
    80003ea4:	1141                	addi	sp,sp,-16
    80003ea6:	e406                	sd	ra,8(sp)
  uint64 mcause = read_csr(mcause);
    80003ea8:	342025f3          	csrr	a1,mcause
  switch (mcause) {
    80003eac:	479d                	li	a5,7
    80003eae:	00b7fc63          	bgeu	a5,a1,80003ec6 <handle_mtrap+0x22>
    80003eb2:	57fd                	li	a5,-1
    80003eb4:	17fe                	slli	a5,a5,0x3f
    80003eb6:	079d                	addi	a5,a5,7
    80003eb8:	00f59863          	bne	a1,a5,80003ec8 <handle_mtrap+0x24>
    case CAUSE_MTIMER:
      handle_timer();
    80003ebc:	f71ff0ef          	jal	ra,80003e2c <handle_timer>
      sprint("machine trap(): unexpected mscause %p\n", mcause);
      sprint("            mepc=%p mtval=%p\n", read_csr(mepc), read_csr(mtval));
      panic( "unexpected exception happened in M-mode.\n" );
      break;
  }
}
    80003ec0:	60a2                	ld	ra,8(sp)
    80003ec2:	0141                	addi	sp,sp,16
    80003ec4:	8082                	ret
  switch (mcause) {
    80003ec6:	e59d                	bnez	a1,80003ef4 <handle_mtrap+0x50>
      sprint("machine trap(): unexpected mscause %p\n", mcause);
    80003ec8:	00005517          	auipc	a0,0x5
    80003ecc:	d3850513          	addi	a0,a0,-712 # 80008c00 <rfs_i_ops+0x1b70>
    80003ed0:	611000ef          	jal	ra,80004ce0 <sprint>
      sprint("            mepc=%p mtval=%p\n", read_csr(mepc), read_csr(mtval));
    80003ed4:	341025f3          	csrr	a1,mepc
    80003ed8:	34302673          	csrr	a2,mtval
    80003edc:	00005517          	auipc	a0,0x5
    80003ee0:	d4c50513          	addi	a0,a0,-692 # 80008c28 <rfs_i_ops+0x1b98>
    80003ee4:	5fd000ef          	jal	ra,80004ce0 <sprint>
      panic( "unexpected exception happened in M-mode.\n" );
    80003ee8:	00005517          	auipc	a0,0x5
    80003eec:	d6050513          	addi	a0,a0,-672 # 80008c48 <rfs_i_ops+0x1bb8>
    80003ef0:	695000ef          	jal	ra,80004d84 <do_panic>
  switch (mcause) {
    80003ef4:	fcb7eae3          	bltu	a5,a1,80003ec8 <handle_mtrap+0x24>
    80003ef8:	00259793          	slli	a5,a1,0x2
    80003efc:	00003717          	auipc	a4,0x3
    80003f00:	2a470713          	addi	a4,a4,676 # 800071a0 <rfs_i_ops+0x110>
    80003f04:	97ba                	add	a5,a5,a4
    80003f06:	439c                	lw	a5,0(a5)
    80003f08:	97ba                	add	a5,a5,a4
    80003f0a:	8782                	jr	a5
      handle_instruction_access_fault();
    80003f0c:	f39ff0ef          	jal	ra,80003e44 <handle_instruction_access_fault>
      handle_load_access_fault();
    80003f10:	f45ff0ef          	jal	ra,80003e54 <handle_load_access_fault>
      handle_store_access_fault();
    80003f14:	f51ff0ef          	jal	ra,80003e64 <handle_store_access_fault>
      handle_illegal_instruction();
    80003f18:	f5dff0ef          	jal	ra,80003e74 <handle_illegal_instruction>
      handle_misaligned_load();
    80003f1c:	f69ff0ef          	jal	ra,80003e84 <handle_misaligned_load>
      handle_misaligned_store();
    80003f20:	f75ff0ef          	jal	ra,80003e94 <handle_misaligned_store>

0000000080003f24 <_mentry>:
#

.globl _mentry
_mentry:
    # [mscratch] = 0; mscratch points the stack bottom of machine mode computer
    csrw mscratch, x0
    80003f24:	34001073          	csrw	mscratch,zero

    # following codes allocate a 4096-byte stack for each HART, although we use only
    # ONE HART in this lab.
    la sp, stack0		# stack0 is statically defined in kernel/machine/minit.c 
    80003f28:	0000b117          	auipc	sp,0xb
    80003f2c:	e8810113          	addi	sp,sp,-376 # 8000edb0 <stack0>
    li a3, 4096			# 4096-byte stack
    80003f30:	6685                	lui	a3,0x1
    csrr a4, mhartid	# [mhartid] = core ID
    80003f32:	f1402773          	csrr	a4,mhartid
    addi a4, a4, 1
    80003f36:	0705                	addi	a4,a4,1
    mul a3, a3, a4
    80003f38:	02e686b3          	mul	a3,a3,a4
    add sp, sp, a3		# re-arrange the stack points so that they don't overlap
    80003f3c:	9136                	add	sp,sp,a3

    # jump to mstart(), i.e., machine state start function in kernel/machine/minit.c
    call m_start
    80003f3e:	e5fff0ef          	jal	ra,80003d9c <m_start>
	...

0000000080003f50 <mtrapvec>:
.align 4
mtrapvec:
    # mscratch -> g_itrframe (cf. kernel/machine/minit.c line 94)
    # swap a0 and mscratch, so that a0 points to interrupt frame,
    # i.e., [a0] = &g_itrframe
    csrrw a0, mscratch, a0
    80003f50:	34051573          	csrrw	a0,mscratch,a0

    # save the registers in g_itrframe
    addi t6, a0, 0
    80003f54:	8faa                	mv	t6,a0
    store_all_registers
    80003f56:	001fb023          	sd	ra,0(t6)
    80003f5a:	002fb423          	sd	sp,8(t6)
    80003f5e:	003fb823          	sd	gp,16(t6)
    80003f62:	004fbc23          	sd	tp,24(t6)
    80003f66:	025fb023          	sd	t0,32(t6)
    80003f6a:	026fb423          	sd	t1,40(t6)
    80003f6e:	027fb823          	sd	t2,48(t6)
    80003f72:	028fbc23          	sd	s0,56(t6)
    80003f76:	049fb023          	sd	s1,64(t6)
    80003f7a:	04afb423          	sd	a0,72(t6)
    80003f7e:	04bfb823          	sd	a1,80(t6)
    80003f82:	04cfbc23          	sd	a2,88(t6)
    80003f86:	06dfb023          	sd	a3,96(t6)
    80003f8a:	06efb423          	sd	a4,104(t6)
    80003f8e:	06ffb823          	sd	a5,112(t6)
    80003f92:	070fbc23          	sd	a6,120(t6)
    80003f96:	091fb023          	sd	a7,128(t6)
    80003f9a:	092fb423          	sd	s2,136(t6)
    80003f9e:	093fb823          	sd	s3,144(t6)
    80003fa2:	094fbc23          	sd	s4,152(t6)
    80003fa6:	0b5fb023          	sd	s5,160(t6)
    80003faa:	0b6fb423          	sd	s6,168(t6)
    80003fae:	0b7fb823          	sd	s7,176(t6)
    80003fb2:	0b8fbc23          	sd	s8,184(t6)
    80003fb6:	0d9fb023          	sd	s9,192(t6)
    80003fba:	0dafb423          	sd	s10,200(t6)
    80003fbe:	0dbfb823          	sd	s11,208(t6)
    80003fc2:	0dcfbc23          	sd	t3,216(t6)
    80003fc6:	0fdfb023          	sd	t4,224(t6)
    80003fca:	0fefb423          	sd	t5,232(t6)
    80003fce:	0fffb823          	sd	t6,240(t6)
    # save the original content of a0 in g_itrframe
    csrr t0, mscratch
    80003fd2:	340022f3          	csrr	t0,mscratch
    sd t0, 72(a0)
    80003fd6:	04553423          	sd	t0,72(a0)

    # switch stack (to use stack0) for the rest of machine mode
    # trap handling.
    la sp, stack0
    80003fda:	0000b117          	auipc	sp,0xb
    80003fde:	dd610113          	addi	sp,sp,-554 # 8000edb0 <stack0>
    li a3, 4096
    80003fe2:	6685                	lui	a3,0x1
    csrr a4, mhartid
    80003fe4:	f1402773          	csrr	a4,mhartid
    addi a4, a4, 1
    80003fe8:	0705                	addi	a4,a4,1
    mul a3, a3, a4
    80003fea:	02e686b3          	mul	a3,a3,a4
    add sp, sp, a3
    80003fee:	9136                	add	sp,sp,a3

    # pointing mscratch back to g_itrframe
    csrw mscratch, a0
    80003ff0:	34051073          	csrw	mscratch,a0

    # call machine mode trap handling function
    call handle_mtrap
    80003ff4:	eb1ff0ef          	jal	ra,80003ea4 <handle_mtrap>

    # restore all registers, come back to the status before entering
    # machine mode handling.
    csrr t6, mscratch
    80003ff8:	34002ff3          	csrr	t6,mscratch
    restore_all_registers
    80003ffc:	000fb083          	ld	ra,0(t6)
    80004000:	008fb103          	ld	sp,8(t6)
    80004004:	010fb183          	ld	gp,16(t6)
    80004008:	018fb203          	ld	tp,24(t6)
    8000400c:	020fb283          	ld	t0,32(t6)
    80004010:	028fb303          	ld	t1,40(t6)
    80004014:	030fb383          	ld	t2,48(t6)
    80004018:	038fb403          	ld	s0,56(t6)
    8000401c:	040fb483          	ld	s1,64(t6)
    80004020:	048fb503          	ld	a0,72(t6)
    80004024:	050fb583          	ld	a1,80(t6)
    80004028:	058fb603          	ld	a2,88(t6)
    8000402c:	060fb683          	ld	a3,96(t6)
    80004030:	068fb703          	ld	a4,104(t6)
    80004034:	070fb783          	ld	a5,112(t6)
    80004038:	078fb803          	ld	a6,120(t6)
    8000403c:	080fb883          	ld	a7,128(t6)
    80004040:	088fb903          	ld	s2,136(t6)
    80004044:	090fb983          	ld	s3,144(t6)
    80004048:	098fba03          	ld	s4,152(t6)
    8000404c:	0a0fba83          	ld	s5,160(t6)
    80004050:	0a8fbb03          	ld	s6,168(t6)
    80004054:	0b0fbb83          	ld	s7,176(t6)
    80004058:	0b8fbc03          	ld	s8,184(t6)
    8000405c:	0c0fbc83          	ld	s9,192(t6)
    80004060:	0c8fbd03          	ld	s10,200(t6)
    80004064:	0d0fbd83          	ld	s11,208(t6)
    80004068:	0d8fbe03          	ld	t3,216(t6)
    8000406c:	0e0fbe83          	ld	t4,224(t6)
    80004070:	0e8fbf03          	ld	t5,232(t6)
    80004074:	0f0fbf83          	ld	t6,240(t6)

    mret
    80004078:	30200073          	mret
    8000407c:	0000                	unimp
	...

0000000080004080 <default_equal>:
#include "util/hash_table.h"
#include "util/types.h"
#include "kernel/pmm.h"

static int default_equal(void *key1, void *key2) { return key1 == key2; }
    80004080:	8d0d                	sub	a0,a0,a1
    80004082:	00153513          	seqz	a0,a0
    80004086:	8082                	ret

0000000080004088 <defalut_get>:
  node->next = head->next;
  head->next = node;
  return 0;
}

static void *defalut_get(struct hash_table *hash_table, void *key) {
    80004088:	1101                	addi	sp,sp,-32
    8000408a:	ec06                	sd	ra,24(sp)
    8000408c:	e822                	sd	s0,16(sp)
    8000408e:	e426                	sd	s1,8(sp)
    80004090:	e04a                	sd	s2,0(sp)
    80004092:	84aa                	mv	s1,a0
    80004094:	892e                	mv	s2,a1
  size_t index = hash_table->virtual_hash_func(key);
    80004096:	6785                	lui	a5,0x1
    80004098:	97aa                	add	a5,a5,a0
    8000409a:	c087b783          	ld	a5,-1016(a5) # c08 <elf_fpread-0x7ffff3f8>
    8000409e:	852e                	mv	a0,a1
    800040a0:	9782                	jalr	a5
  struct hash_node *head = hash_table->head + index;
    800040a2:	00151793          	slli	a5,a0,0x1
    800040a6:	97aa                	add	a5,a5,a0
    800040a8:	078e                	slli	a5,a5,0x3
    800040aa:	97a6                	add	a5,a5,s1
  struct hash_node *node = head->next;
    800040ac:	6380                	ld	s0,0(a5)
  while (node) {
    800040ae:	a011                	j	800040b2 <defalut_get+0x2a>
    if (hash_table->virtual_hash_equal(node->key, key)) return node->value;
    node = node->next;
    800040b0:	6000                	ld	s0,0(s0)
  while (node) {
    800040b2:	c811                	beqz	s0,800040c6 <defalut_get+0x3e>
    if (hash_table->virtual_hash_equal(node->key, key)) return node->value;
    800040b4:	6785                	lui	a5,0x1
    800040b6:	97a6                	add	a5,a5,s1
    800040b8:	c007b783          	ld	a5,-1024(a5) # c00 <elf_fpread-0x7ffff400>
    800040bc:	85ca                	mv	a1,s2
    800040be:	6408                	ld	a0,8(s0)
    800040c0:	9782                	jalr	a5
    800040c2:	d57d                	beqz	a0,800040b0 <defalut_get+0x28>
    800040c4:	6800                	ld	s0,16(s0)
  }
  return NULL;
}
    800040c6:	8522                	mv	a0,s0
    800040c8:	60e2                	ld	ra,24(sp)
    800040ca:	6442                	ld	s0,16(sp)
    800040cc:	64a2                	ld	s1,8(sp)
    800040ce:	6902                	ld	s2,0(sp)
    800040d0:	6105                	addi	sp,sp,32
    800040d2:	8082                	ret

00000000800040d4 <default_erase>:

static int default_erase(struct hash_table *hash_table, void *key) {
    800040d4:	1101                	addi	sp,sp,-32
    800040d6:	ec06                	sd	ra,24(sp)
    800040d8:	e822                	sd	s0,16(sp)
    800040da:	e426                	sd	s1,8(sp)
    800040dc:	e04a                	sd	s2,0(sp)
    800040de:	84aa                	mv	s1,a0
    800040e0:	892e                	mv	s2,a1
  size_t index = hash_table->virtual_hash_func(key);
    800040e2:	6785                	lui	a5,0x1
    800040e4:	97aa                	add	a5,a5,a0
    800040e6:	c087b783          	ld	a5,-1016(a5) # c08 <elf_fpread-0x7ffff3f8>
    800040ea:	852e                	mv	a0,a1
    800040ec:	9782                	jalr	a5
  struct hash_node *head = hash_table->head + index;
    800040ee:	00151413          	slli	s0,a0,0x1
    800040f2:	942a                	add	s0,s0,a0
    800040f4:	040e                	slli	s0,s0,0x3
    800040f6:	9426                	add	s0,s0,s1
  while (head->next && !hash_table->virtual_hash_equal(head->next->key, key))
    800040f8:	a011                	j	800040fc <default_erase+0x28>
    head = head->next;
    800040fa:	6000                	ld	s0,0(s0)
  while (head->next && !hash_table->virtual_hash_equal(head->next->key, key))
    800040fc:	6018                	ld	a4,0(s0)
    800040fe:	cb09                	beqz	a4,80004110 <default_erase+0x3c>
    80004100:	6785                	lui	a5,0x1
    80004102:	97a6                	add	a5,a5,s1
    80004104:	c007b783          	ld	a5,-1024(a5) # c00 <elf_fpread-0x7ffff400>
    80004108:	85ca                	mv	a1,s2
    8000410a:	6708                	ld	a0,8(a4)
    8000410c:	9782                	jalr	a5
    8000410e:	d575                	beqz	a0,800040fa <default_erase+0x26>
  if (head->next) {
    80004110:	6008                	ld	a0,0(s0)
    80004112:	cd01                	beqz	a0,8000412a <default_erase+0x56>
    struct hash_node *node = head->next;
    head->next = node->next;
    80004114:	611c                	ld	a5,0(a0)
    80004116:	e01c                	sd	a5,0(s0)
    free_page(node);
    80004118:	e16fc0ef          	jal	ra,8000072e <free_page>
    return 0;
    8000411c:	4501                	li	a0,0
  } else
    return -1;
}
    8000411e:	60e2                	ld	ra,24(sp)
    80004120:	6442                	ld	s0,16(sp)
    80004122:	64a2                	ld	s1,8(sp)
    80004124:	6902                	ld	s2,0(sp)
    80004126:	6105                	addi	sp,sp,32
    80004128:	8082                	ret
    return -1;
    8000412a:	557d                	li	a0,-1
    8000412c:	bfcd                	j	8000411e <default_erase+0x4a>

000000008000412e <default_put>:
static int default_put(struct hash_table *hash_table, void *key, void *value) {
    8000412e:	7179                	addi	sp,sp,-48
    80004130:	f406                	sd	ra,40(sp)
    80004132:	f022                	sd	s0,32(sp)
    80004134:	ec26                	sd	s1,24(sp)
    80004136:	e84a                	sd	s2,16(sp)
    80004138:	e44e                	sd	s3,8(sp)
    8000413a:	842a                	mv	s0,a0
    8000413c:	892e                	mv	s2,a1
    8000413e:	89b2                	mv	s3,a2
  struct hash_node *node = (struct hash_node *)alloc_page();
    80004140:	e64fc0ef          	jal	ra,800007a4 <alloc_page>
    80004144:	84aa                	mv	s1,a0
  if (hash_table->virtual_hash_get(hash_table, key) != NULL) return -1;
    80004146:	6785                	lui	a5,0x1
    80004148:	97a2                	add	a5,a5,s0
    8000414a:	c187b783          	ld	a5,-1000(a5) # c18 <elf_fpread-0x7ffff3e8>
    8000414e:	85ca                	mv	a1,s2
    80004150:	8522                	mv	a0,s0
    80004152:	9782                	jalr	a5
    80004154:	e91d                	bnez	a0,8000418a <default_put+0x5c>
  node->key = key;
    80004156:	0124b423          	sd	s2,8(s1)
  node->value = value;
    8000415a:	0134b823          	sd	s3,16(s1)
  size_t index = hash_table->virtual_hash_func(key);
    8000415e:	6785                	lui	a5,0x1
    80004160:	97a2                	add	a5,a5,s0
    80004162:	c087b783          	ld	a5,-1016(a5) # c08 <elf_fpread-0x7ffff3f8>
    80004166:	854a                	mv	a0,s2
    80004168:	9782                	jalr	a5
  struct hash_node *head = hash_table->head + index;
    8000416a:	00151793          	slli	a5,a0,0x1
    8000416e:	953e                	add	a0,a0,a5
    80004170:	050e                	slli	a0,a0,0x3
    80004172:	942a                	add	s0,s0,a0
  node->next = head->next;
    80004174:	601c                	ld	a5,0(s0)
    80004176:	e09c                	sd	a5,0(s1)
  head->next = node;
    80004178:	e004                	sd	s1,0(s0)
  return 0;
    8000417a:	4501                	li	a0,0
}
    8000417c:	70a2                	ld	ra,40(sp)
    8000417e:	7402                	ld	s0,32(sp)
    80004180:	64e2                	ld	s1,24(sp)
    80004182:	6942                	ld	s2,16(sp)
    80004184:	69a2                	ld	s3,8(sp)
    80004186:	6145                	addi	sp,sp,48
    80004188:	8082                	ret
  if (hash_table->virtual_hash_get(hash_table, key) != NULL) return -1;
    8000418a:	557d                	li	a0,-1
    8000418c:	bfc5                	j	8000417c <default_put+0x4e>

000000008000418e <hash_table_init>:
                   int (*equal)(void *key1, void *key2),
                   size_t (*func)(void *key),
                   int (*put)(struct hash_table *hash_table, void *key, void *value),
                   void *(*get)(struct hash_table *hash_table, void *key),
                   int (*erase)(struct hash_table *hash_table, void *key)) {
  for (int i = 0; i < HASH_TABLE_SIZE; i++) list->head[i].next = NULL;
    8000418e:	4881                	li	a7,0
    80004190:	a809                	j	800041a2 <hash_table_init+0x14>
    80004192:	00189813          	slli	a6,a7,0x1
    80004196:	9846                	add	a6,a6,a7
    80004198:	080e                	slli	a6,a6,0x3
    8000419a:	982a                	add	a6,a6,a0
    8000419c:	00083023          	sd	zero,0(a6)
    800041a0:	2885                	addiw	a7,a7,1
    800041a2:	07f00813          	li	a6,127
    800041a6:	ff1856e3          	bge	a6,a7,80004192 <hash_table_init+0x4>
  if (func == NULL) return -1;
    800041aa:	ce39                	beqz	a2,80004208 <hash_table_init+0x7a>
  list->virtual_hash_func = func;
    800041ac:	6805                	lui	a6,0x1
    800041ae:	982a                	add	a6,a6,a0
    800041b0:	c0c83423          	sd	a2,-1016(a6) # c08 <elf_fpread-0x7ffff3f8>
  list->virtual_hash_equal = equal ? equal : default_equal;
    800041b4:	c595                	beqz	a1,800041e0 <hash_table_init+0x52>
    800041b6:	6605                	lui	a2,0x1
    800041b8:	962a                	add	a2,a2,a0
    800041ba:	c0b63023          	sd	a1,-1024(a2) # c00 <elf_fpread-0x7ffff400>
  list->virtual_hash_put = put ? put : default_put;
    800041be:	c695                	beqz	a3,800041ea <hash_table_init+0x5c>
    800041c0:	6605                	lui	a2,0x1
    800041c2:	962a                	add	a2,a2,a0
    800041c4:	c0d63823          	sd	a3,-1008(a2) # c10 <elf_fpread-0x7ffff3f0>
  list->virtual_hash_get = get ? get : defalut_get;
    800041c8:	c715                	beqz	a4,800041f4 <hash_table_init+0x66>
    800041ca:	6685                	lui	a3,0x1
    800041cc:	96aa                	add	a3,a3,a0
    800041ce:	c0e6bc23          	sd	a4,-1000(a3) # c18 <elf_fpread-0x7ffff3e8>
  list->virtual_hash_erase = erase ? erase : default_erase;
    800041d2:	c795                	beqz	a5,800041fe <hash_table_init+0x70>
    800041d4:	6705                	lui	a4,0x1
    800041d6:	953a                	add	a0,a0,a4
    800041d8:	c2f53023          	sd	a5,-992(a0)
  return 0;
    800041dc:	4501                	li	a0,0
    800041de:	8082                	ret
  list->virtual_hash_equal = equal ? equal : default_equal;
    800041e0:	00000597          	auipc	a1,0x0
    800041e4:	ea058593          	addi	a1,a1,-352 # 80004080 <default_equal>
    800041e8:	b7f9                	j	800041b6 <hash_table_init+0x28>
  list->virtual_hash_put = put ? put : default_put;
    800041ea:	00000697          	auipc	a3,0x0
    800041ee:	f4468693          	addi	a3,a3,-188 # 8000412e <default_put>
    800041f2:	b7f9                	j	800041c0 <hash_table_init+0x32>
  list->virtual_hash_get = get ? get : defalut_get;
    800041f4:	00000717          	auipc	a4,0x0
    800041f8:	e9470713          	addi	a4,a4,-364 # 80004088 <defalut_get>
    800041fc:	b7f9                	j	800041ca <hash_table_init+0x3c>
  list->virtual_hash_erase = erase ? erase : default_erase;
    800041fe:	00000797          	auipc	a5,0x0
    80004202:	ed678793          	addi	a5,a5,-298 # 800040d4 <default_erase>
    80004206:	b7f9                	j	800041d4 <hash_table_init+0x46>
  if (func == NULL) return -1;
    80004208:	557d                	li	a0,-1
    8000420a:	8082                	ret

000000008000420c <memcpy>:

void* memcpy(void* dest, const void* src, size_t len) {
  const char* s = src;
  char* d = dest;

  if ((((uintptr_t)dest | (uintptr_t)src) & (sizeof(uintptr_t) - 1)) == 0) {
    8000420c:	00a5e7b3          	or	a5,a1,a0
    80004210:	8b9d                	andi	a5,a5,7
    80004212:	c399                	beqz	a5,80004218 <memcpy+0xc>
  char* d = dest;
    80004214:	87aa                	mv	a5,a0
    80004216:	a015                	j	8000423a <memcpy+0x2e>
    80004218:	87aa                	mv	a5,a0
    while ((void*)d < (dest + len - (sizeof(uintptr_t) - 1))) {
    8000421a:	ff960713          	addi	a4,a2,-7
    8000421e:	972a                	add	a4,a4,a0
    80004220:	00e7fd63          	bgeu	a5,a4,8000423a <memcpy+0x2e>
      *(uintptr_t*)d = *(const uintptr_t*)s;
    80004224:	6198                	ld	a4,0(a1)
    80004226:	e398                	sd	a4,0(a5)
      d += sizeof(uintptr_t);
    80004228:	07a1                	addi	a5,a5,8
      s += sizeof(uintptr_t);
    8000422a:	05a1                	addi	a1,a1,8
    8000422c:	b7fd                	j	8000421a <memcpy+0xe>
    }
  }

  while (d < (char*)(dest + len)) *d++ = *s++;
    8000422e:	0005c703          	lbu	a4,0(a1)
    80004232:	00e78023          	sb	a4,0(a5)
    80004236:	0785                	addi	a5,a5,1
    80004238:	0585                	addi	a1,a1,1
    8000423a:	00c50733          	add	a4,a0,a2
    8000423e:	fee7e8e3          	bltu	a5,a4,8000422e <memcpy+0x22>

  return dest;
}
    80004242:	8082                	ret

0000000080004244 <memset>:

void* memset(void* dest, int byte, size_t len) {
  if ((((uintptr_t)dest | len) & (sizeof(uintptr_t) - 1)) == 0) {
    80004244:	00c567b3          	or	a5,a0,a2
    80004248:	8b9d                	andi	a5,a5,7
    8000424a:	ef8d                	bnez	a5,80004284 <memset+0x40>
    uintptr_t word = byte & 0xFF;
    8000424c:	0ff5f593          	zext.b	a1,a1
    word |= word << 8;
    80004250:	00859713          	slli	a4,a1,0x8
    80004254:	8f4d                	or	a4,a4,a1
    word |= word << 16;
    80004256:	01071793          	slli	a5,a4,0x10
    8000425a:	8fd9                	or	a5,a5,a4
    word |= word << 16 << 16;
    8000425c:	02079693          	slli	a3,a5,0x20
    80004260:	8edd                	or	a3,a3,a5

    uintptr_t* d = dest;
    80004262:	87aa                	mv	a5,a0
    while (d < (uintptr_t*)(dest + len)) *d++ = word;
    80004264:	a019                	j	8000426a <memset+0x26>
    80004266:	e394                	sd	a3,0(a5)
    80004268:	07a1                	addi	a5,a5,8
    8000426a:	00c50733          	add	a4,a0,a2
    8000426e:	fee7ece3          	bltu	a5,a4,80004266 <memset+0x22>
    80004272:	8082                	ret
  } else {
    char* d = dest;
    while (d < (char*)(dest + len)) *d++ = byte;
    80004274:	00b78023          	sb	a1,0(a5)
    80004278:	0785                	addi	a5,a5,1
    8000427a:	00c50733          	add	a4,a0,a2
    8000427e:	fee7ebe3          	bltu	a5,a4,80004274 <memset+0x30>
  }
  return dest;
}
    80004282:	8082                	ret
    char* d = dest;
    80004284:	87aa                	mv	a5,a0
    80004286:	bfd5                	j	8000427a <memset+0x36>

0000000080004288 <strlen>:

size_t strlen(const char* s) {
  const char* p = s;
    80004288:	87aa                	mv	a5,a0
  while (*p) p++;
    8000428a:	a011                	j	8000428e <strlen+0x6>
    8000428c:	0785                	addi	a5,a5,1
    8000428e:	0007c703          	lbu	a4,0(a5)
    80004292:	ff6d                	bnez	a4,8000428c <strlen+0x4>
  return p - s;
}
    80004294:	40a78533          	sub	a0,a5,a0
    80004298:	8082                	ret

000000008000429a <strcmp>:

int strcmp(const char* s1, const char* s2) {
  unsigned char c1, c2;

  do {
    c1 = *s1++;
    8000429a:	00054703          	lbu	a4,0(a0)
    8000429e:	0505                	addi	a0,a0,1
    c2 = *s2++;
    800042a0:	0005c783          	lbu	a5,0(a1)
    800042a4:	0585                	addi	a1,a1,1
  } while (c1 != 0 && c1 == c2);
    800042a6:	c319                	beqz	a4,800042ac <strcmp+0x12>
    800042a8:	fef709e3          	beq	a4,a5,8000429a <strcmp>

  return c1 - c2;
}
    800042ac:	40f7053b          	subw	a0,a4,a5
    800042b0:	8082                	ret

00000000800042b2 <strcpy>:

char* strcpy(char* dest, const char* src) {
  char* d = dest;
    800042b2:	86aa                	mv	a3,a0
  while ((*d++ = *src++))
    800042b4:	0005c703          	lbu	a4,0(a1)
    800042b8:	0585                	addi	a1,a1,1
    800042ba:	00e68023          	sb	a4,0(a3)
    800042be:	0685                	addi	a3,a3,1
    800042c0:	fb75                	bnez	a4,800042b4 <strcpy+0x2>
    ;
  return dest;
}
    800042c2:	8082                	ret

00000000800042c4 <strchr>:

char *strchr(const char *p, int ch)
{
	char c;
	c = ch;
    800042c4:	0ff5f593          	zext.b	a1,a1
    800042c8:	a011                	j	800042cc <strchr+0x8>
	for (;; ++p) {
    800042ca:	0505                	addi	a0,a0,1
		if (*p == c)
    800042cc:	00054783          	lbu	a5,0(a0)
    800042d0:	00b78463          	beq	a5,a1,800042d8 <strchr+0x14>
			return ((char *)p);
		if (*p == '\0')
    800042d4:	fbfd                	bnez	a5,800042ca <strchr+0x6>
			return (NULL);
    800042d6:	4501                	li	a0,0
	}
}
    800042d8:	8082                	ret

00000000800042da <strtok>:

char* strtok(char* str, const char* delim) {
    800042da:	7179                	addi	sp,sp,-48
    800042dc:	f406                	sd	ra,40(sp)
    800042de:	f022                	sd	s0,32(sp)
    800042e0:	ec26                	sd	s1,24(sp)
    800042e2:	e84a                	sd	s2,16(sp)
    800042e4:	e44e                	sd	s3,8(sp)
    800042e6:	89ae                	mv	s3,a1
  static char* current;
  if (str != NULL) current = str;
    800042e8:	c509                	beqz	a0,800042f2 <strtok+0x18>
    800042ea:	0000c797          	auipc	a5,0xc
    800042ee:	f6a7bb23          	sd	a0,-138(a5) # 80010260 <current.0>
  if (current == NULL) return NULL;
    800042f2:	0000c417          	auipc	s0,0xc
    800042f6:	f6e43403          	ld	s0,-146(s0) # 80010260 <current.0>
    800042fa:	e019                	bnez	s0,80004300 <strtok+0x26>
    800042fc:	a0b1                	j	80004348 <strtok+0x6e>

  char* start = current;
  while (*start != '\0' && strchr(delim, *start) != NULL) start++;
    800042fe:	0405                	addi	s0,s0,1
    80004300:	00044483          	lbu	s1,0(s0)
    80004304:	c491                	beqz	s1,80004310 <strtok+0x36>
    80004306:	85a6                	mv	a1,s1
    80004308:	854e                	mv	a0,s3
    8000430a:	fbbff0ef          	jal	ra,800042c4 <strchr>
    8000430e:	f965                	bnez	a0,800042fe <strtok+0x24>

  if (*start == '\0') {
    80004310:	cc89                	beqz	s1,8000432a <strtok+0x50>
    current = NULL;
    return current;
  }

  char* end = start;
    80004312:	84a2                	mv	s1,s0
  while (*end != '\0' && strchr(delim, *end) == NULL) end++;
    80004314:	0004c903          	lbu	s2,0(s1)
    80004318:	00090f63          	beqz	s2,80004336 <strtok+0x5c>
    8000431c:	85ca                	mv	a1,s2
    8000431e:	854e                	mv	a0,s3
    80004320:	fa5ff0ef          	jal	ra,800042c4 <strchr>
    80004324:	e909                	bnez	a0,80004336 <strtok+0x5c>
    80004326:	0485                	addi	s1,s1,1
    80004328:	b7f5                	j	80004314 <strtok+0x3a>
    current = NULL;
    8000432a:	0000c797          	auipc	a5,0xc
    8000432e:	f207bb23          	sd	zero,-202(a5) # 80010260 <current.0>
    return current;
    80004332:	4401                	li	s0,0
    80004334:	a811                	j	80004348 <strtok+0x6e>

  if (*end != '\0') {
    80004336:	02090163          	beqz	s2,80004358 <strtok+0x7e>
    *end = '\0';
    8000433a:	00048023          	sb	zero,0(s1)
    current = end + 1;
    8000433e:	0485                	addi	s1,s1,1
    80004340:	0000c797          	auipc	a5,0xc
    80004344:	f297b023          	sd	s1,-224(a5) # 80010260 <current.0>
  } else
    current = NULL;
  return start;
}
    80004348:	8522                	mv	a0,s0
    8000434a:	70a2                	ld	ra,40(sp)
    8000434c:	7402                	ld	s0,32(sp)
    8000434e:	64e2                	ld	s1,24(sp)
    80004350:	6942                	ld	s2,16(sp)
    80004352:	69a2                	ld	s3,8(sp)
    80004354:	6145                	addi	sp,sp,48
    80004356:	8082                	ret
    current = NULL;
    80004358:	0000c797          	auipc	a5,0xc
    8000435c:	f007b423          	sd	zero,-248(a5) # 80010260 <current.0>
    80004360:	b7e5                	j	80004348 <strtok+0x6e>

0000000080004362 <strcat>:

char *strcat(char *dst, const char *src) {
    80004362:	1101                	addi	sp,sp,-32
    80004364:	ec06                	sd	ra,24(sp)
    80004366:	e822                	sd	s0,16(sp)
    80004368:	e426                	sd	s1,8(sp)
    8000436a:	842a                	mv	s0,a0
    8000436c:	84ae                	mv	s1,a1
  strcpy(dst + strlen(dst), src);
    8000436e:	f1bff0ef          	jal	ra,80004288 <strlen>
    80004372:	85a6                	mv	a1,s1
    80004374:	9522                	add	a0,a0,s0
    80004376:	f3dff0ef          	jal	ra,800042b2 <strcpy>
  return dst;
}
    8000437a:	8522                	mv	a0,s0
    8000437c:	60e2                	ld	ra,24(sp)
    8000437e:	6442                	ld	s0,16(sp)
    80004380:	64a2                	ld	s1,8(sp)
    80004382:	6105                	addi	sp,sp,32
    80004384:	8082                	ret

0000000080004386 <atol>:

long atol(const char* str) {
    80004386:	87aa                	mv	a5,a0
  long res = 0;
  int sign = 0;

  while (*str == ' ') str++;
    80004388:	a011                	j	8000438c <atol+0x6>
    8000438a:	0785                	addi	a5,a5,1
    8000438c:	0007c703          	lbu	a4,0(a5)
    80004390:	02000693          	li	a3,32
    80004394:	fed70be3          	beq	a4,a3,8000438a <atol+0x4>

  if (*str == '-' || *str == '+') {
    80004398:	02d00693          	li	a3,45
    8000439c:	00d70863          	beq	a4,a3,800043ac <atol+0x26>
    800043a0:	02b00693          	li	a3,43
    800043a4:	00d70463          	beq	a4,a3,800043ac <atol+0x26>
  int sign = 0;
    800043a8:	4601                	li	a2,0
    800043aa:	a031                	j	800043b6 <atol+0x30>
    sign = *str == '-';
    800043ac:	fd370713          	addi	a4,a4,-45
    800043b0:	00173613          	seqz	a2,a4
    str++;
    800043b4:	0785                	addi	a5,a5,1
  int sign = 0;
    800043b6:	4501                	li	a0,0
    800043b8:	a811                	j	800043cc <atol+0x46>
  }

  while (*str) {
    res *= 10;
    800043ba:	00251713          	slli	a4,a0,0x2
    800043be:	972a                	add	a4,a4,a0
    800043c0:	0706                	slli	a4,a4,0x1
    res += *str++ - '0';
    800043c2:	0785                	addi	a5,a5,1
    800043c4:	fd06869b          	addiw	a3,a3,-48
    800043c8:	00e68533          	add	a0,a3,a4
  while (*str) {
    800043cc:	0007c683          	lbu	a3,0(a5)
    800043d0:	f6ed                	bnez	a3,800043ba <atol+0x34>
  }

  return sign ? -res : res;
    800043d2:	c219                	beqz	a2,800043d8 <atol+0x52>
    800043d4:	40a00533          	neg	a0,a0
}
    800043d8:	8082                	ret

00000000800043da <memmove>:
  const char* s;
  char* d;

  s = src;
  d = dst;
  if (s < d && s + n > d) {
    800043da:	02a5ff63          	bgeu	a1,a0,80004418 <memmove+0x3e>
    800043de:	00c587b3          	add	a5,a1,a2
    800043e2:	02f57d63          	bgeu	a0,a5,8000441c <memmove+0x42>
    s += n;
    d += n;
    800043e6:	00c50733          	add	a4,a0,a2
    while (n-- > 0) *--d = *--s;
    800043ea:	a801                	j	800043fa <memmove+0x20>
    800043ec:	17fd                	addi	a5,a5,-1
    800043ee:	177d                	addi	a4,a4,-1
    800043f0:	0007c603          	lbu	a2,0(a5)
    800043f4:	00c70023          	sb	a2,0(a4)
    800043f8:	8636                	mv	a2,a3
    800043fa:	fff60693          	addi	a3,a2,-1
    800043fe:	f67d                	bnez	a2,800043ec <memmove+0x12>
    80004400:	8082                	ret
  } else
    while (n-- > 0) *d++ = *s++;
    80004402:	0005c683          	lbu	a3,0(a1)
    80004406:	00d78023          	sb	a3,0(a5)
    8000440a:	0785                	addi	a5,a5,1
    8000440c:	0585                	addi	a1,a1,1
    8000440e:	863a                	mv	a2,a4
    80004410:	fff60713          	addi	a4,a2,-1
    80004414:	f67d                	bnez	a2,80004402 <memmove+0x28>

  return dst;
}
    80004416:	8082                	ret
    80004418:	87aa                	mv	a5,a0
    8000441a:	bfdd                	j	80004410 <memmove+0x36>
    8000441c:	87aa                	mv	a5,a0
    8000441e:	bfcd                	j	80004410 <memmove+0x36>

0000000080004420 <safestrcpy>:
// Like strncpy but guaranteed to NUL-terminate.
char* safestrcpy(char* s, const char* t, int n) {
  char* os;

  os = s;
  if (n <= 0) return os;
    80004420:	02c05563          	blez	a2,8000444a <safestrcpy+0x2a>
    80004424:	87aa                	mv	a5,a0
    80004426:	a019                	j	8000442c <safestrcpy+0xc>
  while (--n > 0 && (*s++ = *t++) != 0)
    80004428:	85c2                	mv	a1,a6
    8000442a:	87b6                	mv	a5,a3
    8000442c:	367d                	addiw	a2,a2,-1
    8000442e:	00c05c63          	blez	a2,80004446 <safestrcpy+0x26>
    80004432:	00158813          	addi	a6,a1,1
    80004436:	00178693          	addi	a3,a5,1
    8000443a:	0005c703          	lbu	a4,0(a1)
    8000443e:	00e78023          	sb	a4,0(a5)
    80004442:	f37d                	bnez	a4,80004428 <safestrcpy+0x8>
    80004444:	87b6                	mv	a5,a3
    ;
  *s = 0;
    80004446:	00078023          	sb	zero,0(a5)
  return os;
}
    8000444a:	8082                	ret

000000008000444c <spike_file_get_free>:
ssize_t spike_file_write(spike_file_t* f, const void* buf, size_t size) {
  return frontend_syscall(HTIFSYS_write, f->kfd, (uint64)buf, size, 0, 0, 0, 0);
}

static spike_file_t* spike_file_get_free(void) {
  for (spike_file_t* f = spike_files; f < spike_files + MAX_FILES; f++)
    8000444c:	00006517          	auipc	a0,0x6
    80004450:	bb450513          	addi	a0,a0,-1100 # 8000a000 <spike_files>
    80004454:	a019                	j	8000445a <spike_file_get_free+0xe>
    if (atomic_read(&f->refcnt) == 0 && atomic_cas(&f->refcnt, 0, INIT_FILE_REF) == 0)
    80004456:	c395                	beqz	a5,8000447a <spike_file_get_free+0x2e>
  for (spike_file_t* f = spike_files; f < spike_files + MAX_FILES; f++)
    80004458:	0521                	addi	a0,a0,8
    8000445a:	00006797          	auipc	a5,0x6
    8000445e:	fa678793          	addi	a5,a5,-90 # 8000a400 <spike_files+0x400>
    80004462:	00f57b63          	bgeu	a0,a5,80004478 <spike_file_get_free+0x2c>
    if (atomic_read(&f->refcnt) == 0 && atomic_cas(&f->refcnt, 0, INIT_FILE_REF) == 0)
    80004466:	415c                	lw	a5,4(a0)
    80004468:	2781                	sext.w	a5,a5
    8000446a:	f7fd                	bnez	a5,80004458 <spike_file_get_free+0xc>
    8000446c:	415c                	lw	a5,4(a0)
    8000446e:	2781                	sext.w	a5,a5
    80004470:	f3fd                	bnez	a5,80004456 <spike_file_get_free+0xa>
    80004472:	470d                	li	a4,3
    80004474:	c158                	sw	a4,4(a0)
    80004476:	b7c5                	j	80004456 <spike_file_get_free+0xa>
      return f;
  return NULL;
    80004478:	4501                	li	a0,0
}
    8000447a:	8082                	ret

000000008000447c <copy_stat>:
  dest->st_dev = src->dev;
    8000447c:	619c                	ld	a5,0(a1)
    8000447e:	00f51023          	sh	a5,0(a0)
  dest->st_ino = src->ino;
    80004482:	659c                	ld	a5,8(a1)
    80004484:	00f51123          	sh	a5,2(a0)
  dest->st_mode = src->mode;
    80004488:	499c                	lw	a5,16(a1)
    8000448a:	c15c                	sw	a5,4(a0)
  dest->st_nlink = src->nlink;
    8000448c:	49dc                	lw	a5,20(a1)
    8000448e:	00f51423          	sh	a5,8(a0)
  dest->st_uid = src->uid;
    80004492:	4d9c                	lw	a5,24(a1)
    80004494:	00f51523          	sh	a5,10(a0)
  dest->st_gid = src->gid;
    80004498:	4ddc                	lw	a5,28(a1)
    8000449a:	00f51623          	sh	a5,12(a0)
  dest->st_rdev = src->rdev;
    8000449e:	719c                	ld	a5,32(a1)
    800044a0:	00f51723          	sh	a5,14(a0)
  dest->st_size = src->size;
    800044a4:	799c                	ld	a5,48(a1)
    800044a6:	e91c                	sd	a5,16(a0)
  dest->st_blksize = src->blksize;
    800044a8:	0385e783          	lwu	a5,56(a1)
    800044ac:	e53c                	sd	a5,72(a0)
  dest->st_blocks = src->blocks;
    800044ae:	61bc                	ld	a5,64(a1)
    800044b0:	e93c                	sd	a5,80(a0)
  dest->st_atime = src->atime;
    800044b2:	65bc                	ld	a5,72(a1)
    800044b4:	ed1c                	sd	a5,24(a0)
  dest->st_mtime = src->mtime;
    800044b6:	6dbc                	ld	a5,88(a1)
    800044b8:	f51c                	sd	a5,40(a0)
  dest->st_ctime = src->ctime;
    800044ba:	75bc                	ld	a5,104(a1)
    800044bc:	fd1c                	sd	a5,56(a0)
}
    800044be:	8082                	ret

00000000800044c0 <spike_file_stat>:
int spike_file_stat(spike_file_t* f, struct stat* s) {
    800044c0:	7135                	addi	sp,sp,-160
    800044c2:	ed06                	sd	ra,152(sp)
    800044c4:	e922                	sd	s0,144(sp)
    800044c6:	e526                	sd	s1,136(sp)
    800044c8:	84ae                	mv	s1,a1
  long ret = frontend_syscall(HTIFSYS_fstat, f->kfd, (uint64)&buf, 0, 0, 0, 0, 0);
    800044ca:	4881                	li	a7,0
    800044cc:	4801                	li	a6,0
    800044ce:	4781                	li	a5,0
    800044d0:	4701                	li	a4,0
    800044d2:	4681                	li	a3,0
    800044d4:	860a                	mv	a2,sp
    800044d6:	410c                	lw	a1,0(a0)
    800044d8:	05000513          	li	a0,80
    800044dc:	700000ef          	jal	ra,80004bdc <frontend_syscall>
    800044e0:	842a                	mv	s0,a0
  copy_stat(s, &buf);
    800044e2:	858a                	mv	a1,sp
    800044e4:	8526                	mv	a0,s1
    800044e6:	f97ff0ef          	jal	ra,8000447c <copy_stat>
}
    800044ea:	0004051b          	sext.w	a0,s0
    800044ee:	60ea                	ld	ra,152(sp)
    800044f0:	644a                	ld	s0,144(sp)
    800044f2:	64aa                	ld	s1,136(sp)
    800044f4:	610d                	addi	sp,sp,160
    800044f6:	8082                	ret

00000000800044f8 <spike_file_decref>:
  if (atomic_add(&f->refcnt, -1) == 2) {
    800044f8:	415c                	lw	a5,4(a0)
    800044fa:	0007871b          	sext.w	a4,a5
    800044fe:	37fd                	addiw	a5,a5,-1
    80004500:	c15c                	sw	a5,4(a0)
    80004502:	4789                	li	a5,2
    80004504:	00f70363          	beq	a4,a5,8000450a <spike_file_decref+0x12>
    80004508:	8082                	ret
void spike_file_decref(spike_file_t* f) {
    8000450a:	1141                	addi	sp,sp,-16
    8000450c:	e406                	sd	ra,8(sp)
    int kfd = f->kfd;
    8000450e:	410c                	lw	a1,0(a0)
    mb();
    80004510:	0ff0000f          	fence
    atomic_set(&f->refcnt, 0);
    80004514:	00052223          	sw	zero,4(a0)
    frontend_syscall(HTIFSYS_close, kfd, 0, 0, 0, 0, 0, 0);
    80004518:	4881                	li	a7,0
    8000451a:	4801                	li	a6,0
    8000451c:	4781                	li	a5,0
    8000451e:	4701                	li	a4,0
    80004520:	4681                	li	a3,0
    80004522:	4601                	li	a2,0
    80004524:	03900513          	li	a0,57
    80004528:	6b4000ef          	jal	ra,80004bdc <frontend_syscall>
}
    8000452c:	60a2                	ld	ra,8(sp)
    8000452e:	0141                	addi	sp,sp,16
    80004530:	8082                	ret

0000000080004532 <spike_file_close>:
  if (!f) return -1;
    80004532:	c539                	beqz	a0,80004580 <spike_file_close+0x4e>
int spike_file_close(spike_file_t* f) {
    80004534:	1101                	addi	sp,sp,-32
    80004536:	ec06                	sd	ra,24(sp)
    80004538:	e822                	sd	s0,16(sp)
    8000453a:	e426                	sd	s1,8(sp)
    8000453c:	842a                	mv	s0,a0
  spike_file_t* old = atomic_cas(&spike_fds[f->kfd], f, 0);
    8000453e:	4118                	lw	a4,0(a0)
    80004540:	00371693          	slli	a3,a4,0x3
    80004544:	0000c797          	auipc	a5,0xc
    80004548:	86c78793          	addi	a5,a5,-1940 # 8000fdb0 <spike_fds>
    8000454c:	97b6                	add	a5,a5,a3
    8000454e:	6384                	ld	s1,0(a5)
    80004550:	02950063          	beq	a0,s1,80004570 <spike_file_close+0x3e>
  spike_file_decref(f);
    80004554:	8522                	mv	a0,s0
    80004556:	fa3ff0ef          	jal	ra,800044f8 <spike_file_decref>
  if (old != f) return -1;
    8000455a:	02941563          	bne	s0,s1,80004584 <spike_file_close+0x52>
  spike_file_decref(f);
    8000455e:	8522                	mv	a0,s0
    80004560:	f99ff0ef          	jal	ra,800044f8 <spike_file_decref>
  return 0;
    80004564:	4501                	li	a0,0
}
    80004566:	60e2                	ld	ra,24(sp)
    80004568:	6442                	ld	s0,16(sp)
    8000456a:	64a2                	ld	s1,8(sp)
    8000456c:	6105                	addi	sp,sp,32
    8000456e:	8082                	ret
  spike_file_t* old = atomic_cas(&spike_fds[f->kfd], f, 0);
    80004570:	0000c797          	auipc	a5,0xc
    80004574:	84078793          	addi	a5,a5,-1984 # 8000fdb0 <spike_fds>
    80004578:	97b6                	add	a5,a5,a3
    8000457a:	0007b023          	sd	zero,0(a5)
    8000457e:	bfd9                	j	80004554 <spike_file_close+0x22>
  if (!f) return -1;
    80004580:	557d                	li	a0,-1
}
    80004582:	8082                	ret
  if (old != f) return -1;
    80004584:	557d                	li	a0,-1
    80004586:	b7c5                	j	80004566 <spike_file_close+0x34>

0000000080004588 <spike_file_incref>:
  long prev = atomic_add(&f->refcnt, 1);
    80004588:	415c                	lw	a5,4(a0)
    8000458a:	0007871b          	sext.w	a4,a5
    8000458e:	2785                	addiw	a5,a5,1
    80004590:	c15c                	sw	a5,4(a0)
  kassert(prev > 0);
    80004592:	c311                	beqz	a4,80004596 <spike_file_incref+0xe>
    80004594:	8082                	ret
void spike_file_incref(spike_file_t* f) {
    80004596:	1141                	addi	sp,sp,-16
    80004598:	e406                	sd	ra,8(sp)
  kassert(prev > 0);
    8000459a:	00004517          	auipc	a0,0x4
    8000459e:	6de50513          	addi	a0,a0,1758 # 80008c78 <rfs_i_ops+0x1be8>
    800045a2:	003000ef          	jal	ra,80004da4 <kassert_fail>

00000000800045a6 <spike_file_write>:
ssize_t spike_file_write(spike_file_t* f, const void* buf, size_t size) {
    800045a6:	1141                	addi	sp,sp,-16
    800045a8:	e406                	sd	ra,8(sp)
    800045aa:	86b2                	mv	a3,a2
  return frontend_syscall(HTIFSYS_write, f->kfd, (uint64)buf, size, 0, 0, 0, 0);
    800045ac:	4881                	li	a7,0
    800045ae:	4801                	li	a6,0
    800045b0:	4781                	li	a5,0
    800045b2:	4701                	li	a4,0
    800045b4:	862e                	mv	a2,a1
    800045b6:	410c                	lw	a1,0(a0)
    800045b8:	04000513          	li	a0,64
    800045bc:	620000ef          	jal	ra,80004bdc <frontend_syscall>
}
    800045c0:	60a2                	ld	ra,8(sp)
    800045c2:	0141                	addi	sp,sp,16
    800045c4:	8082                	ret

00000000800045c6 <spike_file_dup>:

int spike_file_dup(spike_file_t* f) {
    800045c6:	1141                	addi	sp,sp,-16
    800045c8:	e406                	sd	ra,8(sp)
    800045ca:	e022                	sd	s0,0(sp)
  for (int i = 0; i < MAX_FDS; i++) {
    800045cc:	4401                	li	s0,0
    800045ce:	a019                	j	800045d4 <spike_file_dup+0xe>
    if (atomic_cas(&spike_fds[i], 0, f) == 0) {
    800045d0:	c79d                	beqz	a5,800045fe <spike_file_dup+0x38>
  for (int i = 0; i < MAX_FDS; i++) {
    800045d2:	2405                	addiw	s0,s0,1
    800045d4:	07f00793          	li	a5,127
    800045d8:	0287ca63          	blt	a5,s0,8000460c <spike_file_dup+0x46>
    if (atomic_cas(&spike_fds[i], 0, f) == 0) {
    800045dc:	00341713          	slli	a4,s0,0x3
    800045e0:	0000b797          	auipc	a5,0xb
    800045e4:	7d078793          	addi	a5,a5,2000 # 8000fdb0 <spike_fds>
    800045e8:	97ba                	add	a5,a5,a4
    800045ea:	639c                	ld	a5,0(a5)
    800045ec:	f3f5                	bnez	a5,800045d0 <spike_file_dup+0xa>
    800045ee:	86ba                	mv	a3,a4
    800045f0:	0000b717          	auipc	a4,0xb
    800045f4:	7c070713          	addi	a4,a4,1984 # 8000fdb0 <spike_fds>
    800045f8:	9736                	add	a4,a4,a3
    800045fa:	e308                	sd	a0,0(a4)
    800045fc:	bfd1                	j	800045d0 <spike_file_dup+0xa>
      spike_file_incref(f);
    800045fe:	f8bff0ef          	jal	ra,80004588 <spike_file_incref>
      return i;
    }
  }
  return -1;
}
    80004602:	8522                	mv	a0,s0
    80004604:	60a2                	ld	ra,8(sp)
    80004606:	6402                	ld	s0,0(sp)
    80004608:	0141                	addi	sp,sp,16
    8000460a:	8082                	ret
  return -1;
    8000460c:	547d                	li	s0,-1
    8000460e:	bfd5                	j	80004602 <spike_file_dup+0x3c>

0000000080004610 <spike_file_init>:

void spike_file_init(void) {
    80004610:	1141                	addi	sp,sp,-16
    80004612:	e406                	sd	ra,8(sp)
    80004614:	e022                	sd	s0,0(sp)
  // create stdin, stdout, stderr and FDs 0-2
  for (int i = 0; i < 3; i++) {
    80004616:	4401                	li	s0,0
    80004618:	a039                	j	80004626 <spike_file_init+0x16>
    spike_file_t* f = spike_file_get_free();
    8000461a:	e33ff0ef          	jal	ra,8000444c <spike_file_get_free>
    f->kfd = i;
    8000461e:	c100                	sw	s0,0(a0)
    spike_file_dup(f);
    80004620:	fa7ff0ef          	jal	ra,800045c6 <spike_file_dup>
  for (int i = 0; i < 3; i++) {
    80004624:	2405                	addiw	s0,s0,1
    80004626:	4789                	li	a5,2
    80004628:	fe87d9e3          	bge	a5,s0,8000461a <spike_file_init+0xa>
  }
}
    8000462c:	60a2                	ld	ra,8(sp)
    8000462e:	6402                	ld	s0,0(sp)
    80004630:	0141                	addi	sp,sp,16
    80004632:	8082                	ret

0000000080004634 <spike_file_openat>:

spike_file_t* spike_file_openat(int dirfd, const char* fn, int flags, int mode) {
    80004634:	7179                	addi	sp,sp,-48
    80004636:	f406                	sd	ra,40(sp)
    80004638:	f022                	sd	s0,32(sp)
    8000463a:	ec26                	sd	s1,24(sp)
    8000463c:	e84a                	sd	s2,16(sp)
    8000463e:	e44e                	sd	s3,8(sp)
    80004640:	e052                	sd	s4,0(sp)
    80004642:	892a                	mv	s2,a0
    80004644:	84ae                	mv	s1,a1
    80004646:	89b2                	mv	s3,a2
    80004648:	8a36                	mv	s4,a3
  spike_file_t* f = spike_file_get_free();
    8000464a:	e03ff0ef          	jal	ra,8000444c <spike_file_get_free>
  if (f == NULL) {
    8000464e:	c139                	beqz	a0,80004694 <spike_file_openat+0x60>
    80004650:	842a                	mv	s0,a0
    // sprint("here error\n");
    return ERR_PTR(-ENOMEM);
  }

  size_t fn_size = strlen(fn) + 1;
    80004652:	8526                	mv	a0,s1
    80004654:	c35ff0ef          	jal	ra,80004288 <strlen>
  long ret = frontend_syscall(HTIFSYS_openat, dirfd, (uint64)fn, fn_size, flags, mode, 0, 0);
    80004658:	4881                	li	a7,0
    8000465a:	4801                	li	a6,0
    8000465c:	87d2                	mv	a5,s4
    8000465e:	874e                	mv	a4,s3
    80004660:	00150693          	addi	a3,a0,1
    80004664:	8626                	mv	a2,s1
    80004666:	85ca                	mv	a1,s2
    80004668:	03800513          	li	a0,56
    8000466c:	570000ef          	jal	ra,80004bdc <frontend_syscall>
    80004670:	84aa                	mv	s1,a0
  if (ret >= 0) {
    80004672:	00054c63          	bltz	a0,8000468a <spike_file_openat+0x56>
    f->kfd = ret;
    80004676:	c008                	sw	a0,0(s0)
    // sprint("error ret is %d\n", ret);
    // sprint("here error2\n");
    spike_file_decref(f);
    return ERR_PTR(ret);
  }
}
    80004678:	8522                	mv	a0,s0
    8000467a:	70a2                	ld	ra,40(sp)
    8000467c:	7402                	ld	s0,32(sp)
    8000467e:	64e2                	ld	s1,24(sp)
    80004680:	6942                	ld	s2,16(sp)
    80004682:	69a2                	ld	s3,8(sp)
    80004684:	6a02                	ld	s4,0(sp)
    80004686:	6145                	addi	sp,sp,48
    80004688:	8082                	ret
    spike_file_decref(f);
    8000468a:	8522                	mv	a0,s0
    8000468c:	e6dff0ef          	jal	ra,800044f8 <spike_file_decref>
    return ERR_PTR(ret);
    80004690:	8426                	mv	s0,s1
    80004692:	b7dd                	j	80004678 <spike_file_openat+0x44>
    return ERR_PTR(-ENOMEM);
    80004694:	5451                	li	s0,-12
    80004696:	b7cd                	j	80004678 <spike_file_openat+0x44>

0000000080004698 <spike_file_open>:

spike_file_t* spike_file_open(const char* fn, int flags, int mode) {
    80004698:	1141                	addi	sp,sp,-16
    8000469a:	e406                	sd	ra,8(sp)
    8000469c:	86b2                	mv	a3,a2
  // sprint("lgm:spike_file_open the fn is %s\n", fn);
  return spike_file_openat(AT_FDCWD, fn, flags, mode);
    8000469e:	862e                	mv	a2,a1
    800046a0:	85aa                	mv	a1,a0
    800046a2:	f9c00513          	li	a0,-100
    800046a6:	f8fff0ef          	jal	ra,80004634 <spike_file_openat>
}
    800046aa:	60a2                	ld	ra,8(sp)
    800046ac:	0141                	addi	sp,sp,16
    800046ae:	8082                	ret

00000000800046b0 <spike_file_pread>:

ssize_t spike_file_pread(spike_file_t* f, void* buf, size_t size, off_t offset) {
    800046b0:	1141                	addi	sp,sp,-16
    800046b2:	e406                	sd	ra,8(sp)
    800046b4:	8736                	mv	a4,a3
  return frontend_syscall(HTIFSYS_pread, f->kfd, (uint64)buf, size, offset, 0, 0, 0);
    800046b6:	4881                	li	a7,0
    800046b8:	4801                	li	a6,0
    800046ba:	4781                	li	a5,0
    800046bc:	86b2                	mv	a3,a2
    800046be:	862e                	mv	a2,a1
    800046c0:	410c                	lw	a1,0(a0)
    800046c2:	04300513          	li	a0,67
    800046c6:	516000ef          	jal	ra,80004bdc <frontend_syscall>
}
    800046ca:	60a2                	ld	ra,8(sp)
    800046cc:	0141                	addi	sp,sp,16
    800046ce:	8082                	ret

00000000800046d0 <spike_file_read>:

ssize_t spike_file_read(spike_file_t* f, void* buf, size_t size) {
    800046d0:	1141                	addi	sp,sp,-16
    800046d2:	e406                	sd	ra,8(sp)
    800046d4:	86b2                	mv	a3,a2
  // sprint("f->kfd is %d", f->kfd);
  return frontend_syscall(HTIFSYS_read, f->kfd, (uint64)buf, size, 0, 0, 0, 0);
    800046d6:	4881                	li	a7,0
    800046d8:	4801                	li	a6,0
    800046da:	4781                	li	a5,0
    800046dc:	4701                	li	a4,0
    800046de:	862e                	mv	a2,a1
    800046e0:	410c                	lw	a1,0(a0)
    800046e2:	03f00513          	li	a0,63
    800046e6:	4f6000ef          	jal	ra,80004bdc <frontend_syscall>
}
    800046ea:	60a2                	ld	ra,8(sp)
    800046ec:	0141                	addi	sp,sp,16
    800046ee:	8082                	ret

00000000800046f0 <spike_file_lseek>:

ssize_t spike_file_lseek(spike_file_t* f, size_t ptr, int dir) {
    800046f0:	1141                	addi	sp,sp,-16
    800046f2:	e406                	sd	ra,8(sp)
    800046f4:	86b2                	mv	a3,a2
  return frontend_syscall(HTIFSYS_lseek, f->kfd, ptr, dir, 0, 0, 0, 0);
    800046f6:	4881                	li	a7,0
    800046f8:	4801                	li	a6,0
    800046fa:	4781                	li	a5,0
    800046fc:	4701                	li	a4,0
    800046fe:	862e                	mv	a2,a1
    80004700:	410c                	lw	a1,0(a0)
    80004702:	03e00513          	li	a0,62
    80004706:	4d6000ef          	jal	ra,80004bdc <frontend_syscall>
}
    8000470a:	60a2                	ld	ra,8(sp)
    8000470c:	0141                	addi	sp,sp,16
    8000470e:	8082                	ret

0000000080004710 <spike_file_get>:

spike_file_t* spike_file_get(int fd) {
  spike_file_t* f;
  if (fd < 0 || fd >= MAX_FDS || (f = atomic_read(&spike_fds[fd])) == NULL)
    80004710:	0005071b          	sext.w	a4,a0
    80004714:	07f00793          	li	a5,127
    80004718:	02e7ec63          	bltu	a5,a4,80004750 <spike_file_get+0x40>
    8000471c:	050e                	slli	a0,a0,0x3
    8000471e:	0000b797          	auipc	a5,0xb
    80004722:	69278793          	addi	a5,a5,1682 # 8000fdb0 <spike_fds>
    80004726:	97aa                	add	a5,a5,a0
    80004728:	6388                	ld	a0,0(a5)
    8000472a:	e501                	bnez	a0,80004732 <spike_file_get+0x22>
    8000472c:	a02d                	j	80004756 <spike_file_get+0x46>
  long old_cnt;
  do {
    old_cnt = atomic_read(&f->refcnt);
    if (old_cnt == 0)
      return 0;
  } while (atomic_cas(&f->refcnt, old_cnt, old_cnt+1) != old_cnt);
    8000472e:	02f70063          	beq	a4,a5,8000474e <spike_file_get+0x3e>
    old_cnt = atomic_read(&f->refcnt);
    80004732:	415c                	lw	a5,4(a0)
    80004734:	0007871b          	sext.w	a4,a5
    80004738:	1782                	slli	a5,a5,0x20
    8000473a:	9381                	srli	a5,a5,0x20
    if (old_cnt == 0)
    8000473c:	cf81                	beqz	a5,80004754 <spike_file_get+0x44>
  } while (atomic_cas(&f->refcnt, old_cnt, old_cnt+1) != old_cnt);
    8000473e:	415c                	lw	a5,4(a0)
    80004740:	2781                	sext.w	a5,a5
    80004742:	fef716e3          	bne	a4,a5,8000472e <spike_file_get+0x1e>
    80004746:	0017069b          	addiw	a3,a4,1
    8000474a:	c154                	sw	a3,4(a0)
    8000474c:	b7cd                	j	8000472e <spike_file_get+0x1e>
    8000474e:	8082                	ret
    return 0;
    80004750:	4501                	li	a0,0
    80004752:	8082                	ret
      return 0;
    80004754:	4501                	li	a0,0

  return f;
}
    80004756:	8082                	ret

0000000080004758 <htif_done>:
  }
}

static void htif_done(const struct fdt_scan_node *node, void *extra) {
  struct htif_scan *scan = (struct htif_scan *)extra;
  if (!scan->compat) return;
    80004758:	419c                	lw	a5,0(a1)
    8000475a:	c791                	beqz	a5,80004766 <htif_done+0xe>

  htif = 1;
    8000475c:	4785                	li	a5,1
    8000475e:	0000c717          	auipc	a4,0xc
    80004762:	b0f73923          	sd	a5,-1262(a4) # 80010270 <htif>
}
    80004766:	8082                	ret

0000000080004768 <htif_open>:
static void htif_open(const struct fdt_scan_node *node, void *extra) {
    80004768:	1141                	addi	sp,sp,-16
    8000476a:	e406                	sd	ra,8(sp)
    8000476c:	852e                	mv	a0,a1
  memset(scan, 0, sizeof(*scan));
    8000476e:	4611                	li	a2,4
    80004770:	4581                	li	a1,0
    80004772:	ad3ff0ef          	jal	ra,80004244 <memset>
}
    80004776:	60a2                	ld	ra,8(sp)
    80004778:	0141                	addi	sp,sp,16
    8000477a:	8082                	ret

000000008000477c <htif_prop>:
static void htif_prop(const struct fdt_scan_prop *prop, void *extra) {
    8000477c:	1101                	addi	sp,sp,-32
    8000477e:	ec06                	sd	ra,24(sp)
    80004780:	e822                	sd	s0,16(sp)
    80004782:	e426                	sd	s1,8(sp)
    80004784:	842a                	mv	s0,a0
    80004786:	84ae                	mv	s1,a1
  if (!strcmp(prop->name, "compatible") && !strcmp((const char *)prop->value, "ucb,htif0")) {
    80004788:	00004597          	auipc	a1,0x4
    8000478c:	50058593          	addi	a1,a1,1280 # 80008c88 <rfs_i_ops+0x1bf8>
    80004790:	6508                	ld	a0,8(a0)
    80004792:	b09ff0ef          	jal	ra,8000429a <strcmp>
    80004796:	c511                	beqz	a0,800047a2 <htif_prop+0x26>
}
    80004798:	60e2                	ld	ra,24(sp)
    8000479a:	6442                	ld	s0,16(sp)
    8000479c:	64a2                	ld	s1,8(sp)
    8000479e:	6105                	addi	sp,sp,32
    800047a0:	8082                	ret
  if (!strcmp(prop->name, "compatible") && !strcmp((const char *)prop->value, "ucb,htif0")) {
    800047a2:	00004597          	auipc	a1,0x4
    800047a6:	4f658593          	addi	a1,a1,1270 # 80008c98 <rfs_i_ops+0x1c08>
    800047aa:	6808                	ld	a0,16(s0)
    800047ac:	aefff0ef          	jal	ra,8000429a <strcmp>
    800047b0:	f565                	bnez	a0,80004798 <htif_prop+0x1c>
    scan->compat = 1;
    800047b2:	4785                	li	a5,1
    800047b4:	c09c                	sw	a5,0(s1)
}
    800047b6:	b7cd                	j	80004798 <htif_prop+0x1c>

00000000800047b8 <__check_fromhost>:

volatile int htif_console_buf;
static spinlock_t htif_lock = SPINLOCK_INIT;

static void __check_fromhost(void) {
  uint64_t fh = fromhost;
    800047b8:	00005797          	auipc	a5,0x5
    800047bc:	8487b783          	ld	a5,-1976(a5) # 80009000 <fromhost>
  if (!fh) return;
    800047c0:	c7d1                	beqz	a5,8000484c <__check_fromhost+0x94>
static void __check_fromhost(void) {
    800047c2:	1141                	addi	sp,sp,-16
    800047c4:	e406                	sd	ra,8(sp)
  fromhost = 0;
    800047c6:	00005717          	auipc	a4,0x5
    800047ca:	82073d23          	sd	zero,-1990(a4) # 80009000 <fromhost>

  // this should be from the console
  assert(FROMHOST_DEV(fh) == 1);
    800047ce:	0387d713          	srli	a4,a5,0x38
    800047d2:	4685                	li	a3,1
    800047d4:	00d71c63          	bne	a4,a3,800047ec <__check_fromhost+0x34>
  switch (FROMHOST_CMD(fh)) {
    800047d8:	00879713          	slli	a4,a5,0x8
    800047dc:	9361                	srli	a4,a4,0x38
    800047de:	cb1d                	beqz	a4,80004814 <__check_fromhost+0x5c>
    800047e0:	4785                	li	a5,1
    800047e2:	04f71163          	bne	a4,a5,80004824 <__check_fromhost+0x6c>
    case 1:
      break;
    default:
      assert(0);
  }
}
    800047e6:	60a2                	ld	ra,8(sp)
    800047e8:	0141                	addi	sp,sp,16
    800047ea:	8082                	ret
  assert(FROMHOST_DEV(fh) == 1);
    800047ec:	00004697          	auipc	a3,0x4
    800047f0:	4bc68693          	addi	a3,a3,1212 # 80008ca8 <rfs_i_ops+0x1c18>
    800047f4:	05100613          	li	a2,81
    800047f8:	00004597          	auipc	a1,0x4
    800047fc:	4c858593          	addi	a1,a1,1224 # 80008cc0 <rfs_i_ops+0x1c30>
    80004800:	00003517          	auipc	a0,0x3
    80004804:	16050513          	addi	a0,a0,352 # 80007960 <rfs_i_ops+0x8d0>
    80004808:	4d8000ef          	jal	ra,80004ce0 <sprint>
    8000480c:	6541                	lui	a0,0x10
    8000480e:	157d                	addi	a0,a0,-1
    80004810:	4f0000ef          	jal	ra,80004d00 <poweroff>
      htif_console_buf = 1 + (uint8_t)FROMHOST_DATA(fh);
    80004814:	0ff7f793          	zext.b	a5,a5
    80004818:	2785                	addiw	a5,a5,1
    8000481a:	0000c717          	auipc	a4,0xc
    8000481e:	a4f72723          	sw	a5,-1458(a4) # 80010268 <htif_console_buf>
      break;
    80004822:	b7d1                	j	800047e6 <__check_fromhost+0x2e>
      assert(0);
    80004824:	00004697          	auipc	a3,0x4
    80004828:	4e468693          	addi	a3,a3,1252 # 80008d08 <rfs_i_ops+0x1c78>
    8000482c:	05900613          	li	a2,89
    80004830:	00004597          	auipc	a1,0x4
    80004834:	49058593          	addi	a1,a1,1168 # 80008cc0 <rfs_i_ops+0x1c30>
    80004838:	00003517          	auipc	a0,0x3
    8000483c:	12850513          	addi	a0,a0,296 # 80007960 <rfs_i_ops+0x8d0>
    80004840:	4a0000ef          	jal	ra,80004ce0 <sprint>
    80004844:	6541                	lui	a0,0x10
    80004846:	157d                	addi	a0,a0,-1
    80004848:	4b8000ef          	jal	ra,80004d00 <poweroff>
    8000484c:	8082                	ret

000000008000484e <__set_tohost>:

static void __set_tohost(uint64 dev, uint64 cmd, uint64 data) {
    8000484e:	1101                	addi	sp,sp,-32
    80004850:	ec06                	sd	ra,24(sp)
    80004852:	e822                	sd	s0,16(sp)
    80004854:	e426                	sd	s1,8(sp)
    80004856:	e04a                	sd	s2,0(sp)
    80004858:	842a                	mv	s0,a0
    8000485a:	84ae                	mv	s1,a1
    8000485c:	8932                	mv	s2,a2
  while (tohost) __check_fromhost();
    8000485e:	a019                	j	80004864 <__set_tohost+0x16>
    80004860:	f59ff0ef          	jal	ra,800047b8 <__check_fromhost>
    80004864:	00004797          	auipc	a5,0x4
    80004868:	7a47b783          	ld	a5,1956(a5) # 80009008 <tohost>
    8000486c:	fbf5                	bnez	a5,80004860 <__set_tohost+0x12>
  tohost = TOHOST_CMD(dev, cmd, data);
    8000486e:	1462                	slli	s0,s0,0x38
    80004870:	14c2                	slli	s1,s1,0x30
    80004872:	8c45                	or	s0,s0,s1
    80004874:	01246433          	or	s0,s0,s2
    80004878:	00004797          	auipc	a5,0x4
    8000487c:	7887b823          	sd	s0,1936(a5) # 80009008 <tohost>
}
    80004880:	60e2                	ld	ra,24(sp)
    80004882:	6442                	ld	s0,16(sp)
    80004884:	64a2                	ld	s1,8(sp)
    80004886:	6902                	ld	s2,0(sp)
    80004888:	6105                	addi	sp,sp,32
    8000488a:	8082                	ret

000000008000488c <do_tohost_fromhost>:

static void do_tohost_fromhost(uint64 dev, uint64 cmd, uint64 data) {
    8000488c:	1101                	addi	sp,sp,-32
    8000488e:	ec06                	sd	ra,24(sp)
    80004890:	e822                	sd	s0,16(sp)
    80004892:	e426                	sd	s1,8(sp)
    80004894:	842a                	mv	s0,a0
    80004896:	84ae                	mv	s1,a1
  return res;
}

static inline void spinlock_lock(spinlock_t* lock) {
  do {
    while (atomic_read(&lock->lock))
    80004898:	0000c797          	auipc	a5,0xc
    8000489c:	9187a783          	lw	a5,-1768(a5) # 800101b0 <htif_lock>
    800048a0:	ffe5                	bnez	a5,80004898 <do_tohost_fromhost+0xc>
  int res = atomic_swap(&lock->lock, -1);
    800048a2:	0000c717          	auipc	a4,0xc
    800048a6:	90e70713          	addi	a4,a4,-1778 # 800101b0 <htif_lock>
    800048aa:	431c                	lw	a5,0(a4)
    800048ac:	2781                	sext.w	a5,a5
    800048ae:	56fd                	li	a3,-1
    800048b0:	c314                	sw	a3,0(a4)
  mb();
    800048b2:	0ff0000f          	fence
      ;
  } while (spinlock_trylock(lock));
    800048b6:	f3ed                	bnez	a5,80004898 <do_tohost_fromhost+0xc>
  spinlock_lock(&htif_lock);
  __set_tohost(dev, cmd, data);
    800048b8:	85a6                	mv	a1,s1
    800048ba:	8522                	mv	a0,s0
    800048bc:	f93ff0ef          	jal	ra,8000484e <__set_tohost>
    800048c0:	a019                	j	800048c6 <do_tohost_fromhost+0x3a>
    if (fh) {
      if (FROMHOST_DEV(fh) == dev && FROMHOST_CMD(fh) == cmd) {
        fromhost = 0;
        break;
      }
      __check_fromhost();
    800048c2:	ef7ff0ef          	jal	ra,800047b8 <__check_fromhost>
    uint64_t fh = fromhost;
    800048c6:	00004797          	auipc	a5,0x4
    800048ca:	73a7b783          	ld	a5,1850(a5) # 80009000 <fromhost>
    if (fh) {
    800048ce:	dfe5                	beqz	a5,800048c6 <do_tohost_fromhost+0x3a>
      if (FROMHOST_DEV(fh) == dev && FROMHOST_CMD(fh) == cmd) {
    800048d0:	0387d713          	srli	a4,a5,0x38
    800048d4:	fe8717e3          	bne	a4,s0,800048c2 <do_tohost_fromhost+0x36>
    800048d8:	07a2                	slli	a5,a5,0x8
    800048da:	93e1                	srli	a5,a5,0x38
    800048dc:	fe9793e3          	bne	a5,s1,800048c2 <do_tohost_fromhost+0x36>
        fromhost = 0;
    800048e0:	00004797          	auipc	a5,0x4
    800048e4:	7207b023          	sd	zero,1824(a5) # 80009000 <fromhost>
}

static inline void spinlock_unlock(spinlock_t* lock) {
  mb();
    800048e8:	0ff0000f          	fence
  atomic_set(&lock->lock, 0);
    800048ec:	0000c797          	auipc	a5,0xc
    800048f0:	8c07a223          	sw	zero,-1852(a5) # 800101b0 <htif_lock>
    }
  }
  spinlock_unlock(&htif_lock);
}
    800048f4:	60e2                	ld	ra,24(sp)
    800048f6:	6442                	ld	s0,16(sp)
    800048f8:	64a2                	ld	s1,8(sp)
    800048fa:	6105                	addi	sp,sp,32
    800048fc:	8082                	ret

00000000800048fe <query_htif>:
void query_htif(uint64 fdt) {
    800048fe:	7139                	addi	sp,sp,-64
    80004900:	fc06                	sd	ra,56(sp)
    80004902:	f822                	sd	s0,48(sp)
    80004904:	842a                	mv	s0,a0
  memset(&cb, 0, sizeof(cb));
    80004906:	02800613          	li	a2,40
    8000490a:	4581                	li	a1,0
    8000490c:	0028                	addi	a0,sp,8
    8000490e:	937ff0ef          	jal	ra,80004244 <memset>
  cb.open = htif_open;
    80004912:	00000797          	auipc	a5,0x0
    80004916:	e5678793          	addi	a5,a5,-426 # 80004768 <htif_open>
    8000491a:	e43e                	sd	a5,8(sp)
  cb.prop = htif_prop;
    8000491c:	00000797          	auipc	a5,0x0
    80004920:	e6078793          	addi	a5,a5,-416 # 8000477c <htif_prop>
    80004924:	e83e                	sd	a5,16(sp)
  cb.done = htif_done;
    80004926:	00000797          	auipc	a5,0x0
    8000492a:	e3278793          	addi	a5,a5,-462 # 80004758 <htif_done>
    8000492e:	ec3e                	sd	a5,24(sp)
  cb.extra = &scan;
    80004930:	f40a                	sd	sp,40(sp)
  fdt_scan(fdt, &cb);
    80004932:	002c                	addi	a1,sp,8
    80004934:	8522                	mv	a0,s0
    80004936:	163000ef          	jal	ra,80005298 <fdt_scan>
}
    8000493a:	70e2                	ld	ra,56(sp)
    8000493c:	7442                	ld	s0,48(sp)
    8000493e:	6121                	addi	sp,sp,64
    80004940:	8082                	ret

0000000080004942 <htif_syscall>:

/////////////////////    Encapsulated Spike HTIF functionalities    //////////////////
void htif_syscall(uint64 arg) { do_tohost_fromhost(0, 0, arg); }
    80004942:	1141                	addi	sp,sp,-16
    80004944:	e406                	sd	ra,8(sp)
    80004946:	862a                	mv	a2,a0
    80004948:	4581                	li	a1,0
    8000494a:	4501                	li	a0,0
    8000494c:	f41ff0ef          	jal	ra,8000488c <do_tohost_fromhost>
    80004950:	60a2                	ld	ra,8(sp)
    80004952:	0141                	addi	sp,sp,16
    80004954:	8082                	ret

0000000080004956 <htif_console_putchar>:

// htif fuctionalities
void htif_console_putchar(uint8_t ch) {
    80004956:	1141                	addi	sp,sp,-16
    80004958:	e406                	sd	ra,8(sp)
    8000495a:	862a                	mv	a2,a0
    while (atomic_read(&lock->lock))
    8000495c:	0000c797          	auipc	a5,0xc
    80004960:	8547a783          	lw	a5,-1964(a5) # 800101b0 <htif_lock>
    80004964:	ffe5                	bnez	a5,8000495c <htif_console_putchar+0x6>
  int res = atomic_swap(&lock->lock, -1);
    80004966:	0000c717          	auipc	a4,0xc
    8000496a:	84a70713          	addi	a4,a4,-1974 # 800101b0 <htif_lock>
    8000496e:	431c                	lw	a5,0(a4)
    80004970:	2781                	sext.w	a5,a5
    80004972:	56fd                	li	a3,-1
    80004974:	c314                	sw	a3,0(a4)
  mb();
    80004976:	0ff0000f          	fence
  } while (spinlock_trylock(lock));
    8000497a:	f3ed                	bnez	a5,8000495c <htif_console_putchar+0x6>
  magic_mem[2] = (uint64)&ch;
  magic_mem[3] = 1;
  do_tohost_fromhost(0, 0, (uint64)magic_mem);
#else
  spinlock_lock(&htif_lock);
  __set_tohost(1, 1, ch);
    8000497c:	4585                	li	a1,1
    8000497e:	4505                	li	a0,1
    80004980:	ecfff0ef          	jal	ra,8000484e <__set_tohost>
  mb();
    80004984:	0ff0000f          	fence
  atomic_set(&lock->lock, 0);
    80004988:	0000c797          	auipc	a5,0xc
    8000498c:	8207a423          	sw	zero,-2008(a5) # 800101b0 <htif_lock>
  spinlock_unlock(&htif_lock);
#endif
}
    80004990:	60a2                	ld	ra,8(sp)
    80004992:	0141                	addi	sp,sp,16
    80004994:	8082                	ret

0000000080004996 <htif_console_getchar>:

int htif_console_getchar(void) {
    80004996:	1141                	addi	sp,sp,-16
    80004998:	e406                	sd	ra,8(sp)
    8000499a:	e022                	sd	s0,0(sp)
    while (atomic_read(&lock->lock))
    8000499c:	0000c797          	auipc	a5,0xc
    800049a0:	8147a783          	lw	a5,-2028(a5) # 800101b0 <htif_lock>
    800049a4:	ffe5                	bnez	a5,8000499c <htif_console_getchar+0x6>
  int res = atomic_swap(&lock->lock, -1);
    800049a6:	0000c717          	auipc	a4,0xc
    800049aa:	80a70713          	addi	a4,a4,-2038 # 800101b0 <htif_lock>
    800049ae:	431c                	lw	a5,0(a4)
    800049b0:	2781                	sext.w	a5,a5
    800049b2:	56fd                	li	a3,-1
    800049b4:	c314                	sw	a3,0(a4)
  mb();
    800049b6:	0ff0000f          	fence
  } while (spinlock_trylock(lock));
    800049ba:	f3ed                	bnez	a5,8000499c <htif_console_getchar+0x6>
  // HTIF devices are not supported on RV32
  return -1;
#endif

  spinlock_lock(&htif_lock);
  __check_fromhost();
    800049bc:	dfdff0ef          	jal	ra,800047b8 <__check_fromhost>
  int ch = htif_console_buf;
    800049c0:	0000c417          	auipc	s0,0xc
    800049c4:	8a842403          	lw	s0,-1880(s0) # 80010268 <htif_console_buf>
  if (ch >= 0) {
    800049c8:	00045e63          	bgez	s0,800049e4 <htif_console_getchar+0x4e>
  mb();
    800049cc:	0ff0000f          	fence
  atomic_set(&lock->lock, 0);
    800049d0:	0000b797          	auipc	a5,0xb
    800049d4:	7e07a023          	sw	zero,2016(a5) # 800101b0 <htif_lock>
    __set_tohost(1, 0, 0);
  }
  spinlock_unlock(&htif_lock);

  return ch - 1;
}
    800049d8:	fff4051b          	addiw	a0,s0,-1
    800049dc:	60a2                	ld	ra,8(sp)
    800049de:	6402                	ld	s0,0(sp)
    800049e0:	0141                	addi	sp,sp,16
    800049e2:	8082                	ret
    htif_console_buf = -1;
    800049e4:	57fd                	li	a5,-1
    800049e6:	0000c717          	auipc	a4,0xc
    800049ea:	88f72123          	sw	a5,-1918(a4) # 80010268 <htif_console_buf>
    __set_tohost(1, 0, 0);
    800049ee:	4601                	li	a2,0
    800049f0:	4581                	li	a1,0
    800049f2:	4505                	li	a0,1
    800049f4:	e5bff0ef          	jal	ra,8000484e <__set_tohost>
    800049f8:	bfd1                	j	800049cc <htif_console_getchar+0x36>

00000000800049fa <htif_poweroff>:

void htif_poweroff(void) {
  while (1) {
    fromhost = 0;
    800049fa:	00004797          	auipc	a5,0x4
    800049fe:	60678793          	addi	a5,a5,1542 # 80009000 <fromhost>
    80004a02:	0007b023          	sd	zero,0(a5)
    tohost = 1;
    80004a06:	4705                	li	a4,1
    80004a08:	e798                	sd	a4,8(a5)
  while (1) {
    80004a0a:	bfc5                	j	800049fa <htif_poweroff>

0000000080004a0c <mem_open>:
  int memory;
  const uint32 *reg_value;
  int reg_len;
};

static void mem_open(const struct fdt_scan_node *node, void *extra) {
    80004a0c:	1141                	addi	sp,sp,-16
    80004a0e:	e406                	sd	ra,8(sp)
    80004a10:	852e                	mv	a0,a1
  struct mem_scan *scan = (struct mem_scan *)extra;
  memset(scan, 0, sizeof(*scan));
    80004a12:	4661                	li	a2,24
    80004a14:	4581                	li	a1,0
    80004a16:	82fff0ef          	jal	ra,80004244 <memset>
}
    80004a1a:	60a2                	ld	ra,8(sp)
    80004a1c:	0141                	addi	sp,sp,16
    80004a1e:	8082                	ret

0000000080004a20 <mem_done>:
    scan->reg_value = prop->value;
    scan->reg_len = prop->len;
  }
}

static void mem_done(const struct fdt_scan_node *node, void *extra) {
    80004a20:	7179                	addi	sp,sp,-48
    80004a22:	f406                	sd	ra,40(sp)
    80004a24:	f022                	sd	s0,32(sp)
    80004a26:	ec26                	sd	s1,24(sp)
    80004a28:	e84a                	sd	s2,16(sp)
    80004a2a:	87ae                	mv	a5,a1
  struct mem_scan *scan = (struct mem_scan *)extra;
  const uint32 *value = scan->reg_value;
    80004a2c:	658c                	ld	a1,8(a1)
  const uint32 *end = value + scan->reg_len / 4;
    80004a2e:	4b98                	lw	a4,16(a5)
    80004a30:	41f7541b          	sraiw	s0,a4,0x1f
    80004a34:	01e4541b          	srliw	s0,s0,0x1e
    80004a38:	9c39                	addw	s0,s0,a4
    80004a3a:	4024541b          	sraiw	s0,s0,0x2
    80004a3e:	040a                	slli	s0,s0,0x2
    80004a40:	942e                	add	s0,s0,a1
  uint64 self = (uint64)mem_done;

  if (!scan->memory) return;
    80004a42:	439c                	lw	a5,0(a5)
    80004a44:	cbad                	beqz	a5,80004ab6 <mem_done+0x96>
    80004a46:	84aa                	mv	s1,a0
    80004a48:	00000917          	auipc	s2,0x0
    80004a4c:	fd890913          	addi	s2,s2,-40 # 80004a20 <mem_done>
  assert(scan->reg_value && scan->reg_len % 4 == 0);
    80004a50:	cd8d                	beqz	a1,80004a8a <mem_done+0x6a>
    80004a52:	8b0d                	andi	a4,a4,3
    80004a54:	eb1d                	bnez	a4,80004a8a <mem_done+0x6a>

  while (end - value > 0) {
    80004a56:	40b407b3          	sub	a5,s0,a1
    80004a5a:	04f05c63          	blez	a5,80004ab2 <mem_done+0x92>
    uint64 base, size;
    value = fdt_get_address(node->parent, value, &base);
    80004a5e:	860a                	mv	a2,sp
    80004a60:	6088                	ld	a0,0(s1)
    80004a62:	792000ef          	jal	ra,800051f4 <fdt_get_address>
    80004a66:	85aa                	mv	a1,a0
    value = fdt_get_size(node->parent, value, &size);
    80004a68:	0030                	addi	a2,sp,8
    80004a6a:	6088                	ld	a0,0(s1)
    80004a6c:	7da000ef          	jal	ra,80005246 <fdt_get_size>
    80004a70:	85aa                	mv	a1,a0
    if (base <= self && self <= base + size) {
    80004a72:	6782                	ld	a5,0(sp)
    80004a74:	fef961e3          	bltu	s2,a5,80004a56 <mem_done+0x36>
    80004a78:	6722                	ld	a4,8(sp)
    80004a7a:	97ba                	add	a5,a5,a4
    80004a7c:	fd27ede3          	bltu	a5,s2,80004a56 <mem_done+0x36>
      g_mem_size = size;
    80004a80:	0000b797          	auipc	a5,0xb
    80004a84:	7ee7bc23          	sd	a4,2040(a5) # 80010278 <g_mem_size>
    80004a88:	b7f9                	j	80004a56 <mem_done+0x36>
  assert(scan->reg_value && scan->reg_len % 4 == 0);
    80004a8a:	00004697          	auipc	a3,0x4
    80004a8e:	25668693          	addi	a3,a3,598 # 80008ce0 <rfs_i_ops+0x1c50>
    80004a92:	02900613          	li	a2,41
    80004a96:	00004597          	auipc	a1,0x4
    80004a9a:	27a58593          	addi	a1,a1,634 # 80008d10 <rfs_i_ops+0x1c80>
    80004a9e:	00003517          	auipc	a0,0x3
    80004aa2:	ec250513          	addi	a0,a0,-318 # 80007960 <rfs_i_ops+0x8d0>
    80004aa6:	23a000ef          	jal	ra,80004ce0 <sprint>
    80004aaa:	6541                	lui	a0,0x10
    80004aac:	157d                	addi	a0,a0,-1
    80004aae:	252000ef          	jal	ra,80004d00 <poweroff>
    }
  }
  assert(end == value);
    80004ab2:	00859863          	bne	a1,s0,80004ac2 <mem_done+0xa2>
}
    80004ab6:	70a2                	ld	ra,40(sp)
    80004ab8:	7402                	ld	s0,32(sp)
    80004aba:	64e2                	ld	s1,24(sp)
    80004abc:	6942                	ld	s2,16(sp)
    80004abe:	6145                	addi	sp,sp,48
    80004ac0:	8082                	ret
  assert(end == value);
    80004ac2:	00004697          	auipc	a3,0x4
    80004ac6:	26e68693          	addi	a3,a3,622 # 80008d30 <rfs_i_ops+0x1ca0>
    80004aca:	03300613          	li	a2,51
    80004ace:	00004597          	auipc	a1,0x4
    80004ad2:	24258593          	addi	a1,a1,578 # 80008d10 <rfs_i_ops+0x1c80>
    80004ad6:	00003517          	auipc	a0,0x3
    80004ada:	e8a50513          	addi	a0,a0,-374 # 80007960 <rfs_i_ops+0x8d0>
    80004ade:	202000ef          	jal	ra,80004ce0 <sprint>
    80004ae2:	6541                	lui	a0,0x10
    80004ae4:	157d                	addi	a0,a0,-1
    80004ae6:	21a000ef          	jal	ra,80004d00 <poweroff>

0000000080004aea <mem_prop>:
static void mem_prop(const struct fdt_scan_prop *prop, void *extra) {
    80004aea:	1101                	addi	sp,sp,-32
    80004aec:	ec06                	sd	ra,24(sp)
    80004aee:	e822                	sd	s0,16(sp)
    80004af0:	e426                	sd	s1,8(sp)
    80004af2:	842a                	mv	s0,a0
    80004af4:	84ae                	mv	s1,a1
  if (!strcmp(prop->name, "device_type") && !strcmp((const char *)prop->value, "memory")) {
    80004af6:	00004597          	auipc	a1,0x4
    80004afa:	24a58593          	addi	a1,a1,586 # 80008d40 <rfs_i_ops+0x1cb0>
    80004afe:	6508                	ld	a0,8(a0)
    80004b00:	f9aff0ef          	jal	ra,8000429a <strcmp>
    80004b04:	ed01                	bnez	a0,80004b1c <mem_prop+0x32>
    80004b06:	00004597          	auipc	a1,0x4
    80004b0a:	24a58593          	addi	a1,a1,586 # 80008d50 <rfs_i_ops+0x1cc0>
    80004b0e:	6808                	ld	a0,16(s0)
    80004b10:	f8aff0ef          	jal	ra,8000429a <strcmp>
    80004b14:	e501                	bnez	a0,80004b1c <mem_prop+0x32>
    scan->memory = 1;
    80004b16:	4785                	li	a5,1
    80004b18:	c09c                	sw	a5,0(s1)
    80004b1a:	a829                	j	80004b34 <mem_prop+0x4a>
  } else if (!strcmp(prop->name, "reg")) {
    80004b1c:	00004597          	auipc	a1,0x4
    80004b20:	23c58593          	addi	a1,a1,572 # 80008d58 <rfs_i_ops+0x1cc8>
    80004b24:	6408                	ld	a0,8(s0)
    80004b26:	f74ff0ef          	jal	ra,8000429a <strcmp>
    80004b2a:	e509                	bnez	a0,80004b34 <mem_prop+0x4a>
    scan->reg_value = prop->value;
    80004b2c:	681c                	ld	a5,16(s0)
    80004b2e:	e49c                	sd	a5,8(s1)
    scan->reg_len = prop->len;
    80004b30:	4c1c                	lw	a5,24(s0)
    80004b32:	c89c                	sw	a5,16(s1)
}
    80004b34:	60e2                	ld	ra,24(sp)
    80004b36:	6442                	ld	s0,16(sp)
    80004b38:	64a2                	ld	s1,8(sp)
    80004b3a:	6105                	addi	sp,sp,32
    80004b3c:	8082                	ret

0000000080004b3e <query_mem>:

// scanning the emulated memory
void query_mem(uint64 fdt) {
    80004b3e:	711d                	addi	sp,sp,-96
    80004b40:	ec86                	sd	ra,88(sp)
    80004b42:	e8a2                	sd	s0,80(sp)
    80004b44:	e4a6                	sd	s1,72(sp)
    80004b46:	842a                	mv	s0,a0
  struct fdt_cb cb;
  struct mem_scan scan;

  memset(&cb, 0, sizeof(cb));
    80004b48:	02800613          	li	a2,40
    80004b4c:	4581                	li	a1,0
    80004b4e:	0828                	addi	a0,sp,24
    80004b50:	ef4ff0ef          	jal	ra,80004244 <memset>
  cb.open = mem_open;
    80004b54:	00000797          	auipc	a5,0x0
    80004b58:	eb878793          	addi	a5,a5,-328 # 80004a0c <mem_open>
    80004b5c:	ec3e                	sd	a5,24(sp)
  cb.prop = mem_prop;
    80004b5e:	00000797          	auipc	a5,0x0
    80004b62:	f8c78793          	addi	a5,a5,-116 # 80004aea <mem_prop>
    80004b66:	f03e                	sd	a5,32(sp)
  cb.done = mem_done;
    80004b68:	00000797          	auipc	a5,0x0
    80004b6c:	eb878793          	addi	a5,a5,-328 # 80004a20 <mem_done>
    80004b70:	f43e                	sd	a5,40(sp)
  cb.extra = &scan;
    80004b72:	fc0a                	sd	sp,56(sp)

  g_mem_size = 0;
    80004b74:	0000b497          	auipc	s1,0xb
    80004b78:	70448493          	addi	s1,s1,1796 # 80010278 <g_mem_size>
    80004b7c:	0004b023          	sd	zero,0(s1)
  fdt_scan(fdt, &cb);
    80004b80:	082c                	addi	a1,sp,24
    80004b82:	8522                	mv	a0,s0
    80004b84:	714000ef          	jal	ra,80005298 <fdt_scan>
  assert(g_mem_size > 0);
    80004b88:	609c                	ld	a5,0(s1)
    80004b8a:	c791                	beqz	a5,80004b96 <query_mem+0x58>
}
    80004b8c:	60e6                	ld	ra,88(sp)
    80004b8e:	6446                	ld	s0,80(sp)
    80004b90:	64a6                	ld	s1,72(sp)
    80004b92:	6125                	addi	sp,sp,96
    80004b94:	8082                	ret
  assert(g_mem_size > 0);
    80004b96:	00004697          	auipc	a3,0x4
    80004b9a:	1ca68693          	addi	a3,a3,458 # 80008d60 <rfs_i_ops+0x1cd0>
    80004b9e:	04300613          	li	a2,67
    80004ba2:	00004597          	auipc	a1,0x4
    80004ba6:	16e58593          	addi	a1,a1,366 # 80008d10 <rfs_i_ops+0x1c80>
    80004baa:	00003517          	auipc	a0,0x3
    80004bae:	db650513          	addi	a0,a0,-586 # 80007960 <rfs_i_ops+0x8d0>
    80004bb2:	12e000ef          	jal	ra,80004ce0 <sprint>
    80004bb6:	6541                	lui	a0,0x10
    80004bb8:	157d                	addi	a0,a0,-1
    80004bba:	146000ef          	jal	ra,80004d00 <poweroff>

0000000080004bbe <mcall_console_putchar>:
  return ret;
}

//===============    Spike-assisted printf, output string to terminal    ===============
static uintptr_t mcall_console_putchar(uint8 ch) {
  if (htif) {
    80004bbe:	0000b797          	auipc	a5,0xb
    80004bc2:	6b27b783          	ld	a5,1714(a5) # 80010270 <htif>
    80004bc6:	e399                	bnez	a5,80004bcc <mcall_console_putchar+0xe>
    htif_console_putchar(ch);
  }
  return 0;
}
    80004bc8:	4501                	li	a0,0
    80004bca:	8082                	ret
static uintptr_t mcall_console_putchar(uint8 ch) {
    80004bcc:	1141                	addi	sp,sp,-16
    80004bce:	e406                	sd	ra,8(sp)
    htif_console_putchar(ch);
    80004bd0:	d87ff0ef          	jal	ra,80004956 <htif_console_putchar>
}
    80004bd4:	4501                	li	a0,0
    80004bd6:	60a2                	ld	ra,8(sp)
    80004bd8:	0141                	addi	sp,sp,16
    80004bda:	8082                	ret

0000000080004bdc <frontend_syscall>:
      uint64 a5, uint64 a6) {
    80004bdc:	1141                	addi	sp,sp,-16
    80004bde:	e406                	sd	ra,8(sp)
    80004be0:	e022                	sd	s0,0(sp)
    while (atomic_read(&lock->lock))
    80004be2:	0000b317          	auipc	t1,0xb
    80004be6:	5e632303          	lw	t1,1510(t1) # 800101c8 <lock.1>
    80004bea:	fe031ce3          	bnez	t1,80004be2 <frontend_syscall+0x6>
  int res = atomic_swap(&lock->lock, -1);
    80004bee:	0000be17          	auipc	t3,0xb
    80004bf2:	5dae0e13          	addi	t3,t3,1498 # 800101c8 <lock.1>
    80004bf6:	000e2303          	lw	t1,0(t3)
    80004bfa:	2301                	sext.w	t1,t1
    80004bfc:	5efd                	li	t4,-1
    80004bfe:	01de2023          	sw	t4,0(t3)
  mb();
    80004c02:	0ff0000f          	fence
  } while (spinlock_trylock(lock));
    80004c06:	fc031ee3          	bnez	t1,80004be2 <frontend_syscall+0x6>
  magic_mem[0] = n;
    80004c0a:	8472                	mv	s0,t3
    80004c0c:	00ae3c23          	sd	a0,24(t3)
  magic_mem[1] = a0;
    80004c10:	02be3023          	sd	a1,32(t3)
  magic_mem[2] = a1;
    80004c14:	02ce3423          	sd	a2,40(t3)
  magic_mem[3] = a2;
    80004c18:	02de3823          	sd	a3,48(t3)
  magic_mem[4] = a3;
    80004c1c:	02ee3c23          	sd	a4,56(t3)
  magic_mem[5] = a4;
    80004c20:	04fe3023          	sd	a5,64(t3)
  magic_mem[6] = a5;
    80004c24:	050e3423          	sd	a6,72(t3)
  magic_mem[7] = a6;
    80004c28:	051e3823          	sd	a7,80(t3)
  htif_syscall((uintptr_t)magic_mem);
    80004c2c:	0000b517          	auipc	a0,0xb
    80004c30:	5b450513          	addi	a0,a0,1460 # 800101e0 <magic_mem.0>
    80004c34:	d0fff0ef          	jal	ra,80004942 <htif_syscall>
  long ret = magic_mem[0];
    80004c38:	6c08                	ld	a0,24(s0)
  mb();
    80004c3a:	0ff0000f          	fence
  atomic_set(&lock->lock, 0);
    80004c3e:	00042023          	sw	zero,0(s0)
}
    80004c42:	60a2                	ld	ra,8(sp)
    80004c44:	6402                	ld	s0,0(sp)
    80004c46:	0141                	addi	sp,sp,16
    80004c48:	8082                	ret

0000000080004c4a <vprintk>:

void vprintk(const char* s, va_list vl) {
    80004c4a:	716d                	addi	sp,sp,-272
    80004c4c:	e606                	sd	ra,264(sp)
    80004c4e:	862a                	mv	a2,a0
    80004c50:	86ae                	mv	a3,a1
  char out[256];
  int res = vsnprintf(out, sizeof(out), s, vl);
    80004c52:	10000593          	li	a1,256
    80004c56:	850a                	mv	a0,sp
    80004c58:	160000ef          	jal	ra,80004db8 <vsnprintf>
  //you need spike_file_init before this call
  spike_file_write(stderr, out, res < sizeof(out) ? res : sizeof(out));
    80004c5c:	0005071b          	sext.w	a4,a0
    80004c60:	0ff00793          	li	a5,255
    80004c64:	00e7ed63          	bltu	a5,a4,80004c7e <vprintk+0x34>
    80004c68:	862a                	mv	a2,a0
    80004c6a:	858a                	mv	a1,sp
    80004c6c:	00005517          	auipc	a0,0x5
    80004c70:	3a450513          	addi	a0,a0,932 # 8000a010 <spike_files+0x10>
    80004c74:	933ff0ef          	jal	ra,800045a6 <spike_file_write>
}
    80004c78:	60b2                	ld	ra,264(sp)
    80004c7a:	6151                	addi	sp,sp,272
    80004c7c:	8082                	ret
  spike_file_write(stderr, out, res < sizeof(out) ? res : sizeof(out));
    80004c7e:	10000613          	li	a2,256
    80004c82:	b7e5                	j	80004c6a <vprintk+0x20>

0000000080004c84 <printk>:

void printk(const char* s, ...) {
    80004c84:	711d                	addi	sp,sp,-96
    80004c86:	ec06                	sd	ra,24(sp)
    80004c88:	f42e                	sd	a1,40(sp)
    80004c8a:	f832                	sd	a2,48(sp)
    80004c8c:	fc36                	sd	a3,56(sp)
    80004c8e:	e0ba                	sd	a4,64(sp)
    80004c90:	e4be                	sd	a5,72(sp)
    80004c92:	e8c2                	sd	a6,80(sp)
    80004c94:	ecc6                	sd	a7,88(sp)
  va_list vl;
  va_start(vl, s);
    80004c96:	102c                	addi	a1,sp,40
    80004c98:	e42e                	sd	a1,8(sp)

  vprintk(s, vl);
    80004c9a:	fb1ff0ef          	jal	ra,80004c4a <vprintk>

  va_end(vl);
}
    80004c9e:	60e2                	ld	ra,24(sp)
    80004ca0:	6125                	addi	sp,sp,96
    80004ca2:	8082                	ret

0000000080004ca4 <putstring>:

void putstring(const char* s) {
    80004ca4:	1141                	addi	sp,sp,-16
    80004ca6:	e406                	sd	ra,8(sp)
    80004ca8:	e022                	sd	s0,0(sp)
    80004caa:	842a                	mv	s0,a0
  while (*s) mcall_console_putchar(*s++);
    80004cac:	a021                	j	80004cb4 <putstring+0x10>
    80004cae:	0405                	addi	s0,s0,1
    80004cb0:	f0fff0ef          	jal	ra,80004bbe <mcall_console_putchar>
    80004cb4:	00044503          	lbu	a0,0(s0)
    80004cb8:	f97d                	bnez	a0,80004cae <putstring+0xa>
}
    80004cba:	60a2                	ld	ra,8(sp)
    80004cbc:	6402                	ld	s0,0(sp)
    80004cbe:	0141                	addi	sp,sp,16
    80004cc0:	8082                	ret

0000000080004cc2 <vprintm>:

void vprintm(const char* s, va_list vl) {
    80004cc2:	716d                	addi	sp,sp,-272
    80004cc4:	e606                	sd	ra,264(sp)
    80004cc6:	862a                	mv	a2,a0
    80004cc8:	86ae                	mv	a3,a1
  char buf[256];
  vsnprintf(buf, sizeof buf, s, vl);
    80004cca:	10000593          	li	a1,256
    80004cce:	850a                	mv	a0,sp
    80004cd0:	0e8000ef          	jal	ra,80004db8 <vsnprintf>
  putstring(buf);
    80004cd4:	850a                	mv	a0,sp
    80004cd6:	fcfff0ef          	jal	ra,80004ca4 <putstring>
}
    80004cda:	60b2                	ld	ra,264(sp)
    80004cdc:	6151                	addi	sp,sp,272
    80004cde:	8082                	ret

0000000080004ce0 <sprint>:

void sprint(const char* s, ...) {
    80004ce0:	711d                	addi	sp,sp,-96
    80004ce2:	ec06                	sd	ra,24(sp)
    80004ce4:	f42e                	sd	a1,40(sp)
    80004ce6:	f832                	sd	a2,48(sp)
    80004ce8:	fc36                	sd	a3,56(sp)
    80004cea:	e0ba                	sd	a4,64(sp)
    80004cec:	e4be                	sd	a5,72(sp)
    80004cee:	e8c2                	sd	a6,80(sp)
    80004cf0:	ecc6                	sd	a7,88(sp)
  va_list vl;
  va_start(vl, s);
    80004cf2:	102c                	addi	a1,sp,40
    80004cf4:	e42e                	sd	a1,8(sp)

  vprintk(s, vl);
    80004cf6:	f55ff0ef          	jal	ra,80004c4a <vprintk>

  va_end(vl);
}
    80004cfa:	60e2                	ld	ra,24(sp)
    80004cfc:	6125                	addi	sp,sp,96
    80004cfe:	8082                	ret

0000000080004d00 <poweroff>:

//===============    Spike-assisted termination, panic and assert    ===============
void poweroff(uint16_t code) {
    80004d00:	1141                	addi	sp,sp,-16
    80004d02:	e406                	sd	ra,8(sp)
  assert(htif);
    80004d04:	0000b797          	auipc	a5,0xb
    80004d08:	56c7b783          	ld	a5,1388(a5) # 80010270 <htif>
    80004d0c:	e78d                	bnez	a5,80004d36 <poweroff+0x36>
    80004d0e:	00004697          	auipc	a3,0x4
    80004d12:	06268693          	addi	a3,a3,98 # 80008d70 <rfs_i_ops+0x1ce0>
    80004d16:	05400613          	li	a2,84
    80004d1a:	00004597          	auipc	a1,0x4
    80004d1e:	05e58593          	addi	a1,a1,94 # 80008d78 <rfs_i_ops+0x1ce8>
    80004d22:	00003517          	auipc	a0,0x3
    80004d26:	c3e50513          	addi	a0,a0,-962 # 80007960 <rfs_i_ops+0x8d0>
    80004d2a:	fb7ff0ef          	jal	ra,80004ce0 <sprint>
    80004d2e:	6541                	lui	a0,0x10
    80004d30:	157d                	addi	a0,a0,-1
    80004d32:	fcfff0ef          	jal	ra,80004d00 <poweroff>
  sprint("Power off\r\n");
    80004d36:	00004517          	auipc	a0,0x4
    80004d3a:	06250513          	addi	a0,a0,98 # 80008d98 <rfs_i_ops+0x1d08>
    80004d3e:	fa3ff0ef          	jal	ra,80004ce0 <sprint>
  if (htif) {
    80004d42:	0000b797          	auipc	a5,0xb
    80004d46:	52e7b783          	ld	a5,1326(a5) # 80010270 <htif>
    80004d4a:	e781                	bnez	a5,80004d52 <poweroff+0x52>
    htif_poweroff();
  } else {
    // we consider only one HART case in PKE experiments. May extend this later.
    // send_ipi_many(0, IPI_HALT);
    while (1) {
      asm volatile("wfi\n");
    80004d4c:	10500073          	wfi
    while (1) {
    80004d50:	bff5                	j	80004d4c <poweroff+0x4c>
    htif_poweroff();
    80004d52:	ca9ff0ef          	jal	ra,800049fa <htif_poweroff>

0000000080004d56 <shutdown>:
    }
  }
}

void shutdown(int code) {
    80004d56:	1141                	addi	sp,sp,-16
    80004d58:	e406                	sd	ra,8(sp)
    80004d5a:	e022                	sd	s0,0(sp)
    80004d5c:	842a                	mv	s0,a0
  sprint("System is shutting down with exit code %d.\n", code);
    80004d5e:	85aa                	mv	a1,a0
    80004d60:	00004517          	auipc	a0,0x4
    80004d64:	04850513          	addi	a0,a0,72 # 80008da8 <rfs_i_ops+0x1d18>
    80004d68:	f79ff0ef          	jal	ra,80004ce0 <sprint>
  frontend_syscall(HTIFSYS_exit, code, 0, 0, 0, 0, 0, 0);
    80004d6c:	4881                	li	a7,0
    80004d6e:	4801                	li	a6,0
    80004d70:	4781                	li	a5,0
    80004d72:	4701                	li	a4,0
    80004d74:	4681                	li	a3,0
    80004d76:	4601                	li	a2,0
    80004d78:	85a2                	mv	a1,s0
    80004d7a:	05d00513          	li	a0,93
    80004d7e:	e5fff0ef          	jal	ra,80004bdc <frontend_syscall>
  while (1)
    80004d82:	a001                	j	80004d82 <shutdown+0x2c>

0000000080004d84 <do_panic>:
    ;
}

void do_panic(const char* s, ...) {
    80004d84:	711d                	addi	sp,sp,-96
    80004d86:	ec06                	sd	ra,24(sp)
    80004d88:	f42e                	sd	a1,40(sp)
    80004d8a:	f832                	sd	a2,48(sp)
    80004d8c:	fc36                	sd	a3,56(sp)
    80004d8e:	e0ba                	sd	a4,64(sp)
    80004d90:	e4be                	sd	a5,72(sp)
    80004d92:	e8c2                	sd	a6,80(sp)
    80004d94:	ecc6                	sd	a7,88(sp)
  va_list vl;
  va_start(vl, s);
    80004d96:	102c                	addi	a1,sp,40
    80004d98:	e42e                	sd	a1,8(sp)

  sprint(s, vl);
    80004d9a:	f47ff0ef          	jal	ra,80004ce0 <sprint>
  shutdown(-1);
    80004d9e:	557d                	li	a0,-1
    80004da0:	fb7ff0ef          	jal	ra,80004d56 <shutdown>

0000000080004da4 <kassert_fail>:

  va_end(vl);
}

void kassert_fail(const char* s) {
    80004da4:	1141                	addi	sp,sp,-16
    80004da6:	e406                	sd	ra,8(sp)
    80004da8:	862a                	mv	a2,a0
  register uintptr_t ra asm("ra");
  do_panic("assertion failed @ %p: %s\n", ra, s);
    80004daa:	8586                	mv	a1,ra
    80004dac:	00004517          	auipc	a0,0x4
    80004db0:	02c50513          	addi	a0,a0,44 # 80008dd8 <rfs_i_ops+0x1d48>
    80004db4:	fd1ff0ef          	jal	ra,80004d84 <do_panic>

0000000080004db8 <vsnprintf>:
//#include <stdarg.h>
//#include <stdbool.h>

#include "util/snprintf.h"

int32 vsnprintf(char* out, size_t n, const char* s, va_list vl) {
    80004db8:	1141                	addi	sp,sp,-16
    80004dba:	e436                	sd	a3,8(sp)
  bool format = FALSE;
  bool longarg = FALSE;
  size_t pos = 0;
    80004dbc:	4781                	li	a5,0
  bool longarg = FALSE;
    80004dbe:	4301                	li	t1,0
  bool format = FALSE;
    80004dc0:	4681                	li	a3,0

  for (; *s; s++) {
    80004dc2:	a271                	j	80004f4e <vsnprintf+0x196>
        case 'l':
          longarg = TRUE;
          break;
        case 'p':
          longarg = TRUE;
          if (++pos < n) out[pos - 1] = '0';
    80004dc4:	00178713          	addi	a4,a5,1
    80004dc8:	00b77863          	bgeu	a4,a1,80004dd8 <vsnprintf+0x20>
    80004dcc:	00f50833          	add	a6,a0,a5
    80004dd0:	03000893          	li	a7,48
    80004dd4:	01180023          	sb	a7,0(a6)
          if (++pos < n) out[pos - 1] = 'x';
    80004dd8:	0789                	addi	a5,a5,2
    80004dda:	00b7f763          	bgeu	a5,a1,80004de8 <vsnprintf+0x30>
    80004dde:	972a                	add	a4,a4,a0
    80004de0:	07800813          	li	a6,120
    80004de4:	01070023          	sb	a6,0(a4)
        case 'x': {
          long num = longarg ? va_arg(vl, long) : va_arg(vl, int);
    80004de8:	6722                	ld	a4,8(sp)
    80004dea:	00870813          	addi	a6,a4,8
    80004dee:	e442                	sd	a6,8(sp)
    80004df0:	00073883          	ld	a7,0(a4)
          for (int i = 2 * (longarg ? sizeof(long) : sizeof(int)) - 1; i >= 0; i--) {
    80004df4:	e6b9                	bnez	a3,80004e42 <vsnprintf+0x8a>
    80004df6:	469d                	li	a3,7
    80004df8:	a025                	j	80004e20 <vsnprintf+0x68>
          long num = longarg ? va_arg(vl, long) : va_arg(vl, int);
    80004dfa:	00030463          	beqz	t1,80004e02 <vsnprintf+0x4a>
    80004dfe:	869a                	mv	a3,t1
    80004e00:	b7e5                	j	80004de8 <vsnprintf+0x30>
    80004e02:	6722                	ld	a4,8(sp)
    80004e04:	00870693          	addi	a3,a4,8
    80004e08:	e436                	sd	a3,8(sp)
    80004e0a:	00072883          	lw	a7,0(a4)
    80004e0e:	869a                	mv	a3,t1
    80004e10:	b7d5                	j	80004df4 <vsnprintf+0x3c>
            int d = (num >> (4 * i)) & 0xF;
            if (++pos < n) out[pos - 1] = (d < 10 ? '0' + d : 'a' + d - 10);
    80004e12:	05770713          	addi	a4,a4,87
    80004e16:	97aa                	add	a5,a5,a0
    80004e18:	00e78023          	sb	a4,0(a5)
          for (int i = 2 * (longarg ? sizeof(long) : sizeof(int)) - 1; i >= 0; i--) {
    80004e1c:	36fd                	addiw	a3,a3,-1
            if (++pos < n) out[pos - 1] = (d < 10 ? '0' + d : 'a' + d - 10);
    80004e1e:	87c2                	mv	a5,a6
          for (int i = 2 * (longarg ? sizeof(long) : sizeof(int)) - 1; i >= 0; i--) {
    80004e20:	0206c363          	bltz	a3,80004e46 <vsnprintf+0x8e>
            int d = (num >> (4 * i)) & 0xF;
    80004e24:	0026971b          	slliw	a4,a3,0x2
    80004e28:	40e8d733          	sra	a4,a7,a4
    80004e2c:	8b3d                	andi	a4,a4,15
            if (++pos < n) out[pos - 1] = (d < 10 ? '0' + d : 'a' + d - 10);
    80004e2e:	00178813          	addi	a6,a5,1
    80004e32:	feb875e3          	bgeu	a6,a1,80004e1c <vsnprintf+0x64>
    80004e36:	4325                	li	t1,9
    80004e38:	fce34de3          	blt	t1,a4,80004e12 <vsnprintf+0x5a>
    80004e3c:	03070713          	addi	a4,a4,48
    80004e40:	bfd9                	j	80004e16 <vsnprintf+0x5e>
          for (int i = 2 * (longarg ? sizeof(long) : sizeof(int)) - 1; i >= 0; i--) {
    80004e42:	46bd                	li	a3,15
    80004e44:	bff1                	j	80004e20 <vsnprintf+0x68>
          }
          longarg = FALSE;
    80004e46:	4301                	li	t1,0
          format = FALSE;
    80004e48:	4681                	li	a3,0
    80004e4a:	a209                	j	80004f4c <vsnprintf+0x194>
          break;
        }
        case 'd': {
          long num = longarg ? va_arg(vl, long) : va_arg(vl, int);
    80004e4c:	00030d63          	beqz	t1,80004e66 <vsnprintf+0xae>
    80004e50:	6722                	ld	a4,8(sp)
    80004e52:	00870693          	addi	a3,a4,8
    80004e56:	e436                	sd	a3,8(sp)
    80004e58:	00073883          	ld	a7,0(a4)
          if (num < 0) {
    80004e5c:	0008cc63          	bltz	a7,80004e74 <vsnprintf+0xbc>
            num = -num;
            if (++pos < n) out[pos - 1] = '-';
          }
          long digits = 1;
          for (long nn = num; nn /= 10; digits++)
    80004e60:	8746                	mv	a4,a7
          long digits = 1;
    80004e62:	4305                	li	t1,1
          for (long nn = num; nn /= 10; digits++)
    80004e64:	a805                	j	80004e94 <vsnprintf+0xdc>
          long num = longarg ? va_arg(vl, long) : va_arg(vl, int);
    80004e66:	6722                	ld	a4,8(sp)
    80004e68:	00870693          	addi	a3,a4,8
    80004e6c:	e436                	sd	a3,8(sp)
    80004e6e:	00072883          	lw	a7,0(a4)
    80004e72:	b7ed                	j	80004e5c <vsnprintf+0xa4>
            num = -num;
    80004e74:	411008b3          	neg	a7,a7
            if (++pos < n) out[pos - 1] = '-';
    80004e78:	00178713          	addi	a4,a5,1
    80004e7c:	00b77963          	bgeu	a4,a1,80004e8e <vsnprintf+0xd6>
    80004e80:	97aa                	add	a5,a5,a0
    80004e82:	02d00693          	li	a3,45
    80004e86:	00d78023          	sb	a3,0(a5)
    80004e8a:	87ba                	mv	a5,a4
    80004e8c:	bfd1                	j	80004e60 <vsnprintf+0xa8>
    80004e8e:	87ba                	mv	a5,a4
    80004e90:	bfc1                	j	80004e60 <vsnprintf+0xa8>
          for (long nn = num; nn /= 10; digits++)
    80004e92:	0305                	addi	t1,t1,1
    80004e94:	46a9                	li	a3,10
    80004e96:	02d74733          	div	a4,a4,a3
    80004e9a:	ff65                	bnez	a4,80004e92 <vsnprintf+0xda>
            ;
          for (int i = digits - 1; i >= 0; i--) {
    80004e9c:	fff3071b          	addiw	a4,t1,-1
    80004ea0:	a029                	j	80004eaa <vsnprintf+0xf2>
            if (pos + i + 1 < n) out[pos + i] = '0' + (num % 10);
            num /= 10;
    80004ea2:	46a9                	li	a3,10
    80004ea4:	02d8c8b3          	div	a7,a7,a3
          for (int i = digits - 1; i >= 0; i--) {
    80004ea8:	377d                	addiw	a4,a4,-1
    80004eaa:	02074163          	bltz	a4,80004ecc <vsnprintf+0x114>
            if (pos + i + 1 < n) out[pos + i] = '0' + (num % 10);
    80004eae:	00f706b3          	add	a3,a4,a5
    80004eb2:	00168813          	addi	a6,a3,1
    80004eb6:	feb876e3          	bgeu	a6,a1,80004ea2 <vsnprintf+0xea>
    80004eba:	4829                	li	a6,10
    80004ebc:	0308e833          	rem	a6,a7,a6
    80004ec0:	96aa                	add	a3,a3,a0
    80004ec2:	0308081b          	addiw	a6,a6,48
    80004ec6:	01068023          	sb	a6,0(a3)
    80004eca:	bfe1                	j	80004ea2 <vsnprintf+0xea>
          }
          pos += digits;
    80004ecc:	979a                	add	a5,a5,t1
          longarg = FALSE;
    80004ece:	4301                	li	t1,0
          format = FALSE;
    80004ed0:	4681                	li	a3,0
          break;
    80004ed2:	a8ad                	j	80004f4c <vsnprintf+0x194>
        }
        case 's': {
          const char* s2 = va_arg(vl, const char*);
    80004ed4:	6722                	ld	a4,8(sp)
    80004ed6:	00870693          	addi	a3,a4,8
    80004eda:	e436                	sd	a3,8(sp)
    80004edc:	6318                	ld	a4,0(a4)
          while (*s2) {
    80004ede:	a019                	j	80004ee4 <vsnprintf+0x12c>
            if (++pos < n) out[pos - 1] = *s2;
            s2++;
    80004ee0:	0705                	addi	a4,a4,1
            if (++pos < n) out[pos - 1] = *s2;
    80004ee2:	87b6                	mv	a5,a3
          while (*s2) {
    80004ee4:	00074803          	lbu	a6,0(a4)
    80004ee8:	00080a63          	beqz	a6,80004efc <vsnprintf+0x144>
            if (++pos < n) out[pos - 1] = *s2;
    80004eec:	00178693          	addi	a3,a5,1
    80004ef0:	feb6f8e3          	bgeu	a3,a1,80004ee0 <vsnprintf+0x128>
    80004ef4:	97aa                	add	a5,a5,a0
    80004ef6:	01078023          	sb	a6,0(a5)
    80004efa:	b7dd                	j	80004ee0 <vsnprintf+0x128>
          }
          longarg = FALSE;
    80004efc:	4301                	li	t1,0
          format = FALSE;
    80004efe:	4681                	li	a3,0
    80004f00:	a0b1                	j	80004f4c <vsnprintf+0x194>
          break;
        }
        case 'c': {
          if (++pos < n) out[pos - 1] = (char)va_arg(vl, int);
    80004f02:	00178713          	addi	a4,a5,1
    80004f06:	02b77e63          	bgeu	a4,a1,80004f42 <vsnprintf+0x18a>
    80004f0a:	66a2                	ld	a3,8(sp)
    80004f0c:	00868813          	addi	a6,a3,8
    80004f10:	e442                	sd	a6,8(sp)
    80004f12:	97aa                	add	a5,a5,a0
    80004f14:	0006c683          	lbu	a3,0(a3)
    80004f18:	00d78023          	sb	a3,0(a5)
    80004f1c:	87ba                	mv	a5,a4
          longarg = FALSE;
    80004f1e:	4301                	li	t1,0
          format = FALSE;
    80004f20:	4681                	li	a3,0
    80004f22:	a02d                	j	80004f4c <vsnprintf+0x194>
          break;
        }
        default:
          break;
      }
    } else if (*s == '%')
    80004f24:	02500813          	li	a6,37
    80004f28:	03070163          	beq	a4,a6,80004f4a <vsnprintf+0x192>
      format = TRUE;
    else if (++pos < n)
    80004f2c:	00178813          	addi	a6,a5,1
    80004f30:	04b87463          	bgeu	a6,a1,80004f78 <vsnprintf+0x1c0>
      out[pos - 1] = *s;
    80004f34:	97aa                	add	a5,a5,a0
    80004f36:	00e78023          	sb	a4,0(a5)
    else if (++pos < n)
    80004f3a:	87c2                	mv	a5,a6
    80004f3c:	a801                	j	80004f4c <vsnprintf+0x194>
          longarg = TRUE;
    80004f3e:	8336                	mv	t1,a3
    80004f40:	a031                	j	80004f4c <vsnprintf+0x194>
          if (++pos < n) out[pos - 1] = (char)va_arg(vl, int);
    80004f42:	87ba                	mv	a5,a4
          longarg = FALSE;
    80004f44:	4301                	li	t1,0
          format = FALSE;
    80004f46:	4681                	li	a3,0
    80004f48:	a011                	j	80004f4c <vsnprintf+0x194>
      format = TRUE;
    80004f4a:	4685                	li	a3,1
  for (; *s; s++) {
    80004f4c:	0605                	addi	a2,a2,1
    80004f4e:	00064703          	lbu	a4,0(a2)
    80004f52:	c70d                	beqz	a4,80004f7c <vsnprintf+0x1c4>
    if (format) {
    80004f54:	dae1                	beqz	a3,80004f24 <vsnprintf+0x16c>
      switch (*s) {
    80004f56:	f9d7071b          	addiw	a4,a4,-99
    80004f5a:	0ff77893          	zext.b	a7,a4
    80004f5e:	4855                	li	a6,21
    80004f60:	ff1866e3          	bltu	a6,a7,80004f4c <vsnprintf+0x194>
    80004f64:	00289713          	slli	a4,a7,0x2
    80004f68:	00002817          	auipc	a6,0x2
    80004f6c:	25880813          	addi	a6,a6,600 # 800071c0 <rfs_i_ops+0x130>
    80004f70:	9742                	add	a4,a4,a6
    80004f72:	4318                	lw	a4,0(a4)
    80004f74:	9742                	add	a4,a4,a6
    80004f76:	8702                	jr	a4
    else if (++pos < n)
    80004f78:	87c2                	mv	a5,a6
    80004f7a:	bfc9                	j	80004f4c <vsnprintf+0x194>
  }
  if (pos < n)
    80004f7c:	00b7f963          	bgeu	a5,a1,80004f8e <vsnprintf+0x1d6>
    out[pos] = 0;
    80004f80:	953e                	add	a0,a0,a5
    80004f82:	00050023          	sb	zero,0(a0)
  else if (n)
    out[n - 1] = 0;
  return pos;
}
    80004f86:	0007851b          	sext.w	a0,a5
    80004f8a:	0141                	addi	sp,sp,16
    80004f8c:	8082                	ret
  else if (n)
    80004f8e:	dde5                	beqz	a1,80004f86 <vsnprintf+0x1ce>
    out[n - 1] = 0;
    80004f90:	15fd                	addi	a1,a1,-1
    80004f92:	952e                	add	a0,a0,a1
    80004f94:	00050023          	sb	zero,0(a0)
    80004f98:	b7fd                	j	80004f86 <vsnprintf+0x1ce>

0000000080004f9a <fdt_scan_helper>:
  uint32 z = (y & 0x0000FFFF) << 16 | (y & 0xFFFF0000) >> 16;
  return z;
}

static uint32 *fdt_scan_helper(uint32 *lex, const char *strings, struct fdt_scan_node *node,
                               const struct fdt_cb *cb) {
    80004f9a:	7159                	addi	sp,sp,-112
    80004f9c:	f486                	sd	ra,104(sp)
    80004f9e:	f0a2                	sd	s0,96(sp)
    80004fa0:	eca6                	sd	s1,88(sp)
    80004fa2:	e8ca                	sd	s2,80(sp)
    80004fa4:	e4ce                	sd	s3,72(sp)
    80004fa6:	e0d2                	sd	s4,64(sp)
    80004fa8:	842a                	mv	s0,a0
    80004faa:	89ae                	mv	s3,a1
    80004fac:	84b2                	mv	s1,a2
    80004fae:	8936                	mv	s2,a3
  struct fdt_scan_node child;
  struct fdt_scan_prop prop;
  int last = 0;

  child.parent = node;
    80004fb0:	f432                	sd	a2,40(sp)
  // these are the default cell counts, as per the FDT spec
  child.address_cells = 2;
    80004fb2:	4789                	li	a5,2
    80004fb4:	dc3e                	sw	a5,56(sp)
  child.size_cells = 1;
    80004fb6:	4785                	li	a5,1
    80004fb8:	de3e                	sw	a5,60(sp)
  prop.node = node;
    80004fba:	e432                	sd	a2,8(sp)
  int last = 0;
    80004fbc:	4a01                	li	s4,0

  while (1) {
    switch (bswap(lex[0])) {
    80004fbe:	401c                	lw	a5,0(s0)
  uint32 y = (x & 0x00FF00FF) << 8 | (x & 0xFF00FF00) >> 8;
    80004fc0:	0087971b          	slliw	a4,a5,0x8
    80004fc4:	ff0106b7          	lui	a3,0xff010
    80004fc8:	f0068693          	addi	a3,a3,-256 # ffffffffff00ff00 <_end+0xffffffff7effef00>
    80004fcc:	8f75                	and	a4,a4,a3
    80004fce:	2701                	sext.w	a4,a4
    80004fd0:	0087d69b          	srliw	a3,a5,0x8
    80004fd4:	00ff07b7          	lui	a5,0xff0
    80004fd8:	0ff78793          	addi	a5,a5,255 # ff00ff <elf_fpread-0x7f00ff01>
    80004fdc:	8ff5                	and	a5,a5,a3
    80004fde:	8fd9                	or	a5,a5,a4
  uint32 z = (y & 0x0000FFFF) << 16 | (y & 0xFFFF0000) >> 16;
    80004fe0:	0107971b          	slliw	a4,a5,0x10
    80004fe4:	0107d79b          	srliw	a5,a5,0x10
    80004fe8:	8fd9                	or	a5,a5,a4
    80004fea:	2781                	sext.w	a5,a5
    switch (bswap(lex[0])) {
    80004fec:	470d                	li	a4,3
    80004fee:	04e78663          	beq	a5,a4,8000503a <fdt_scan_helper+0xa0>
    80004ff2:	02f76f63          	bltu	a4,a5,80005030 <fdt_scan_helper+0x96>
    80004ff6:	4705                	li	a4,1
    80004ff8:	16e78563          	beq	a5,a4,80005162 <fdt_scan_helper+0x1c8>
    80004ffc:	4709                	li	a4,2
    80004ffe:	1ce79963          	bne	a5,a4,800051d0 <fdt_scan_helper+0x236>
          while (lex != lex_next) *lex++ = bswap(FDT_NOP);
        lex = lex_next;
        break;
      }
      case FDT_END_NODE: {
        if (!last && node && cb->done) cb->done(node, cb->extra);
    80005002:	000a1a63          	bnez	s4,80005016 <fdt_scan_helper+0x7c>
    80005006:	c881                	beqz	s1,80005016 <fdt_scan_helper+0x7c>
    80005008:	01093783          	ld	a5,16(s2)
    8000500c:	c789                	beqz	a5,80005016 <fdt_scan_helper+0x7c>
    8000500e:	02093583          	ld	a1,32(s2)
    80005012:	8526                	mv	a0,s1
    80005014:	9782                	jalr	a5
        return lex + 1;
    80005016:	00440513          	addi	a0,s0,4
        if (!last && node && cb->done) cb->done(node, cb->extra);
        return lex;
      }
    }
  }
}
    8000501a:	70a6                	ld	ra,104(sp)
    8000501c:	7406                	ld	s0,96(sp)
    8000501e:	64e6                	ld	s1,88(sp)
    80005020:	6946                	ld	s2,80(sp)
    80005022:	69a6                	ld	s3,72(sp)
    80005024:	6a06                	ld	s4,64(sp)
    80005026:	6165                	addi	sp,sp,112
    80005028:	8082                	ret
        lex = lex_next;
    8000502a:	8452                	mv	s0,s4
        last = 1;
    8000502c:	4a05                	li	s4,1
    8000502e:	bf41                	j	80004fbe <fdt_scan_helper+0x24>
    switch (bswap(lex[0])) {
    80005030:	4711                	li	a4,4
    80005032:	18e79f63          	bne	a5,a4,800051d0 <fdt_scan_helper+0x236>
        lex += 1;
    80005036:	0411                	addi	s0,s0,4
        break;
    80005038:	b759                	j	80004fbe <fdt_scan_helper+0x24>
        assert(!last);
    8000503a:	100a1063          	bnez	s4,8000513a <fdt_scan_helper+0x1a0>
        prop.name = strings + bswap(lex[2]);
    8000503e:	4418                	lw	a4,8(s0)
  uint32 y = (x & 0x00FF00FF) << 8 | (x & 0xFF00FF00) >> 8;
    80005040:	0087179b          	slliw	a5,a4,0x8
    80005044:	ff010637          	lui	a2,0xff010
    80005048:	f0060613          	addi	a2,a2,-256 # ffffffffff00ff00 <_end+0xffffffff7effef00>
    8000504c:	8ff1                	and	a5,a5,a2
    8000504e:	2781                	sext.w	a5,a5
    80005050:	0087569b          	srliw	a3,a4,0x8
    80005054:	00ff0737          	lui	a4,0xff0
    80005058:	0ff70713          	addi	a4,a4,255 # ff00ff <elf_fpread-0x7f00ff01>
    8000505c:	8ef9                	and	a3,a3,a4
    8000505e:	8fd5                	or	a5,a5,a3
  uint32 z = (y & 0x0000FFFF) << 16 | (y & 0xFFFF0000) >> 16;
    80005060:	0107951b          	slliw	a0,a5,0x10
    80005064:	0107d79b          	srliw	a5,a5,0x10
    80005068:	8d5d                	or	a0,a0,a5
        prop.name = strings + bswap(lex[2]);
    8000506a:	1502                	slli	a0,a0,0x20
    8000506c:	9101                	srli	a0,a0,0x20
    8000506e:	954e                	add	a0,a0,s3
    80005070:	e82a                	sd	a0,16(sp)
        prop.len = bswap(lex[1]);
    80005072:	4054                	lw	a3,4(s0)
  uint32 y = (x & 0x00FF00FF) << 8 | (x & 0xFF00FF00) >> 8;
    80005074:	0086979b          	slliw	a5,a3,0x8
    80005078:	8ff1                	and	a5,a5,a2
    8000507a:	2781                	sext.w	a5,a5
    8000507c:	0086d69b          	srliw	a3,a3,0x8
    80005080:	8f75                	and	a4,a4,a3
    80005082:	8fd9                	or	a5,a5,a4
  uint32 z = (y & 0x0000FFFF) << 16 | (y & 0xFFFF0000) >> 16;
    80005084:	0107971b          	slliw	a4,a5,0x10
    80005088:	0107d79b          	srliw	a5,a5,0x10
    8000508c:	8fd9                	or	a5,a5,a4
        prop.len = bswap(lex[1]);
    8000508e:	d03e                	sw	a5,32(sp)
        prop.value = lex + 3;
    80005090:	00c40793          	addi	a5,s0,12
    80005094:	ec3e                	sd	a5,24(sp)
        if (node && !strcmp(prop.name, "#address-cells")) {
    80005096:	cc9d                	beqz	s1,800050d4 <fdt_scan_helper+0x13a>
    80005098:	00004597          	auipc	a1,0x4
    8000509c:	d8858593          	addi	a1,a1,-632 # 80008e20 <rfs_i_ops+0x1d90>
    800050a0:	9faff0ef          	jal	ra,8000429a <strcmp>
    800050a4:	e905                	bnez	a0,800050d4 <fdt_scan_helper+0x13a>
          node->address_cells = bswap(lex[3]);
    800050a6:	4458                	lw	a4,12(s0)
  uint32 y = (x & 0x00FF00FF) << 8 | (x & 0xFF00FF00) >> 8;
    800050a8:	0087179b          	slliw	a5,a4,0x8
    800050ac:	ff0106b7          	lui	a3,0xff010
    800050b0:	f0068693          	addi	a3,a3,-256 # ffffffffff00ff00 <_end+0xffffffff7effef00>
    800050b4:	8ff5                	and	a5,a5,a3
    800050b6:	2781                	sext.w	a5,a5
    800050b8:	0087569b          	srliw	a3,a4,0x8
    800050bc:	00ff0737          	lui	a4,0xff0
    800050c0:	0ff70713          	addi	a4,a4,255 # ff00ff <elf_fpread-0x7f00ff01>
    800050c4:	8f75                	and	a4,a4,a3
    800050c6:	8fd9                	or	a5,a5,a4
  uint32 z = (y & 0x0000FFFF) << 16 | (y & 0xFFFF0000) >> 16;
    800050c8:	0107971b          	slliw	a4,a5,0x10
    800050cc:	0107d79b          	srliw	a5,a5,0x10
    800050d0:	8fd9                	or	a5,a5,a4
          node->address_cells = bswap(lex[3]);
    800050d2:	c89c                	sw	a5,16(s1)
        if (node && !strcmp(prop.name, "#size-cells")) {
    800050d4:	c0a1                	beqz	s1,80005114 <fdt_scan_helper+0x17a>
    800050d6:	00004597          	auipc	a1,0x4
    800050da:	d5a58593          	addi	a1,a1,-678 # 80008e30 <rfs_i_ops+0x1da0>
    800050de:	6542                	ld	a0,16(sp)
    800050e0:	9baff0ef          	jal	ra,8000429a <strcmp>
    800050e4:	e905                	bnez	a0,80005114 <fdt_scan_helper+0x17a>
          node->size_cells = bswap(lex[3]);
    800050e6:	4458                	lw	a4,12(s0)
  uint32 y = (x & 0x00FF00FF) << 8 | (x & 0xFF00FF00) >> 8;
    800050e8:	0087179b          	slliw	a5,a4,0x8
    800050ec:	ff0106b7          	lui	a3,0xff010
    800050f0:	f0068693          	addi	a3,a3,-256 # ffffffffff00ff00 <_end+0xffffffff7effef00>
    800050f4:	8ff5                	and	a5,a5,a3
    800050f6:	2781                	sext.w	a5,a5
    800050f8:	0087569b          	srliw	a3,a4,0x8
    800050fc:	00ff0737          	lui	a4,0xff0
    80005100:	0ff70713          	addi	a4,a4,255 # ff00ff <elf_fpread-0x7f00ff01>
    80005104:	8f75                	and	a4,a4,a3
    80005106:	8fd9                	or	a5,a5,a4
  uint32 z = (y & 0x0000FFFF) << 16 | (y & 0xFFFF0000) >> 16;
    80005108:	0107971b          	slliw	a4,a5,0x10
    8000510c:	0107d79b          	srliw	a5,a5,0x10
    80005110:	8fd9                	or	a5,a5,a4
          node->size_cells = bswap(lex[3]);
    80005112:	c8dc                	sw	a5,20(s1)
        lex += 3 + (prop.len + 3) / 4;
    80005114:	5702                	lw	a4,32(sp)
    80005116:	270d                	addiw	a4,a4,3
    80005118:	41f7579b          	sraiw	a5,a4,0x1f
    8000511c:	01e7d79b          	srliw	a5,a5,0x1e
    80005120:	9fb9                	addw	a5,a5,a4
    80005122:	4027d79b          	sraiw	a5,a5,0x2
    80005126:	278d                	addiw	a5,a5,3
    80005128:	078a                	slli	a5,a5,0x2
    8000512a:	943e                	add	s0,s0,a5
        cb->prop(&prop, cb->extra);
    8000512c:	00893783          	ld	a5,8(s2)
    80005130:	02093583          	ld	a1,32(s2)
    80005134:	0028                	addi	a0,sp,8
    80005136:	9782                	jalr	a5
        break;
    80005138:	b559                	j	80004fbe <fdt_scan_helper+0x24>
        assert(!last);
    8000513a:	00004697          	auipc	a3,0x4
    8000513e:	cbe68693          	addi	a3,a3,-834 # 80008df8 <rfs_i_ops+0x1d68>
    80005142:	02400613          	li	a2,36
    80005146:	00004597          	auipc	a1,0x4
    8000514a:	cba58593          	addi	a1,a1,-838 # 80008e00 <rfs_i_ops+0x1d70>
    8000514e:	00003517          	auipc	a0,0x3
    80005152:	81250513          	addi	a0,a0,-2030 # 80007960 <rfs_i_ops+0x8d0>
    80005156:	b8bff0ef          	jal	ra,80004ce0 <sprint>
    8000515a:	6541                	lui	a0,0x10
    8000515c:	157d                	addi	a0,a0,-1
    8000515e:	ba3ff0ef          	jal	ra,80004d00 <poweroff>
        if (!last && node && cb->done) cb->done(node, cb->extra);
    80005162:	000a1a63          	bnez	s4,80005176 <fdt_scan_helper+0x1dc>
    80005166:	c881                	beqz	s1,80005176 <fdt_scan_helper+0x1dc>
    80005168:	01093783          	ld	a5,16(s2)
    8000516c:	c789                	beqz	a5,80005176 <fdt_scan_helper+0x1dc>
    8000516e:	02093583          	ld	a1,32(s2)
    80005172:	8526                	mv	a0,s1
    80005174:	9782                	jalr	a5
        child.name = (const char *)(lex + 1);
    80005176:	00440793          	addi	a5,s0,4
    8000517a:	f83e                	sd	a5,48(sp)
        if (cb->open) cb->open(&child, cb->extra);
    8000517c:	00093783          	ld	a5,0(s2)
    80005180:	c789                	beqz	a5,8000518a <fdt_scan_helper+0x1f0>
    80005182:	02093583          	ld	a1,32(s2)
    80005186:	1028                	addi	a0,sp,40
    80005188:	9782                	jalr	a5
        lex_next = fdt_scan_helper(lex + 2 + strlen(child.name) / 4, strings, &child, cb);
    8000518a:	7542                	ld	a0,48(sp)
    8000518c:	8fcff0ef          	jal	ra,80004288 <strlen>
    80005190:	9971                	andi	a0,a0,-4
    80005192:	0521                	addi	a0,a0,8
    80005194:	86ca                	mv	a3,s2
    80005196:	1030                	addi	a2,sp,40
    80005198:	85ce                	mv	a1,s3
    8000519a:	9522                	add	a0,a0,s0
    8000519c:	dffff0ef          	jal	ra,80004f9a <fdt_scan_helper>
    800051a0:	8a2a                	mv	s4,a0
        if (cb->close && cb->close(&child, cb->extra) == -1)
    800051a2:	01893783          	ld	a5,24(s2)
    800051a6:	e80782e3          	beqz	a5,8000502a <fdt_scan_helper+0x90>
    800051aa:	02093583          	ld	a1,32(s2)
    800051ae:	1028                	addi	a0,sp,40
    800051b0:	9782                	jalr	a5
    800051b2:	57fd                	li	a5,-1
    800051b4:	00f50963          	beq	a0,a5,800051c6 <fdt_scan_helper+0x22c>
        lex = lex_next;
    800051b8:	8452                	mv	s0,s4
        last = 1;
    800051ba:	4a05                	li	s4,1
    800051bc:	b509                	j	80004fbe <fdt_scan_helper+0x24>
          while (lex != lex_next) *lex++ = bswap(FDT_NOP);
    800051be:	040007b7          	lui	a5,0x4000
    800051c2:	c01c                	sw	a5,0(s0)
    800051c4:	0411                	addi	s0,s0,4
    800051c6:	ff441ce3          	bne	s0,s4,800051be <fdt_scan_helper+0x224>
        lex = lex_next;
    800051ca:	8452                	mv	s0,s4
        last = 1;
    800051cc:	4a05                	li	s4,1
    800051ce:	bbc5                	j	80004fbe <fdt_scan_helper+0x24>
        if (!last && node && cb->done) cb->done(node, cb->extra);
    800051d0:	000a1c63          	bnez	s4,800051e8 <fdt_scan_helper+0x24e>
    800051d4:	cc81                	beqz	s1,800051ec <fdt_scan_helper+0x252>
    800051d6:	01093783          	ld	a5,16(s2)
    800051da:	cb99                	beqz	a5,800051f0 <fdt_scan_helper+0x256>
    800051dc:	02093583          	ld	a1,32(s2)
    800051e0:	8526                	mv	a0,s1
    800051e2:	9782                	jalr	a5
        return lex;
    800051e4:	8522                	mv	a0,s0
    800051e6:	bd15                	j	8000501a <fdt_scan_helper+0x80>
    800051e8:	8522                	mv	a0,s0
    800051ea:	bd05                	j	8000501a <fdt_scan_helper+0x80>
    800051ec:	8522                	mv	a0,s0
    800051ee:	b535                	j	8000501a <fdt_scan_helper+0x80>
    800051f0:	8522                	mv	a0,s0
    800051f2:	b525                	j	8000501a <fdt_scan_helper+0x80>

00000000800051f4 <fdt_get_address>:

const uint32 *fdt_get_address(const struct fdt_scan_node *node, const uint32 *value,
                              uint64 *result) {
  *result = 0;
    800051f4:	00063023          	sd	zero,0(a2)
  for (int cells = node->address_cells; cells > 0; --cells)
    800051f8:	4908                	lw	a0,16(a0)
    800051fa:	a091                	j	8000523e <fdt_get_address+0x4a>
    *result = (*result << 32) + bswap(*value++);
    800051fc:	621c                	ld	a5,0(a2)
    800051fe:	02079713          	slli	a4,a5,0x20
    80005202:	4194                	lw	a3,0(a1)
  uint32 y = (x & 0x00FF00FF) << 8 | (x & 0xFF00FF00) >> 8;
    80005204:	0086979b          	slliw	a5,a3,0x8
    80005208:	ff010837          	lui	a6,0xff010
    8000520c:	f0080813          	addi	a6,a6,-256 # ffffffffff00ff00 <_end+0xffffffff7effef00>
    80005210:	0107f7b3          	and	a5,a5,a6
    80005214:	2781                	sext.w	a5,a5
    80005216:	0086d81b          	srliw	a6,a3,0x8
    8000521a:	00ff06b7          	lui	a3,0xff0
    8000521e:	0ff68693          	addi	a3,a3,255 # ff00ff <elf_fpread-0x7f00ff01>
    80005222:	0106f6b3          	and	a3,a3,a6
    80005226:	8fd5                	or	a5,a5,a3
  uint32 z = (y & 0x0000FFFF) << 16 | (y & 0xFFFF0000) >> 16;
    80005228:	0107969b          	slliw	a3,a5,0x10
    8000522c:	0107d79b          	srliw	a5,a5,0x10
    80005230:	8fd5                	or	a5,a5,a3
    *result = (*result << 32) + bswap(*value++);
    80005232:	1782                	slli	a5,a5,0x20
    80005234:	9381                	srli	a5,a5,0x20
    80005236:	97ba                	add	a5,a5,a4
    80005238:	e21c                	sd	a5,0(a2)
  for (int cells = node->address_cells; cells > 0; --cells)
    8000523a:	357d                	addiw	a0,a0,-1
    *result = (*result << 32) + bswap(*value++);
    8000523c:	0591                	addi	a1,a1,4
  for (int cells = node->address_cells; cells > 0; --cells)
    8000523e:	faa04fe3          	bgtz	a0,800051fc <fdt_get_address+0x8>
  return value;
}
    80005242:	852e                	mv	a0,a1
    80005244:	8082                	ret

0000000080005246 <fdt_get_size>:

const uint32 *fdt_get_size(const struct fdt_scan_node *node, const uint32 *value, uint64 *result) {
  *result = 0;
    80005246:	00063023          	sd	zero,0(a2)
  for (int cells = node->size_cells; cells > 0; --cells)
    8000524a:	4948                	lw	a0,20(a0)
    8000524c:	a091                	j	80005290 <fdt_get_size+0x4a>
    *result = (*result << 32) + bswap(*value++);
    8000524e:	621c                	ld	a5,0(a2)
    80005250:	02079713          	slli	a4,a5,0x20
    80005254:	4194                	lw	a3,0(a1)
  uint32 y = (x & 0x00FF00FF) << 8 | (x & 0xFF00FF00) >> 8;
    80005256:	0086979b          	slliw	a5,a3,0x8
    8000525a:	ff010837          	lui	a6,0xff010
    8000525e:	f0080813          	addi	a6,a6,-256 # ffffffffff00ff00 <_end+0xffffffff7effef00>
    80005262:	0107f7b3          	and	a5,a5,a6
    80005266:	2781                	sext.w	a5,a5
    80005268:	0086d81b          	srliw	a6,a3,0x8
    8000526c:	00ff06b7          	lui	a3,0xff0
    80005270:	0ff68693          	addi	a3,a3,255 # ff00ff <elf_fpread-0x7f00ff01>
    80005274:	0106f6b3          	and	a3,a3,a6
    80005278:	8fd5                	or	a5,a5,a3
  uint32 z = (y & 0x0000FFFF) << 16 | (y & 0xFFFF0000) >> 16;
    8000527a:	0107969b          	slliw	a3,a5,0x10
    8000527e:	0107d79b          	srliw	a5,a5,0x10
    80005282:	8fd5                	or	a5,a5,a3
    *result = (*result << 32) + bswap(*value++);
    80005284:	1782                	slli	a5,a5,0x20
    80005286:	9381                	srli	a5,a5,0x20
    80005288:	97ba                	add	a5,a5,a4
    8000528a:	e21c                	sd	a5,0(a2)
  for (int cells = node->size_cells; cells > 0; --cells)
    8000528c:	357d                	addiw	a0,a0,-1
    *result = (*result << 32) + bswap(*value++);
    8000528e:	0591                	addi	a1,a1,4
  for (int cells = node->size_cells; cells > 0; --cells)
    80005290:	faa04fe3          	bgtz	a0,8000524e <fdt_get_size+0x8>
  return value;
}
    80005294:	852e                	mv	a0,a1
    80005296:	8082                	ret

0000000080005298 <fdt_scan>:

void fdt_scan(uint64 fdt, const struct fdt_cb *cb) {
  struct fdt_header *header = (struct fdt_header *)fdt;

  // Only process FDT that we understand
  if (bswap(header->magic) != FDT_MAGIC || bswap(header->last_comp_version) > FDT_VERSION) return;
    80005298:	411c                	lw	a5,0(a0)
  uint32 y = (x & 0x00FF00FF) << 8 | (x & 0xFF00FF00) >> 8;
    8000529a:	0087971b          	slliw	a4,a5,0x8
    8000529e:	ff010637          	lui	a2,0xff010
    800052a2:	f0060613          	addi	a2,a2,-256 # ffffffffff00ff00 <_end+0xffffffff7effef00>
    800052a6:	8f71                	and	a4,a4,a2
    800052a8:	2701                	sext.w	a4,a4
    800052aa:	0087d61b          	srliw	a2,a5,0x8
    800052ae:	00ff07b7          	lui	a5,0xff0
    800052b2:	0ff78793          	addi	a5,a5,255 # ff00ff <elf_fpread-0x7f00ff01>
    800052b6:	8ff1                	and	a5,a5,a2
    800052b8:	8fd9                	or	a5,a5,a4
  uint32 z = (y & 0x0000FFFF) << 16 | (y & 0xFFFF0000) >> 16;
    800052ba:	0107971b          	slliw	a4,a5,0x10
    800052be:	0107d79b          	srliw	a5,a5,0x10
    800052c2:	8fd9                	or	a5,a5,a4
    800052c4:	2781                	sext.w	a5,a5
  if (bswap(header->magic) != FDT_MAGIC || bswap(header->last_comp_version) > FDT_VERSION) return;
    800052c6:	d00e0737          	lui	a4,0xd00e0
    800052ca:	eed70713          	addi	a4,a4,-275 # ffffffffd00dfeed <_end+0xffffffff500ceeed>
    800052ce:	02e79d63          	bne	a5,a4,80005308 <fdt_scan+0x70>
    800052d2:	86ae                	mv	a3,a1
    800052d4:	4d18                	lw	a4,24(a0)
  uint32 y = (x & 0x00FF00FF) << 8 | (x & 0xFF00FF00) >> 8;
    800052d6:	0087179b          	slliw	a5,a4,0x8
    800052da:	ff010637          	lui	a2,0xff010
    800052de:	f0060613          	addi	a2,a2,-256 # ffffffffff00ff00 <_end+0xffffffff7effef00>
    800052e2:	8ff1                	and	a5,a5,a2
    800052e4:	2781                	sext.w	a5,a5
    800052e6:	0087561b          	srliw	a2,a4,0x8
    800052ea:	00ff0737          	lui	a4,0xff0
    800052ee:	0ff70713          	addi	a4,a4,255 # ff00ff <elf_fpread-0x7f00ff01>
    800052f2:	8f71                	and	a4,a4,a2
    800052f4:	8fd9                	or	a5,a5,a4
  uint32 z = (y & 0x0000FFFF) << 16 | (y & 0xFFFF0000) >> 16;
    800052f6:	0107971b          	slliw	a4,a5,0x10
    800052fa:	0107d79b          	srliw	a5,a5,0x10
    800052fe:	8fd9                	or	a5,a5,a4
    80005300:	2781                	sext.w	a5,a5
  if (bswap(header->magic) != FDT_MAGIC || bswap(header->last_comp_version) > FDT_VERSION) return;
    80005302:	4745                	li	a4,17
    80005304:	00f77363          	bgeu	a4,a5,8000530a <fdt_scan+0x72>
    80005308:	8082                	ret
void fdt_scan(uint64 fdt, const struct fdt_cb *cb) {
    8000530a:	1141                	addi	sp,sp,-16
    8000530c:	e406                	sd	ra,8(sp)

  const char *strings = (const char *)(fdt + bswap(header->off_dt_strings));
    8000530e:	4558                	lw	a4,12(a0)
  uint32 y = (x & 0x00FF00FF) << 8 | (x & 0xFF00FF00) >> 8;
    80005310:	0087179b          	slliw	a5,a4,0x8
    80005314:	ff010837          	lui	a6,0xff010
    80005318:	f0080813          	addi	a6,a6,-256 # ffffffffff00ff00 <_end+0xffffffff7effef00>
    8000531c:	0107f7b3          	and	a5,a5,a6
    80005320:	2781                	sext.w	a5,a5
    80005322:	0087561b          	srliw	a2,a4,0x8
    80005326:	00ff0737          	lui	a4,0xff0
    8000532a:	0ff70713          	addi	a4,a4,255 # ff00ff <elf_fpread-0x7f00ff01>
    8000532e:	8e79                	and	a2,a2,a4
    80005330:	8fd1                	or	a5,a5,a2
  uint32 z = (y & 0x0000FFFF) << 16 | (y & 0xFFFF0000) >> 16;
    80005332:	0107959b          	slliw	a1,a5,0x10
    80005336:	0107d79b          	srliw	a5,a5,0x10
    8000533a:	8ddd                	or	a1,a1,a5
  const char *strings = (const char *)(fdt + bswap(header->off_dt_strings));
    8000533c:	1582                	slli	a1,a1,0x20
    8000533e:	9181                	srli	a1,a1,0x20
  uint32 *lex = (uint32 *)(fdt + bswap(header->off_dt_struct));
    80005340:	4510                	lw	a2,8(a0)
  uint32 y = (x & 0x00FF00FF) << 8 | (x & 0xFF00FF00) >> 8;
    80005342:	0086179b          	slliw	a5,a2,0x8
    80005346:	0107f7b3          	and	a5,a5,a6
    8000534a:	2781                	sext.w	a5,a5
    8000534c:	0086561b          	srliw	a2,a2,0x8
    80005350:	8f71                	and	a4,a4,a2
    80005352:	8fd9                	or	a5,a5,a4
  uint32 z = (y & 0x0000FFFF) << 16 | (y & 0xFFFF0000) >> 16;
    80005354:	0107971b          	slliw	a4,a5,0x10
    80005358:	0107d79b          	srliw	a5,a5,0x10
    8000535c:	8fd9                	or	a5,a5,a4
  uint32 *lex = (uint32 *)(fdt + bswap(header->off_dt_struct));
    8000535e:	1782                	slli	a5,a5,0x20
    80005360:	9381                	srli	a5,a5,0x20

  fdt_scan_helper(lex, strings, 0, cb);
    80005362:	4601                	li	a2,0
    80005364:	95aa                	add	a1,a1,a0
    80005366:	953e                	add	a0,a0,a5
    80005368:	c33ff0ef          	jal	ra,80004f9a <fdt_scan_helper>
}
    8000536c:	60a2                	ld	ra,8(sp)
    8000536e:	0141                	addi	sp,sp,16
    80005370:	8082                	ret
	...

0000000080006000 <_trap_sec_start>:
    80006000:	14051573          	csrrw	a0,sscratch,a0
    80006004:	8faa                	mv	t6,a0
    80006006:	001fb023          	sd	ra,0(t6)
    8000600a:	002fb423          	sd	sp,8(t6)
    8000600e:	003fb823          	sd	gp,16(t6)
    80006012:	004fbc23          	sd	tp,24(t6)
    80006016:	025fb023          	sd	t0,32(t6)
    8000601a:	026fb423          	sd	t1,40(t6)
    8000601e:	027fb823          	sd	t2,48(t6)
    80006022:	028fbc23          	sd	s0,56(t6)
    80006026:	049fb023          	sd	s1,64(t6)
    8000602a:	04afb423          	sd	a0,72(t6)
    8000602e:	04bfb823          	sd	a1,80(t6)
    80006032:	04cfbc23          	sd	a2,88(t6)
    80006036:	06dfb023          	sd	a3,96(t6)
    8000603a:	06efb423          	sd	a4,104(t6)
    8000603e:	06ffb823          	sd	a5,112(t6)
    80006042:	070fbc23          	sd	a6,120(t6)
    80006046:	091fb023          	sd	a7,128(t6)
    8000604a:	092fb423          	sd	s2,136(t6)
    8000604e:	093fb823          	sd	s3,144(t6)
    80006052:	094fbc23          	sd	s4,152(t6)
    80006056:	0b5fb023          	sd	s5,160(t6)
    8000605a:	0b6fb423          	sd	s6,168(t6)
    8000605e:	0b7fb823          	sd	s7,176(t6)
    80006062:	0b8fbc23          	sd	s8,184(t6)
    80006066:	0d9fb023          	sd	s9,192(t6)
    8000606a:	0dafb423          	sd	s10,200(t6)
    8000606e:	0dbfb823          	sd	s11,208(t6)
    80006072:	0dcfbc23          	sd	t3,216(t6)
    80006076:	0fdfb023          	sd	t4,224(t6)
    8000607a:	0fefb423          	sd	t5,232(t6)
    8000607e:	0fffb823          	sd	t6,240(t6)
    80006082:	140022f3          	csrr	t0,sscratch
    80006086:	04553423          	sd	t0,72(a0) # 10048 <elf_fpread-0x7ffeffb8>
    8000608a:	0f853103          	ld	sp,248(a0)
    8000608e:	10053283          	ld	t0,256(a0)
    80006092:	11053303          	ld	t1,272(a0)
    80006096:	18031073          	csrw	satp,t1
    8000609a:	12000073          	sfence.vma
    8000609e:	8282                	jr	t0

00000000800060a0 <return_to_user>:
    800060a0:	18059073          	csrw	satp,a1
    800060a4:	12000073          	sfence.vma
    800060a8:	14051073          	csrw	sscratch,a0
    800060ac:	8faa                	mv	t6,a0
    800060ae:	000fb083          	ld	ra,0(t6)
    800060b2:	008fb103          	ld	sp,8(t6)
    800060b6:	010fb183          	ld	gp,16(t6)
    800060ba:	018fb203          	ld	tp,24(t6)
    800060be:	020fb283          	ld	t0,32(t6)
    800060c2:	028fb303          	ld	t1,40(t6)
    800060c6:	030fb383          	ld	t2,48(t6)
    800060ca:	038fb403          	ld	s0,56(t6)
    800060ce:	040fb483          	ld	s1,64(t6)
    800060d2:	048fb503          	ld	a0,72(t6)
    800060d6:	050fb583          	ld	a1,80(t6)
    800060da:	058fb603          	ld	a2,88(t6)
    800060de:	060fb683          	ld	a3,96(t6)
    800060e2:	068fb703          	ld	a4,104(t6)
    800060e6:	070fb783          	ld	a5,112(t6)
    800060ea:	078fb803          	ld	a6,120(t6)
    800060ee:	080fb883          	ld	a7,128(t6)
    800060f2:	088fb903          	ld	s2,136(t6)
    800060f6:	090fb983          	ld	s3,144(t6)
    800060fa:	098fba03          	ld	s4,152(t6)
    800060fe:	0a0fba83          	ld	s5,160(t6)
    80006102:	0a8fbb03          	ld	s6,168(t6)
    80006106:	0b0fbb83          	ld	s7,176(t6)
    8000610a:	0b8fbc03          	ld	s8,184(t6)
    8000610e:	0c0fbc83          	ld	s9,192(t6)
    80006112:	0c8fbd03          	ld	s10,200(t6)
    80006116:	0d0fbd83          	ld	s11,208(t6)
    8000611a:	0d8fbe03          	ld	t3,216(t6)
    8000611e:	0e0fbe83          	ld	t4,224(t6)
    80006122:	0e8fbf03          	ld	t5,232(t6)
    80006126:	0f0fbf83          	ld	t6,240(t6)
    8000612a:	10200073          	sret
	...
